---
triple:          'arm64-apple-darwin'
binary-path:     tinyRISC2
relocations:
  - { offsetInCU: 0x44, offset: 0x44, size: 0x8, addend: 0x0, symName: __ZN7sc_coreL17api_version_checkE, symObjAddr: 0x218809, symBinAddr: 0x10004C000, symSize: 0x0 }
  - { offsetInCU: 0x124C9, offset: 0x124C9, size: 0x8, addend: 0x0, symName: __ZN7sc_core8sc_startEiNS_12sc_time_unitENS_20sc_starvation_policyE, symObjAddr: 0x9EC, symBinAddr: 0x100003F08, symSize: 0x50 }
  - { offsetInCU: 0x1250D, offset: 0x1250D, size: 0x8, addend: 0x0, symName: __ZN7sc_core22sc_get_curr_simcontextEv, symObjAddr: 0x3074, symBinAddr: 0x100006590, symSize: 0x98 }
  - { offsetInCU: 0x12639, offset: 0x12639, size: 0x8, addend: 0x0, symName: __ZNSt3__1L19piecewise_constructE, symObjAddr: 0x40C2A, symBinAddr: 0x10003D8C3, symSize: 0x0 }
  - { offsetInCU: 0x40F7C, offset: 0x40F7C, size: 0x8, addend: 0x0, symName: __ZNSt3__124__put_character_sequenceB8ue170006IcNS_11char_traitsIcEEEERNS_13basic_ostreamIT_T0_EES7_PKS4_m, symObjAddr: 0x33020, symBinAddr: 0x10003653C, symSize: 0x1EC }
  - { offsetInCU: 0x42EB3, offset: 0x42EB3, size: 0x8, addend: 0x0, symName: __ZNSt3__17advanceB8ue170006INS_21__tree_const_iteratorINS_12__value_typeIjjEEPNS_11__tree_nodeIS3_PvEElEEllvEEvRT_T0_, symObjAddr: 0x35FE8, symBinAddr: 0x100039504, symSize: 0x38 }
  - { offsetInCU: 0x45493, offset: 0x45493, size: 0x8, addend: 0x0, symName: __ZNSt3__1lsB8ue170006INS_11char_traitsIcEEEERNS_13basic_ostreamIcT_EES6_c, symObjAddr: 0xA3C, symBinAddr: 0x100003F58, symSize: 0x34 }
  - { offsetInCU: 0x454D9, offset: 0x454D9, size: 0x8, addend: 0x0, symName: __ZNSt3__1lsB8ue170006INS_11char_traitsIcEEEERNS_13basic_ostreamIcT_EES6_PKc, symObjAddr: 0xA70, symBinAddr: 0x100003F8C, symSize: 0x48 }
  - { offsetInCU: 0x4551F, offset: 0x4551F, size: 0x8, addend: 0x0, symName: __ZNSt3__14endlB8ue170006IcNS_11char_traitsIcEEEERNS_13basic_ostreamIT_T0_EES7_, symObjAddr: 0xB18, symBinAddr: 0x100004034, symSize: 0x58 }
  - { offsetInCU: 0x4555F, offset: 0x4555F, size: 0x8, addend: 0x0, symName: __ZNSt3__112__to_addressB8ue170006IPN7sc_core15sc_signal_in_ifIN5sc_dt5sc_bvILi2EEEEEEEPT_S9_, symObjAddr: 0x4CA8, symBinAddr: 0x1000081C4, symSize: 0x14 }
  - { offsetInCU: 0x45594, offset: 0x45594, size: 0x8, addend: 0x0, symName: __ZNSt3__119__libcpp_deallocateB8ue170006EPvmm, symObjAddr: 0x4D80, symBinAddr: 0x10000829C, symSize: 0x30 }
  - { offsetInCU: 0x455DC, offset: 0x455DC, size: 0x8, addend: 0x0, symName: __ZNSt3__127__do_deallocate_handle_sizeB8ue170006IJEEEvPvmDpT_, symObjAddr: 0x4DB0, symBinAddr: 0x1000082CC, symSize: 0x28 }
  - { offsetInCU: 0x4561A, offset: 0x4561A, size: 0x8, addend: 0x0, symName: __ZNSt3__124__libcpp_operator_deleteB8ue170006IJPvEEEvDpT_, symObjAddr: 0x4DD8, symBinAddr: 0x1000082F4, symSize: 0x24 }
  - { offsetInCU: 0x45650, offset: 0x45650, size: 0x8, addend: 0x0, symName: __ZNSt3__13maxB8ue170006ImEERKT_S3_S3_, symObjAddr: 0x556C, symBinAddr: 0x100008A88, symSize: 0x2C }
  - { offsetInCU: 0x45693, offset: 0x45693, size: 0x8, addend: 0x0, symName: __ZNSt3__13minB8ue170006ImEERKT_S3_S3_, symObjAddr: 0x5598, symBinAddr: 0x100008AB4, symSize: 0x2C }
  - { offsetInCU: 0x458D7, offset: 0x458D7, size: 0x8, addend: 0x0, symName: __ZNSt3__13minB8ue170006ImNS_6__lessIvvEEEERKT_S5_S5_T0_, symObjAddr: 0x5624, symBinAddr: 0x100008B40, symSize: 0x54 }
  - { offsetInCU: 0x45978, offset: 0x45978, size: 0x8, addend: 0x0, symName: __ZNSt3__120__throw_length_errorB8ue170006EPKc, symObjAddr: 0x5700, symBinAddr: 0x100008C1C, symSize: 0x64 }
  - { offsetInCU: 0x459A3, offset: 0x459A3, size: 0x8, addend: 0x0, symName: __ZNSt3__13maxB8ue170006ImNS_6__lessIvvEEEERKT_S5_S5_T0_, symObjAddr: 0x57E4, symBinAddr: 0x100008D00, symSize: 0x54 }
  - { offsetInCU: 0x459FD, offset: 0x459FD, size: 0x8, addend: 0x0, symName: __ZNSt3__119__allocate_at_leastB8ue170006INS_9allocatorIPN7sc_core15sc_signal_in_ifIN5sc_dt5sc_bvILi2EEEEEEEEENS_19__allocation_resultINS_16allocator_traitsIT_E7pointerEEERSC_m, symObjAddr: 0x5948, symBinAddr: 0x100008E64, symSize: 0x40 }
  - { offsetInCU: 0x45A3F, offset: 0x45A3F, size: 0x8, addend: 0x0, symName: __ZNSt3__117__libcpp_allocateB8ue170006Emm, symObjAddr: 0x5ACC, symBinAddr: 0x100008FE8, symSize: 0x28 }
  - { offsetInCU: 0x45A7C, offset: 0x45A7C, size: 0x8, addend: 0x0, symName: __ZNSt3__121__libcpp_operator_newB8ue170006IJmEEEPvDpT_, symObjAddr: 0x5AF4, symBinAddr: 0x100009010, symSize: 0x24 }
  - { offsetInCU: 0x45AB5, offset: 0x45AB5, size: 0x8, addend: 0x0, symName: __ZNSt3__142__uninitialized_allocator_move_if_noexceptB8ue170006INS_9allocatorIPN7sc_core15sc_signal_in_ifIN5sc_dt5sc_bvILi2EEEEEEENS_16reverse_iteratorIPS8_EESC_S8_vEET1_RT_T0_SG_SD_, symObjAddr: 0x5B7C, symBinAddr: 0x100009098, symSize: 0x78 }
  - { offsetInCU: 0x45B33, offset: 0x45B33, size: 0x8, addend: 0x0, symName: __ZNSt3__14swapB8ue170006IPPN7sc_core15sc_signal_in_ifIN5sc_dt5sc_bvILi2EEEEEEENS_9enable_ifIXaasr21is_move_constructibleIT_EE5valuesr18is_move_assignableISA_EE5valueEvE4typeERSA_SD_, symObjAddr: 0x5C40, symBinAddr: 0x10000915C, symSize: 0x3C }
  - { offsetInCU: 0x45B85, offset: 0x45B85, size: 0x8, addend: 0x0, symName: __ZNSt3__14moveB8ue170006INS_16reverse_iteratorIPPN7sc_core15sc_signal_in_ifIN5sc_dt5sc_bvILi2EEEEEEESA_EET0_T_SC_SB_, symObjAddr: 0x5D28, symBinAddr: 0x100009244, symSize: 0x78 }
  - { offsetInCU: 0x45BDF, offset: 0x45BDF, size: 0x8, addend: 0x0, symName: __ZNSt3__16__moveB8ue170006INS_17_ClassicAlgPolicyENS_16reverse_iteratorIPPN7sc_core15sc_signal_in_ifIN5sc_dt5sc_bvILi2EEEEEEESB_SB_EENS_4pairIT0_T2_EESD_T1_SE_, symObjAddr: 0x5DA0, symBinAddr: 0x1000092BC, symSize: 0x64 }
  - { offsetInCU: 0x45C4B, offset: 0x45C4B, size: 0x8, addend: 0x0, symName: __ZNSt3__123__dispatch_copy_or_moveB8ue170006INS_17_ClassicAlgPolicyENS_11__move_loopIS1_EENS_14__move_trivialENS_16reverse_iteratorIPPN7sc_core15sc_signal_in_ifIN5sc_dt5sc_bvILi2EEEEEEESE_SE_EENS_4pairIT2_T4_EESG_T3_SH_, symObjAddr: 0x5E04, symBinAddr: 0x100009320, symSize: 0x64 }
  - { offsetInCU: 0x45CC9, offset: 0x45CC9, size: 0x8, addend: 0x0, symName: __ZNSt3__121__unwrap_and_dispatchB8ue170006INS_10__overloadINS_11__move_loopINS_17_ClassicAlgPolicyEEENS_14__move_trivialEEENS_16reverse_iteratorIPPN7sc_core15sc_signal_in_ifIN5sc_dt5sc_bvILi2EEEEEEESG_SG_Li0EEENS_4pairIT0_T2_EESI_T1_SJ_, symObjAddr: 0x5E68, symBinAddr: 0x100009384, symSize: 0x12C }
  - { offsetInCU: 0x45D59, offset: 0x45D59, size: 0x8, addend: 0x0, symName: __ZNSt3__114__unwrap_rangeB8ue170006INS_16reverse_iteratorIPPN7sc_core15sc_signal_in_ifIN5sc_dt5sc_bvILi2EEEEEEESA_EENS_4pairIT0_SC_EET_SE_, symObjAddr: 0x5F94, symBinAddr: 0x1000094B0, symSize: 0x84 }
  - { offsetInCU: 0x461C8, offset: 0x461C8, size: 0x8, addend: 0x0, symName: __ZNSt3__113__unwrap_iterB8ue170006INS_16reverse_iteratorIPPN7sc_core15sc_signal_in_ifIN5sc_dt5sc_bvILi2EEEEEEENS_18__unwrap_iter_implISA_Lb0EEELi0EEEDTclsrT0_8__unwrapclsr3stdE7declvalIT_EEEESE_, symObjAddr: 0x60B8, symBinAddr: 0x1000095D4, symSize: 0x44 }
  - { offsetInCU: 0x4620B, offset: 0x4620B, size: 0x8, addend: 0x0, symName: __ZNSt3__19make_pairB8ue170006INS_16reverse_iteratorIPPN7sc_core15sc_signal_in_ifIN5sc_dt5sc_bvILi2EEEEEEESA_EENS_4pairINS_18__unwrap_ref_decayIT_E4typeENSC_IT0_E4typeEEEOSD_OSG_, symObjAddr: 0x60FC, symBinAddr: 0x100009618, symSize: 0x38 }
  - { offsetInCU: 0x4625B, offset: 0x4625B, size: 0x8, addend: 0x0, symName: __ZNSt3__114__rewrap_rangeB8ue170006INS_16reverse_iteratorIPPN7sc_core15sc_signal_in_ifIN5sc_dt5sc_bvILi2EEEEEEESA_EET_SB_T0_, symObjAddr: 0x6134, symBinAddr: 0x100009650, symSize: 0x5C }
  - { offsetInCU: 0x462A7, offset: 0x462A7, size: 0x8, addend: 0x0, symName: __ZNSt3__113__rewrap_iterB8ue170006INS_16reverse_iteratorIPPN7sc_core15sc_signal_in_ifIN5sc_dt5sc_bvILi2EEEEEEESA_NS_18__unwrap_iter_implISA_Lb0EEEEET_SD_T0_, symObjAddr: 0x6190, symBinAddr: 0x1000096AC, symSize: 0x74 }
  - { offsetInCU: 0x462FC, offset: 0x462FC, size: 0x8, addend: 0x0, symName: __ZNSt3__1neB8ue170006IPPN7sc_core15sc_signal_in_ifIN5sc_dt5sc_bvILi2EEEEES8_EEbRKNS_16reverse_iteratorIT_EERKNS9_IT0_EE, symObjAddr: 0x6204, symBinAddr: 0x100009720, symSize: 0x48 }
  - { offsetInCU: 0x4665D, offset: 0x4665D, size: 0x8, addend: 0x0, symName: __ZNSt3__112__to_addressB8ue170006IPN7sc_core15sc_trace_paramsEEEPT_S5_, symObjAddr: 0x6AB8, symBinAddr: 0x100009FD4, symSize: 0x14 }
  - { offsetInCU: 0x46692, offset: 0x46692, size: 0x8, addend: 0x0, symName: __ZNSt3__112__to_addressB8ue170006IPN7sc_core15sc_signal_in_ifIjEEEEPT_S6_, symObjAddr: 0x7D18, symBinAddr: 0x10000B234, symSize: 0x14 }
  - { offsetInCU: 0x466C8, offset: 0x466C8, size: 0x8, addend: 0x0, symName: __ZNSt3__119__allocate_at_leastB8ue170006INS_9allocatorIPN7sc_core15sc_signal_in_ifIjEEEEEENS_19__allocation_resultINS_16allocator_traitsIT_E7pointerEEERS9_m, symObjAddr: 0x86B4, symBinAddr: 0x10000BBD0, symSize: 0x40 }
  - { offsetInCU: 0x4670A, offset: 0x4670A, size: 0x8, addend: 0x0, symName: __ZNSt3__142__uninitialized_allocator_move_if_noexceptB8ue170006INS_9allocatorIPN7sc_core15sc_signal_in_ifIjEEEENS_16reverse_iteratorIPS5_EES9_S5_vEET1_RT_T0_SD_SA_, symObjAddr: 0x8868, symBinAddr: 0x10000BD84, symSize: 0x78 }
  - { offsetInCU: 0x46788, offset: 0x46788, size: 0x8, addend: 0x0, symName: __ZNSt3__14swapB8ue170006IPPN7sc_core15sc_signal_in_ifIjEEEENS_9enable_ifIXaasr21is_move_constructibleIT_EE5valuesr18is_move_assignableIS7_EE5valueEvE4typeERS7_SA_, symObjAddr: 0x892C, symBinAddr: 0x10000BE48, symSize: 0x3C }
  - { offsetInCU: 0x467DA, offset: 0x467DA, size: 0x8, addend: 0x0, symName: __ZNSt3__14moveB8ue170006INS_16reverse_iteratorIPPN7sc_core15sc_signal_in_ifIjEEEES7_EET0_T_S9_S8_, symObjAddr: 0x8A14, symBinAddr: 0x10000BF30, symSize: 0x78 }
  - { offsetInCU: 0x46834, offset: 0x46834, size: 0x8, addend: 0x0, symName: __ZNSt3__16__moveB8ue170006INS_17_ClassicAlgPolicyENS_16reverse_iteratorIPPN7sc_core15sc_signal_in_ifIjEEEES8_S8_EENS_4pairIT0_T2_EESA_T1_SB_, symObjAddr: 0x8A8C, symBinAddr: 0x10000BFA8, symSize: 0x64 }
  - { offsetInCU: 0x468A0, offset: 0x468A0, size: 0x8, addend: 0x0, symName: __ZNSt3__123__dispatch_copy_or_moveB8ue170006INS_17_ClassicAlgPolicyENS_11__move_loopIS1_EENS_14__move_trivialENS_16reverse_iteratorIPPN7sc_core15sc_signal_in_ifIjEEEESB_SB_EENS_4pairIT2_T4_EESD_T3_SE_, symObjAddr: 0x8AF0, symBinAddr: 0x10000C00C, symSize: 0x64 }
  - { offsetInCU: 0x4691E, offset: 0x4691E, size: 0x8, addend: 0x0, symName: __ZNSt3__121__unwrap_and_dispatchB8ue170006INS_10__overloadINS_11__move_loopINS_17_ClassicAlgPolicyEEENS_14__move_trivialEEENS_16reverse_iteratorIPPN7sc_core15sc_signal_in_ifIjEEEESD_SD_Li0EEENS_4pairIT0_T2_EESF_T1_SG_, symObjAddr: 0x8B54, symBinAddr: 0x10000C070, symSize: 0x12C }
  - { offsetInCU: 0x469AE, offset: 0x469AE, size: 0x8, addend: 0x0, symName: __ZNSt3__114__unwrap_rangeB8ue170006INS_16reverse_iteratorIPPN7sc_core15sc_signal_in_ifIjEEEES7_EENS_4pairIT0_S9_EET_SB_, symObjAddr: 0x8C80, symBinAddr: 0x10000C19C, symSize: 0x84 }
  - { offsetInCU: 0x46ACE, offset: 0x46ACE, size: 0x8, addend: 0x0, symName: __ZNSt3__113__unwrap_iterB8ue170006INS_16reverse_iteratorIPPN7sc_core15sc_signal_in_ifIjEEEENS_18__unwrap_iter_implIS7_Lb0EEELi0EEEDTclsrT0_8__unwrapclsr3stdE7declvalIT_EEEESB_, symObjAddr: 0x8DA4, symBinAddr: 0x10000C2C0, symSize: 0x44 }
  - { offsetInCU: 0x46B11, offset: 0x46B11, size: 0x8, addend: 0x0, symName: __ZNSt3__19make_pairB8ue170006INS_16reverse_iteratorIPPN7sc_core15sc_signal_in_ifIjEEEES7_EENS_4pairINS_18__unwrap_ref_decayIT_E4typeENS9_IT0_E4typeEEEOSA_OSD_, symObjAddr: 0x8DE8, symBinAddr: 0x10000C304, symSize: 0x38 }
  - { offsetInCU: 0x46B61, offset: 0x46B61, size: 0x8, addend: 0x0, symName: __ZNSt3__114__rewrap_rangeB8ue170006INS_16reverse_iteratorIPPN7sc_core15sc_signal_in_ifIjEEEES7_EET_S8_T0_, symObjAddr: 0x8E20, symBinAddr: 0x10000C33C, symSize: 0x5C }
  - { offsetInCU: 0x46BAD, offset: 0x46BAD, size: 0x8, addend: 0x0, symName: __ZNSt3__113__rewrap_iterB8ue170006INS_16reverse_iteratorIPPN7sc_core15sc_signal_in_ifIjEEEES7_NS_18__unwrap_iter_implIS7_Lb0EEEEET_SA_T0_, symObjAddr: 0x8E7C, symBinAddr: 0x10000C398, symSize: 0x74 }
  - { offsetInCU: 0x46C02, offset: 0x46C02, size: 0x8, addend: 0x0, symName: __ZNSt3__1neB8ue170006IPPN7sc_core15sc_signal_in_ifIjEES5_EEbRKNS_16reverse_iteratorIT_EERKNS6_IT0_EE, symObjAddr: 0x8EF0, symBinAddr: 0x10000C40C, symSize: 0x48 }
  - { offsetInCU: 0x46CB9, offset: 0x46CB9, size: 0x8, addend: 0x0, symName: __ZNSt3__112__to_addressB8ue170006IPN7sc_core15sc_signal_in_ifIN5sc_dt5sc_bvILi12EEEEEEEPT_S9_, symObjAddr: 0xA488, symBinAddr: 0x10000D9A4, symSize: 0x14 }
  - { offsetInCU: 0x46CEF, offset: 0x46CEF, size: 0x8, addend: 0x0, symName: __ZNSt3__119__allocate_at_leastB8ue170006INS_9allocatorIPN7sc_core15sc_signal_in_ifIN5sc_dt5sc_bvILi12EEEEEEEEENS_19__allocation_resultINS_16allocator_traitsIT_E7pointerEEERSC_m, symObjAddr: 0xAE24, symBinAddr: 0x10000E340, symSize: 0x40 }
  - { offsetInCU: 0x46D31, offset: 0x46D31, size: 0x8, addend: 0x0, symName: __ZNSt3__142__uninitialized_allocator_move_if_noexceptB8ue170006INS_9allocatorIPN7sc_core15sc_signal_in_ifIN5sc_dt5sc_bvILi12EEEEEEENS_16reverse_iteratorIPS8_EESC_S8_vEET1_RT_T0_SG_SD_, symObjAddr: 0xAFD8, symBinAddr: 0x10000E4F4, symSize: 0x78 }
  - { offsetInCU: 0x46DAF, offset: 0x46DAF, size: 0x8, addend: 0x0, symName: __ZNSt3__14swapB8ue170006IPPN7sc_core15sc_signal_in_ifIN5sc_dt5sc_bvILi12EEEEEEENS_9enable_ifIXaasr21is_move_constructibleIT_EE5valuesr18is_move_assignableISA_EE5valueEvE4typeERSA_SD_, symObjAddr: 0xB09C, symBinAddr: 0x10000E5B8, symSize: 0x3C }
  - { offsetInCU: 0x46E01, offset: 0x46E01, size: 0x8, addend: 0x0, symName: __ZNSt3__14moveB8ue170006INS_16reverse_iteratorIPPN7sc_core15sc_signal_in_ifIN5sc_dt5sc_bvILi12EEEEEEESA_EET0_T_SC_SB_, symObjAddr: 0xB184, symBinAddr: 0x10000E6A0, symSize: 0x78 }
  - { offsetInCU: 0x46E5B, offset: 0x46E5B, size: 0x8, addend: 0x0, symName: __ZNSt3__16__moveB8ue170006INS_17_ClassicAlgPolicyENS_16reverse_iteratorIPPN7sc_core15sc_signal_in_ifIN5sc_dt5sc_bvILi12EEEEEEESB_SB_EENS_4pairIT0_T2_EESD_T1_SE_, symObjAddr: 0xB1FC, symBinAddr: 0x10000E718, symSize: 0x64 }
  - { offsetInCU: 0x46EC7, offset: 0x46EC7, size: 0x8, addend: 0x0, symName: __ZNSt3__123__dispatch_copy_or_moveB8ue170006INS_17_ClassicAlgPolicyENS_11__move_loopIS1_EENS_14__move_trivialENS_16reverse_iteratorIPPN7sc_core15sc_signal_in_ifIN5sc_dt5sc_bvILi12EEEEEEESE_SE_EENS_4pairIT2_T4_EESG_T3_SH_, symObjAddr: 0xB260, symBinAddr: 0x10000E77C, symSize: 0x64 }
  - { offsetInCU: 0x46F45, offset: 0x46F45, size: 0x8, addend: 0x0, symName: __ZNSt3__121__unwrap_and_dispatchB8ue170006INS_10__overloadINS_11__move_loopINS_17_ClassicAlgPolicyEEENS_14__move_trivialEEENS_16reverse_iteratorIPPN7sc_core15sc_signal_in_ifIN5sc_dt5sc_bvILi12EEEEEEESG_SG_Li0EEENS_4pairIT0_T2_EESI_T1_SJ_, symObjAddr: 0xB2C4, symBinAddr: 0x10000E7E0, symSize: 0x12C }
  - { offsetInCU: 0x46FD5, offset: 0x46FD5, size: 0x8, addend: 0x0, symName: __ZNSt3__114__unwrap_rangeB8ue170006INS_16reverse_iteratorIPPN7sc_core15sc_signal_in_ifIN5sc_dt5sc_bvILi12EEEEEEESA_EENS_4pairIT0_SC_EET_SE_, symObjAddr: 0xB3F0, symBinAddr: 0x10000E90C, symSize: 0x84 }
  - { offsetInCU: 0x470F5, offset: 0x470F5, size: 0x8, addend: 0x0, symName: __ZNSt3__113__unwrap_iterB8ue170006INS_16reverse_iteratorIPPN7sc_core15sc_signal_in_ifIN5sc_dt5sc_bvILi12EEEEEEENS_18__unwrap_iter_implISA_Lb0EEELi0EEEDTclsrT0_8__unwrapclsr3stdE7declvalIT_EEEESE_, symObjAddr: 0xB514, symBinAddr: 0x10000EA30, symSize: 0x44 }
  - { offsetInCU: 0x47138, offset: 0x47138, size: 0x8, addend: 0x0, symName: __ZNSt3__19make_pairB8ue170006INS_16reverse_iteratorIPPN7sc_core15sc_signal_in_ifIN5sc_dt5sc_bvILi12EEEEEEESA_EENS_4pairINS_18__unwrap_ref_decayIT_E4typeENSC_IT0_E4typeEEEOSD_OSG_, symObjAddr: 0xB558, symBinAddr: 0x10000EA74, symSize: 0x38 }
  - { offsetInCU: 0x47188, offset: 0x47188, size: 0x8, addend: 0x0, symName: __ZNSt3__114__rewrap_rangeB8ue170006INS_16reverse_iteratorIPPN7sc_core15sc_signal_in_ifIN5sc_dt5sc_bvILi12EEEEEEESA_EET_SB_T0_, symObjAddr: 0xB590, symBinAddr: 0x10000EAAC, symSize: 0x5C }
  - { offsetInCU: 0x471D4, offset: 0x471D4, size: 0x8, addend: 0x0, symName: __ZNSt3__113__rewrap_iterB8ue170006INS_16reverse_iteratorIPPN7sc_core15sc_signal_in_ifIN5sc_dt5sc_bvILi12EEEEEEESA_NS_18__unwrap_iter_implISA_Lb0EEEEET_SD_T0_, symObjAddr: 0xB5EC, symBinAddr: 0x10000EB08, symSize: 0x74 }
  - { offsetInCU: 0x47229, offset: 0x47229, size: 0x8, addend: 0x0, symName: __ZNSt3__1neB8ue170006IPPN7sc_core15sc_signal_in_ifIN5sc_dt5sc_bvILi12EEEEES8_EEbRKNS_16reverse_iteratorIT_EERKNS9_IT0_EE, symObjAddr: 0xB660, symBinAddr: 0x10000EB7C, symSize: 0x48 }
  - { offsetInCU: 0x472E0, offset: 0x472E0, size: 0x8, addend: 0x0, symName: __ZNSt3__112__to_addressB8ue170006IPN7sc_core18sc_signal_inout_ifIjEEEEPT_S6_, symObjAddr: 0xCAC8, symBinAddr: 0x10000FFE4, symSize: 0x14 }
  - { offsetInCU: 0x47316, offset: 0x47316, size: 0x8, addend: 0x0, symName: __ZNSt3__119__allocate_at_leastB8ue170006INS_9allocatorIPN7sc_core18sc_signal_inout_ifIjEEEEEENS_19__allocation_resultINS_16allocator_traitsIT_E7pointerEEERS9_m, symObjAddr: 0xD604, symBinAddr: 0x100010B20, symSize: 0x40 }
  - { offsetInCU: 0x47358, offset: 0x47358, size: 0x8, addend: 0x0, symName: __ZNSt3__142__uninitialized_allocator_move_if_noexceptB8ue170006INS_9allocatorIPN7sc_core18sc_signal_inout_ifIjEEEENS_16reverse_iteratorIPS5_EES9_S5_vEET1_RT_T0_SD_SA_, symObjAddr: 0xD7B8, symBinAddr: 0x100010CD4, symSize: 0x78 }
  - { offsetInCU: 0x473D6, offset: 0x473D6, size: 0x8, addend: 0x0, symName: __ZNSt3__14swapB8ue170006IPPN7sc_core18sc_signal_inout_ifIjEEEENS_9enable_ifIXaasr21is_move_constructibleIT_EE5valuesr18is_move_assignableIS7_EE5valueEvE4typeERS7_SA_, symObjAddr: 0xD87C, symBinAddr: 0x100010D98, symSize: 0x3C }
  - { offsetInCU: 0x47428, offset: 0x47428, size: 0x8, addend: 0x0, symName: __ZNSt3__14moveB8ue170006INS_16reverse_iteratorIPPN7sc_core18sc_signal_inout_ifIjEEEES7_EET0_T_S9_S8_, symObjAddr: 0xD964, symBinAddr: 0x100010E80, symSize: 0x78 }
  - { offsetInCU: 0x47482, offset: 0x47482, size: 0x8, addend: 0x0, symName: __ZNSt3__16__moveB8ue170006INS_17_ClassicAlgPolicyENS_16reverse_iteratorIPPN7sc_core18sc_signal_inout_ifIjEEEES8_S8_EENS_4pairIT0_T2_EESA_T1_SB_, symObjAddr: 0xD9DC, symBinAddr: 0x100010EF8, symSize: 0x64 }
  - { offsetInCU: 0x474EE, offset: 0x474EE, size: 0x8, addend: 0x0, symName: __ZNSt3__123__dispatch_copy_or_moveB8ue170006INS_17_ClassicAlgPolicyENS_11__move_loopIS1_EENS_14__move_trivialENS_16reverse_iteratorIPPN7sc_core18sc_signal_inout_ifIjEEEESB_SB_EENS_4pairIT2_T4_EESD_T3_SE_, symObjAddr: 0xDA40, symBinAddr: 0x100010F5C, symSize: 0x64 }
  - { offsetInCU: 0x4756C, offset: 0x4756C, size: 0x8, addend: 0x0, symName: __ZNSt3__121__unwrap_and_dispatchB8ue170006INS_10__overloadINS_11__move_loopINS_17_ClassicAlgPolicyEEENS_14__move_trivialEEENS_16reverse_iteratorIPPN7sc_core18sc_signal_inout_ifIjEEEESD_SD_Li0EEENS_4pairIT0_T2_EESF_T1_SG_, symObjAddr: 0xDAA4, symBinAddr: 0x100010FC0, symSize: 0x12C }
  - { offsetInCU: 0x475FC, offset: 0x475FC, size: 0x8, addend: 0x0, symName: __ZNSt3__114__unwrap_rangeB8ue170006INS_16reverse_iteratorIPPN7sc_core18sc_signal_inout_ifIjEEEES7_EENS_4pairIT0_S9_EET_SB_, symObjAddr: 0xDBD0, symBinAddr: 0x1000110EC, symSize: 0x84 }
  - { offsetInCU: 0x4771C, offset: 0x4771C, size: 0x8, addend: 0x0, symName: __ZNSt3__113__unwrap_iterB8ue170006INS_16reverse_iteratorIPPN7sc_core18sc_signal_inout_ifIjEEEENS_18__unwrap_iter_implIS7_Lb0EEELi0EEEDTclsrT0_8__unwrapclsr3stdE7declvalIT_EEEESB_, symObjAddr: 0xDCF4, symBinAddr: 0x100011210, symSize: 0x44 }
  - { offsetInCU: 0x4775F, offset: 0x4775F, size: 0x8, addend: 0x0, symName: __ZNSt3__19make_pairB8ue170006INS_16reverse_iteratorIPPN7sc_core18sc_signal_inout_ifIjEEEES7_EENS_4pairINS_18__unwrap_ref_decayIT_E4typeENS9_IT0_E4typeEEEOSA_OSD_, symObjAddr: 0xDD38, symBinAddr: 0x100011254, symSize: 0x38 }
  - { offsetInCU: 0x477AF, offset: 0x477AF, size: 0x8, addend: 0x0, symName: __ZNSt3__114__rewrap_rangeB8ue170006INS_16reverse_iteratorIPPN7sc_core18sc_signal_inout_ifIjEEEES7_EET_S8_T0_, symObjAddr: 0xDD70, symBinAddr: 0x10001128C, symSize: 0x5C }
  - { offsetInCU: 0x477FB, offset: 0x477FB, size: 0x8, addend: 0x0, symName: __ZNSt3__113__rewrap_iterB8ue170006INS_16reverse_iteratorIPPN7sc_core18sc_signal_inout_ifIjEEEES7_NS_18__unwrap_iter_implIS7_Lb0EEEEET_SA_T0_, symObjAddr: 0xDDCC, symBinAddr: 0x1000112E8, symSize: 0x74 }
  - { offsetInCU: 0x47850, offset: 0x47850, size: 0x8, addend: 0x0, symName: __ZNSt3__1neB8ue170006IPPN7sc_core18sc_signal_inout_ifIjEES5_EEbRKNS_16reverse_iteratorIT_EERKNS6_IT0_EE, symObjAddr: 0xDE40, symBinAddr: 0x10001135C, symSize: 0x48 }
  - { offsetInCU: 0x47907, offset: 0x47907, size: 0x8, addend: 0x0, symName: __ZNSt3__112__to_addressB8ue170006IPN7sc_core15sc_signal_in_ifIN5sc_dt5sc_bvILi5EEEEEEEPT_S9_, symObjAddr: 0x10224, symBinAddr: 0x100013740, symSize: 0x14 }
  - { offsetInCU: 0x4793D, offset: 0x4793D, size: 0x8, addend: 0x0, symName: __ZNSt3__119__allocate_at_leastB8ue170006INS_9allocatorIPN7sc_core15sc_signal_in_ifIN5sc_dt5sc_bvILi5EEEEEEEEENS_19__allocation_resultINS_16allocator_traitsIT_E7pointerEEERSC_m, symObjAddr: 0x10BC0, symBinAddr: 0x1000140DC, symSize: 0x40 }
  - { offsetInCU: 0x4797F, offset: 0x4797F, size: 0x8, addend: 0x0, symName: __ZNSt3__142__uninitialized_allocator_move_if_noexceptB8ue170006INS_9allocatorIPN7sc_core15sc_signal_in_ifIN5sc_dt5sc_bvILi5EEEEEEENS_16reverse_iteratorIPS8_EESC_S8_vEET1_RT_T0_SG_SD_, symObjAddr: 0x10D74, symBinAddr: 0x100014290, symSize: 0x78 }
  - { offsetInCU: 0x479FD, offset: 0x479FD, size: 0x8, addend: 0x0, symName: __ZNSt3__14swapB8ue170006IPPN7sc_core15sc_signal_in_ifIN5sc_dt5sc_bvILi5EEEEEEENS_9enable_ifIXaasr21is_move_constructibleIT_EE5valuesr18is_move_assignableISA_EE5valueEvE4typeERSA_SD_, symObjAddr: 0x10E38, symBinAddr: 0x100014354, symSize: 0x3C }
  - { offsetInCU: 0x47A4F, offset: 0x47A4F, size: 0x8, addend: 0x0, symName: __ZNSt3__14moveB8ue170006INS_16reverse_iteratorIPPN7sc_core15sc_signal_in_ifIN5sc_dt5sc_bvILi5EEEEEEESA_EET0_T_SC_SB_, symObjAddr: 0x10F20, symBinAddr: 0x10001443C, symSize: 0x78 }
  - { offsetInCU: 0x47AA9, offset: 0x47AA9, size: 0x8, addend: 0x0, symName: __ZNSt3__16__moveB8ue170006INS_17_ClassicAlgPolicyENS_16reverse_iteratorIPPN7sc_core15sc_signal_in_ifIN5sc_dt5sc_bvILi5EEEEEEESB_SB_EENS_4pairIT0_T2_EESD_T1_SE_, symObjAddr: 0x10F98, symBinAddr: 0x1000144B4, symSize: 0x64 }
  - { offsetInCU: 0x47B15, offset: 0x47B15, size: 0x8, addend: 0x0, symName: __ZNSt3__123__dispatch_copy_or_moveB8ue170006INS_17_ClassicAlgPolicyENS_11__move_loopIS1_EENS_14__move_trivialENS_16reverse_iteratorIPPN7sc_core15sc_signal_in_ifIN5sc_dt5sc_bvILi5EEEEEEESE_SE_EENS_4pairIT2_T4_EESG_T3_SH_, symObjAddr: 0x10FFC, symBinAddr: 0x100014518, symSize: 0x64 }
  - { offsetInCU: 0x47B93, offset: 0x47B93, size: 0x8, addend: 0x0, symName: __ZNSt3__121__unwrap_and_dispatchB8ue170006INS_10__overloadINS_11__move_loopINS_17_ClassicAlgPolicyEEENS_14__move_trivialEEENS_16reverse_iteratorIPPN7sc_core15sc_signal_in_ifIN5sc_dt5sc_bvILi5EEEEEEESG_SG_Li0EEENS_4pairIT0_T2_EESI_T1_SJ_, symObjAddr: 0x11060, symBinAddr: 0x10001457C, symSize: 0x12C }
  - { offsetInCU: 0x47C23, offset: 0x47C23, size: 0x8, addend: 0x0, symName: __ZNSt3__114__unwrap_rangeB8ue170006INS_16reverse_iteratorIPPN7sc_core15sc_signal_in_ifIN5sc_dt5sc_bvILi5EEEEEEESA_EENS_4pairIT0_SC_EET_SE_, symObjAddr: 0x1118C, symBinAddr: 0x1000146A8, symSize: 0x84 }
  - { offsetInCU: 0x47D43, offset: 0x47D43, size: 0x8, addend: 0x0, symName: __ZNSt3__113__unwrap_iterB8ue170006INS_16reverse_iteratorIPPN7sc_core15sc_signal_in_ifIN5sc_dt5sc_bvILi5EEEEEEENS_18__unwrap_iter_implISA_Lb0EEELi0EEEDTclsrT0_8__unwrapclsr3stdE7declvalIT_EEEESE_, symObjAddr: 0x112B0, symBinAddr: 0x1000147CC, symSize: 0x44 }
  - { offsetInCU: 0x47D86, offset: 0x47D86, size: 0x8, addend: 0x0, symName: __ZNSt3__19make_pairB8ue170006INS_16reverse_iteratorIPPN7sc_core15sc_signal_in_ifIN5sc_dt5sc_bvILi5EEEEEEESA_EENS_4pairINS_18__unwrap_ref_decayIT_E4typeENSC_IT0_E4typeEEEOSD_OSG_, symObjAddr: 0x112F4, symBinAddr: 0x100014810, symSize: 0x38 }
  - { offsetInCU: 0x47DD6, offset: 0x47DD6, size: 0x8, addend: 0x0, symName: __ZNSt3__114__rewrap_rangeB8ue170006INS_16reverse_iteratorIPPN7sc_core15sc_signal_in_ifIN5sc_dt5sc_bvILi5EEEEEEESA_EET_SB_T0_, symObjAddr: 0x1132C, symBinAddr: 0x100014848, symSize: 0x5C }
  - { offsetInCU: 0x47E22, offset: 0x47E22, size: 0x8, addend: 0x0, symName: __ZNSt3__113__rewrap_iterB8ue170006INS_16reverse_iteratorIPPN7sc_core15sc_signal_in_ifIN5sc_dt5sc_bvILi5EEEEEEESA_NS_18__unwrap_iter_implISA_Lb0EEEEET_SD_T0_, symObjAddr: 0x11388, symBinAddr: 0x1000148A4, symSize: 0x74 }
  - { offsetInCU: 0x47E77, offset: 0x47E77, size: 0x8, addend: 0x0, symName: __ZNSt3__1neB8ue170006IPPN7sc_core15sc_signal_in_ifIN5sc_dt5sc_bvILi5EEEEES8_EEbRKNS_16reverse_iteratorIT_EERKNS9_IT0_EE, symObjAddr: 0x113FC, symBinAddr: 0x100014918, symSize: 0x48 }
  - { offsetInCU: 0x47F2E, offset: 0x47F2E, size: 0x8, addend: 0x0, symName: __ZNSt3__112__to_addressB8ue170006IPN7sc_core15sc_signal_in_ifIN5sc_dt5sc_bvILi3EEEEEEEPT_S9_, symObjAddr: 0x13190, symBinAddr: 0x1000166AC, symSize: 0x14 }
  - { offsetInCU: 0x47F64, offset: 0x47F64, size: 0x8, addend: 0x0, symName: __ZNSt3__119__allocate_at_leastB8ue170006INS_9allocatorIPN7sc_core15sc_signal_in_ifIN5sc_dt5sc_bvILi3EEEEEEEEENS_19__allocation_resultINS_16allocator_traitsIT_E7pointerEEERSC_m, symObjAddr: 0x13B2C, symBinAddr: 0x100017048, symSize: 0x40 }
  - { offsetInCU: 0x47FA6, offset: 0x47FA6, size: 0x8, addend: 0x0, symName: __ZNSt3__142__uninitialized_allocator_move_if_noexceptB8ue170006INS_9allocatorIPN7sc_core15sc_signal_in_ifIN5sc_dt5sc_bvILi3EEEEEEENS_16reverse_iteratorIPS8_EESC_S8_vEET1_RT_T0_SG_SD_, symObjAddr: 0x13CE0, symBinAddr: 0x1000171FC, symSize: 0x78 }
  - { offsetInCU: 0x48024, offset: 0x48024, size: 0x8, addend: 0x0, symName: __ZNSt3__14swapB8ue170006IPPN7sc_core15sc_signal_in_ifIN5sc_dt5sc_bvILi3EEEEEEENS_9enable_ifIXaasr21is_move_constructibleIT_EE5valuesr18is_move_assignableISA_EE5valueEvE4typeERSA_SD_, symObjAddr: 0x13DA4, symBinAddr: 0x1000172C0, symSize: 0x3C }
  - { offsetInCU: 0x48076, offset: 0x48076, size: 0x8, addend: 0x0, symName: __ZNSt3__14moveB8ue170006INS_16reverse_iteratorIPPN7sc_core15sc_signal_in_ifIN5sc_dt5sc_bvILi3EEEEEEESA_EET0_T_SC_SB_, symObjAddr: 0x13E8C, symBinAddr: 0x1000173A8, symSize: 0x78 }
  - { offsetInCU: 0x480D0, offset: 0x480D0, size: 0x8, addend: 0x0, symName: __ZNSt3__16__moveB8ue170006INS_17_ClassicAlgPolicyENS_16reverse_iteratorIPPN7sc_core15sc_signal_in_ifIN5sc_dt5sc_bvILi3EEEEEEESB_SB_EENS_4pairIT0_T2_EESD_T1_SE_, symObjAddr: 0x13F04, symBinAddr: 0x100017420, symSize: 0x64 }
  - { offsetInCU: 0x4813C, offset: 0x4813C, size: 0x8, addend: 0x0, symName: __ZNSt3__123__dispatch_copy_or_moveB8ue170006INS_17_ClassicAlgPolicyENS_11__move_loopIS1_EENS_14__move_trivialENS_16reverse_iteratorIPPN7sc_core15sc_signal_in_ifIN5sc_dt5sc_bvILi3EEEEEEESE_SE_EENS_4pairIT2_T4_EESG_T3_SH_, symObjAddr: 0x13F68, symBinAddr: 0x100017484, symSize: 0x64 }
  - { offsetInCU: 0x481BA, offset: 0x481BA, size: 0x8, addend: 0x0, symName: __ZNSt3__121__unwrap_and_dispatchB8ue170006INS_10__overloadINS_11__move_loopINS_17_ClassicAlgPolicyEEENS_14__move_trivialEEENS_16reverse_iteratorIPPN7sc_core15sc_signal_in_ifIN5sc_dt5sc_bvILi3EEEEEEESG_SG_Li0EEENS_4pairIT0_T2_EESI_T1_SJ_, symObjAddr: 0x13FCC, symBinAddr: 0x1000174E8, symSize: 0x12C }
  - { offsetInCU: 0x4824A, offset: 0x4824A, size: 0x8, addend: 0x0, symName: __ZNSt3__114__unwrap_rangeB8ue170006INS_16reverse_iteratorIPPN7sc_core15sc_signal_in_ifIN5sc_dt5sc_bvILi3EEEEEEESA_EENS_4pairIT0_SC_EET_SE_, symObjAddr: 0x140F8, symBinAddr: 0x100017614, symSize: 0x84 }
  - { offsetInCU: 0x4836A, offset: 0x4836A, size: 0x8, addend: 0x0, symName: __ZNSt3__113__unwrap_iterB8ue170006INS_16reverse_iteratorIPPN7sc_core15sc_signal_in_ifIN5sc_dt5sc_bvILi3EEEEEEENS_18__unwrap_iter_implISA_Lb0EEELi0EEEDTclsrT0_8__unwrapclsr3stdE7declvalIT_EEEESE_, symObjAddr: 0x1421C, symBinAddr: 0x100017738, symSize: 0x44 }
  - { offsetInCU: 0x483AD, offset: 0x483AD, size: 0x8, addend: 0x0, symName: __ZNSt3__19make_pairB8ue170006INS_16reverse_iteratorIPPN7sc_core15sc_signal_in_ifIN5sc_dt5sc_bvILi3EEEEEEESA_EENS_4pairINS_18__unwrap_ref_decayIT_E4typeENSC_IT0_E4typeEEEOSD_OSG_, symObjAddr: 0x14260, symBinAddr: 0x10001777C, symSize: 0x38 }
  - { offsetInCU: 0x483FD, offset: 0x483FD, size: 0x8, addend: 0x0, symName: __ZNSt3__114__rewrap_rangeB8ue170006INS_16reverse_iteratorIPPN7sc_core15sc_signal_in_ifIN5sc_dt5sc_bvILi3EEEEEEESA_EET_SB_T0_, symObjAddr: 0x14298, symBinAddr: 0x1000177B4, symSize: 0x5C }
  - { offsetInCU: 0x48449, offset: 0x48449, size: 0x8, addend: 0x0, symName: __ZNSt3__113__rewrap_iterB8ue170006INS_16reverse_iteratorIPPN7sc_core15sc_signal_in_ifIN5sc_dt5sc_bvILi3EEEEEEESA_NS_18__unwrap_iter_implISA_Lb0EEEEET_SD_T0_, symObjAddr: 0x142F4, symBinAddr: 0x100017810, symSize: 0x74 }
  - { offsetInCU: 0x4849E, offset: 0x4849E, size: 0x8, addend: 0x0, symName: __ZNSt3__1neB8ue170006IPPN7sc_core15sc_signal_in_ifIN5sc_dt5sc_bvILi3EEEEES8_EEbRKNS_16reverse_iteratorIT_EERKNS9_IT0_EE, symObjAddr: 0x14368, symBinAddr: 0x100017884, symSize: 0x48 }
  - { offsetInCU: 0x48555, offset: 0x48555, size: 0x8, addend: 0x0, symName: __ZNSt3__112__to_addressB8ue170006IPN7sc_core18sc_signal_inout_ifIbEEEEPT_S6_, symObjAddr: 0x15248, symBinAddr: 0x100018764, symSize: 0x14 }
  - { offsetInCU: 0x4858B, offset: 0x4858B, size: 0x8, addend: 0x0, symName: __ZNSt3__119__allocate_at_leastB8ue170006INS_9allocatorIPN7sc_core18sc_signal_inout_ifIbEEEEEENS_19__allocation_resultINS_16allocator_traitsIT_E7pointerEEERS9_m, symObjAddr: 0x15844, symBinAddr: 0x100018D60, symSize: 0x40 }
  - { offsetInCU: 0x485CD, offset: 0x485CD, size: 0x8, addend: 0x0, symName: __ZNSt3__142__uninitialized_allocator_move_if_noexceptB8ue170006INS_9allocatorIPN7sc_core18sc_signal_inout_ifIbEEEENS_16reverse_iteratorIPS5_EES9_S5_vEET1_RT_T0_SD_SA_, symObjAddr: 0x15ACC, symBinAddr: 0x100018FE8, symSize: 0x78 }
  - { offsetInCU: 0x4864B, offset: 0x4864B, size: 0x8, addend: 0x0, symName: __ZNSt3__14swapB8ue170006IPPN7sc_core18sc_signal_inout_ifIbEEEENS_9enable_ifIXaasr21is_move_constructibleIT_EE5valuesr18is_move_assignableIS7_EE5valueEvE4typeERS7_SA_, symObjAddr: 0x15B90, symBinAddr: 0x1000190AC, symSize: 0x3C }
  - { offsetInCU: 0x4869D, offset: 0x4869D, size: 0x8, addend: 0x0, symName: __ZNSt3__14moveB8ue170006INS_16reverse_iteratorIPPN7sc_core18sc_signal_inout_ifIbEEEES7_EET0_T_S9_S8_, symObjAddr: 0x15CC0, symBinAddr: 0x1000191DC, symSize: 0x78 }
  - { offsetInCU: 0x486F7, offset: 0x486F7, size: 0x8, addend: 0x0, symName: __ZNSt3__16__moveB8ue170006INS_17_ClassicAlgPolicyENS_16reverse_iteratorIPPN7sc_core18sc_signal_inout_ifIbEEEES8_S8_EENS_4pairIT0_T2_EESA_T1_SB_, symObjAddr: 0x15D38, symBinAddr: 0x100019254, symSize: 0x64 }
  - { offsetInCU: 0x48763, offset: 0x48763, size: 0x8, addend: 0x0, symName: __ZNSt3__123__dispatch_copy_or_moveB8ue170006INS_17_ClassicAlgPolicyENS_11__move_loopIS1_EENS_14__move_trivialENS_16reverse_iteratorIPPN7sc_core18sc_signal_inout_ifIbEEEESB_SB_EENS_4pairIT2_T4_EESD_T3_SE_, symObjAddr: 0x15D9C, symBinAddr: 0x1000192B8, symSize: 0x64 }
  - { offsetInCU: 0x487E1, offset: 0x487E1, size: 0x8, addend: 0x0, symName: __ZNSt3__121__unwrap_and_dispatchB8ue170006INS_10__overloadINS_11__move_loopINS_17_ClassicAlgPolicyEEENS_14__move_trivialEEENS_16reverse_iteratorIPPN7sc_core18sc_signal_inout_ifIbEEEESD_SD_Li0EEENS_4pairIT0_T2_EESF_T1_SG_, symObjAddr: 0x15E00, symBinAddr: 0x10001931C, symSize: 0x12C }
  - { offsetInCU: 0x48871, offset: 0x48871, size: 0x8, addend: 0x0, symName: __ZNSt3__114__unwrap_rangeB8ue170006INS_16reverse_iteratorIPPN7sc_core18sc_signal_inout_ifIbEEEES7_EENS_4pairIT0_S9_EET_SB_, symObjAddr: 0x15F2C, symBinAddr: 0x100019448, symSize: 0x84 }
  - { offsetInCU: 0x48991, offset: 0x48991, size: 0x8, addend: 0x0, symName: __ZNSt3__113__unwrap_iterB8ue170006INS_16reverse_iteratorIPPN7sc_core18sc_signal_inout_ifIbEEEENS_18__unwrap_iter_implIS7_Lb0EEELi0EEEDTclsrT0_8__unwrapclsr3stdE7declvalIT_EEEESB_, symObjAddr: 0x16050, symBinAddr: 0x10001956C, symSize: 0x44 }
  - { offsetInCU: 0x489D4, offset: 0x489D4, size: 0x8, addend: 0x0, symName: __ZNSt3__19make_pairB8ue170006INS_16reverse_iteratorIPPN7sc_core18sc_signal_inout_ifIbEEEES7_EENS_4pairINS_18__unwrap_ref_decayIT_E4typeENS9_IT0_E4typeEEEOSA_OSD_, symObjAddr: 0x16094, symBinAddr: 0x1000195B0, symSize: 0x38 }
  - { offsetInCU: 0x48A24, offset: 0x48A24, size: 0x8, addend: 0x0, symName: __ZNSt3__114__rewrap_rangeB8ue170006INS_16reverse_iteratorIPPN7sc_core18sc_signal_inout_ifIbEEEES7_EET_S8_T0_, symObjAddr: 0x160CC, symBinAddr: 0x1000195E8, symSize: 0x5C }
  - { offsetInCU: 0x48A70, offset: 0x48A70, size: 0x8, addend: 0x0, symName: __ZNSt3__113__rewrap_iterB8ue170006INS_16reverse_iteratorIPPN7sc_core18sc_signal_inout_ifIbEEEES7_NS_18__unwrap_iter_implIS7_Lb0EEEEET_SA_T0_, symObjAddr: 0x16128, symBinAddr: 0x100019644, symSize: 0x74 }
  - { offsetInCU: 0x48AC5, offset: 0x48AC5, size: 0x8, addend: 0x0, symName: __ZNSt3__1neB8ue170006IPPN7sc_core18sc_signal_inout_ifIbEES5_EEbRKNS_16reverse_iteratorIT_EERKNS6_IT0_EE, symObjAddr: 0x1619C, symBinAddr: 0x1000196B8, symSize: 0x48 }
  - { offsetInCU: 0x48BAF, offset: 0x48BAF, size: 0x8, addend: 0x0, symName: __ZNSt3__1neB8ue170006ERKNS_14__map_iteratorINS_15__tree_iteratorINS_12__value_typeIjbEEPNS_11__tree_nodeIS3_PvEElEEEESB_, symObjAddr: 0x1811C, symBinAddr: 0x10001B638, symSize: 0x30 }
  - { offsetInCU: 0x48C23, offset: 0x48C23, size: 0x8, addend: 0x0, symName: __ZNSt3__116forward_as_tupleB8ue170006IJRKjEEENS_5tupleIJDpOT_EEES6_, symObjAddr: 0x182C4, symBinAddr: 0x10001B7E0, symSize: 0x2C }
  - { offsetInCU: 0x48C5D, offset: 0x48C5D, size: 0x8, addend: 0x0, symName: __ZNSt3__116forward_as_tupleB8ue170006IJEEENS_5tupleIJDpOT_EEES4_, symObjAddr: 0x182F0, symBinAddr: 0x10001B80C, symSize: 0x4 }
  - { offsetInCU: 0x48CAB, offset: 0x48CAB, size: 0x8, addend: 0x0, symName: __ZNSt3__13getB8ue170006ILm0EJRKjEEERNS_13tuple_elementIXT_ENS_5tupleIJDpT0_EEEE4typeERS7_, symObjAddr: 0x18E50, symBinAddr: 0x10001C36C, symSize: 0x24 }
  - { offsetInCU: 0x48CEE, offset: 0x48CEE, size: 0x8, addend: 0x0, symName: __ZNSt3__127__tree_balance_after_insertB8ue170006IPNS_16__tree_node_baseIPvEEEEvT_S5_, symObjAddr: 0x18F00, symBinAddr: 0x10001C41C, symSize: 0x32C }
  - { offsetInCU: 0x48D6C, offset: 0x48D6C, size: 0x8, addend: 0x0, symName: __ZNSt3__120__tree_is_left_childB8ue170006IPNS_16__tree_node_baseIPvEEEEbT_, symObjAddr: 0x1926C, symBinAddr: 0x10001C788, symSize: 0x2C }
  - { offsetInCU: 0x48DA1, offset: 0x48DA1, size: 0x8, addend: 0x0, symName: __ZNSt3__118__tree_left_rotateB8ue170006IPNS_16__tree_node_baseIPvEEEEvT_, symObjAddr: 0x19298, symBinAddr: 0x10001C7B4, symSize: 0xD8 }
  - { offsetInCU: 0x48DE3, offset: 0x48DE3, size: 0x8, addend: 0x0, symName: __ZNSt3__119__tree_right_rotateB8ue170006IPNS_16__tree_node_baseIPvEEEEvT_, symObjAddr: 0x19370, symBinAddr: 0x10001C88C, symSize: 0xCC }
  - { offsetInCU: 0x48ECD, offset: 0x48ECD, size: 0x8, addend: 0x0, symName: __ZNSt3__1neB8ue170006ERKNS_15__tree_iteratorINS_12__value_typeIjbEEPNS_11__tree_nodeIS2_PvEElEES9_, symObjAddr: 0x1A7E8, symBinAddr: 0x10001DD04, symSize: 0x34 }
  - { offsetInCU: 0x48F0B, offset: 0x48F0B, size: 0x8, addend: 0x0, symName: __ZNSt3__1eqB8ue170006ERKNS_15__tree_iteratorINS_12__value_typeIjbEEPNS_11__tree_nodeIS2_PvEElEES9_, symObjAddr: 0x1A81C, symBinAddr: 0x10001DD38, symSize: 0x30 }
  - { offsetInCU: 0x48F48, offset: 0x48F48, size: 0x8, addend: 0x0, symName: __ZNSt3__112__to_addressB8ue170006IPN7sc_core18sc_signal_inout_ifIN5sc_dt5sc_bvILi2EEEEEEEPT_S9_, symObjAddr: 0x1C5BC, symBinAddr: 0x10001FAD8, symSize: 0x14 }
  - { offsetInCU: 0x48F7E, offset: 0x48F7E, size: 0x8, addend: 0x0, symName: __ZNSt3__119__allocate_at_leastB8ue170006INS_9allocatorIPN7sc_core18sc_signal_inout_ifIN5sc_dt5sc_bvILi2EEEEEEEEENS_19__allocation_resultINS_16allocator_traitsIT_E7pointerEEERSC_m, symObjAddr: 0x1D100, symBinAddr: 0x10002061C, symSize: 0x40 }
  - { offsetInCU: 0x48FC0, offset: 0x48FC0, size: 0x8, addend: 0x0, symName: __ZNSt3__142__uninitialized_allocator_move_if_noexceptB8ue170006INS_9allocatorIPN7sc_core18sc_signal_inout_ifIN5sc_dt5sc_bvILi2EEEEEEENS_16reverse_iteratorIPS8_EESC_S8_vEET1_RT_T0_SG_SD_, symObjAddr: 0x1D2B4, symBinAddr: 0x1000207D0, symSize: 0x78 }
  - { offsetInCU: 0x4903E, offset: 0x4903E, size: 0x8, addend: 0x0, symName: __ZNSt3__14swapB8ue170006IPPN7sc_core18sc_signal_inout_ifIN5sc_dt5sc_bvILi2EEEEEEENS_9enable_ifIXaasr21is_move_constructibleIT_EE5valuesr18is_move_assignableISA_EE5valueEvE4typeERSA_SD_, symObjAddr: 0x1D378, symBinAddr: 0x100020894, symSize: 0x3C }
  - { offsetInCU: 0x49090, offset: 0x49090, size: 0x8, addend: 0x0, symName: __ZNSt3__14moveB8ue170006INS_16reverse_iteratorIPPN7sc_core18sc_signal_inout_ifIN5sc_dt5sc_bvILi2EEEEEEESA_EET0_T_SC_SB_, symObjAddr: 0x1D460, symBinAddr: 0x10002097C, symSize: 0x78 }
  - { offsetInCU: 0x490EA, offset: 0x490EA, size: 0x8, addend: 0x0, symName: __ZNSt3__16__moveB8ue170006INS_17_ClassicAlgPolicyENS_16reverse_iteratorIPPN7sc_core18sc_signal_inout_ifIN5sc_dt5sc_bvILi2EEEEEEESB_SB_EENS_4pairIT0_T2_EESD_T1_SE_, symObjAddr: 0x1D4D8, symBinAddr: 0x1000209F4, symSize: 0x64 }
  - { offsetInCU: 0x49156, offset: 0x49156, size: 0x8, addend: 0x0, symName: __ZNSt3__123__dispatch_copy_or_moveB8ue170006INS_17_ClassicAlgPolicyENS_11__move_loopIS1_EENS_14__move_trivialENS_16reverse_iteratorIPPN7sc_core18sc_signal_inout_ifIN5sc_dt5sc_bvILi2EEEEEEESE_SE_EENS_4pairIT2_T4_EESG_T3_SH_, symObjAddr: 0x1D53C, symBinAddr: 0x100020A58, symSize: 0x64 }
  - { offsetInCU: 0x491D4, offset: 0x491D4, size: 0x8, addend: 0x0, symName: __ZNSt3__121__unwrap_and_dispatchB8ue170006INS_10__overloadINS_11__move_loopINS_17_ClassicAlgPolicyEEENS_14__move_trivialEEENS_16reverse_iteratorIPPN7sc_core18sc_signal_inout_ifIN5sc_dt5sc_bvILi2EEEEEEESG_SG_Li0EEENS_4pairIT0_T2_EESI_T1_SJ_, symObjAddr: 0x1D5A0, symBinAddr: 0x100020ABC, symSize: 0x12C }
  - { offsetInCU: 0x49264, offset: 0x49264, size: 0x8, addend: 0x0, symName: __ZNSt3__114__unwrap_rangeB8ue170006INS_16reverse_iteratorIPPN7sc_core18sc_signal_inout_ifIN5sc_dt5sc_bvILi2EEEEEEESA_EENS_4pairIT0_SC_EET_SE_, symObjAddr: 0x1D6CC, symBinAddr: 0x100020BE8, symSize: 0x84 }
  - { offsetInCU: 0x49384, offset: 0x49384, size: 0x8, addend: 0x0, symName: __ZNSt3__113__unwrap_iterB8ue170006INS_16reverse_iteratorIPPN7sc_core18sc_signal_inout_ifIN5sc_dt5sc_bvILi2EEEEEEENS_18__unwrap_iter_implISA_Lb0EEELi0EEEDTclsrT0_8__unwrapclsr3stdE7declvalIT_EEEESE_, symObjAddr: 0x1D7F0, symBinAddr: 0x100020D0C, symSize: 0x44 }
  - { offsetInCU: 0x493C7, offset: 0x493C7, size: 0x8, addend: 0x0, symName: __ZNSt3__19make_pairB8ue170006INS_16reverse_iteratorIPPN7sc_core18sc_signal_inout_ifIN5sc_dt5sc_bvILi2EEEEEEESA_EENS_4pairINS_18__unwrap_ref_decayIT_E4typeENSC_IT0_E4typeEEEOSD_OSG_, symObjAddr: 0x1D834, symBinAddr: 0x100020D50, symSize: 0x38 }
  - { offsetInCU: 0x49417, offset: 0x49417, size: 0x8, addend: 0x0, symName: __ZNSt3__114__rewrap_rangeB8ue170006INS_16reverse_iteratorIPPN7sc_core18sc_signal_inout_ifIN5sc_dt5sc_bvILi2EEEEEEESA_EET_SB_T0_, symObjAddr: 0x1D86C, symBinAddr: 0x100020D88, symSize: 0x5C }
  - { offsetInCU: 0x49463, offset: 0x49463, size: 0x8, addend: 0x0, symName: __ZNSt3__113__rewrap_iterB8ue170006INS_16reverse_iteratorIPPN7sc_core18sc_signal_inout_ifIN5sc_dt5sc_bvILi2EEEEEEESA_NS_18__unwrap_iter_implISA_Lb0EEEEET_SD_T0_, symObjAddr: 0x1D8C8, symBinAddr: 0x100020DE4, symSize: 0x74 }
  - { offsetInCU: 0x494B8, offset: 0x494B8, size: 0x8, addend: 0x0, symName: __ZNSt3__1neB8ue170006IPPN7sc_core18sc_signal_inout_ifIN5sc_dt5sc_bvILi2EEEEES8_EEbRKNS_16reverse_iteratorIT_EERKNS9_IT0_EE, symObjAddr: 0x1D93C, symBinAddr: 0x100020E58, symSize: 0x48 }
  - { offsetInCU: 0x4956F, offset: 0x4956F, size: 0x8, addend: 0x0, symName: __ZNSt3__112__to_addressB8ue170006IPN7sc_core18sc_signal_inout_ifIN5sc_dt5sc_bvILi12EEEEEEEPT_S9_, symObjAddr: 0x1ED50, symBinAddr: 0x10002226C, symSize: 0x14 }
  - { offsetInCU: 0x495A5, offset: 0x495A5, size: 0x8, addend: 0x0, symName: __ZNSt3__119__allocate_at_leastB8ue170006INS_9allocatorIPN7sc_core18sc_signal_inout_ifIN5sc_dt5sc_bvILi12EEEEEEEEENS_19__allocation_resultINS_16allocator_traitsIT_E7pointerEEERSC_m, symObjAddr: 0x1F894, symBinAddr: 0x100022DB0, symSize: 0x40 }
  - { offsetInCU: 0x495E7, offset: 0x495E7, size: 0x8, addend: 0x0, symName: __ZNSt3__142__uninitialized_allocator_move_if_noexceptB8ue170006INS_9allocatorIPN7sc_core18sc_signal_inout_ifIN5sc_dt5sc_bvILi12EEEEEEENS_16reverse_iteratorIPS8_EESC_S8_vEET1_RT_T0_SG_SD_, symObjAddr: 0x1FA48, symBinAddr: 0x100022F64, symSize: 0x78 }
  - { offsetInCU: 0x49665, offset: 0x49665, size: 0x8, addend: 0x0, symName: __ZNSt3__14swapB8ue170006IPPN7sc_core18sc_signal_inout_ifIN5sc_dt5sc_bvILi12EEEEEEENS_9enable_ifIXaasr21is_move_constructibleIT_EE5valuesr18is_move_assignableISA_EE5valueEvE4typeERSA_SD_, symObjAddr: 0x1FB0C, symBinAddr: 0x100023028, symSize: 0x3C }
  - { offsetInCU: 0x496B7, offset: 0x496B7, size: 0x8, addend: 0x0, symName: __ZNSt3__14moveB8ue170006INS_16reverse_iteratorIPPN7sc_core18sc_signal_inout_ifIN5sc_dt5sc_bvILi12EEEEEEESA_EET0_T_SC_SB_, symObjAddr: 0x1FBF4, symBinAddr: 0x100023110, symSize: 0x78 }
  - { offsetInCU: 0x49711, offset: 0x49711, size: 0x8, addend: 0x0, symName: __ZNSt3__16__moveB8ue170006INS_17_ClassicAlgPolicyENS_16reverse_iteratorIPPN7sc_core18sc_signal_inout_ifIN5sc_dt5sc_bvILi12EEEEEEESB_SB_EENS_4pairIT0_T2_EESD_T1_SE_, symObjAddr: 0x1FC6C, symBinAddr: 0x100023188, symSize: 0x64 }
  - { offsetInCU: 0x4977D, offset: 0x4977D, size: 0x8, addend: 0x0, symName: __ZNSt3__123__dispatch_copy_or_moveB8ue170006INS_17_ClassicAlgPolicyENS_11__move_loopIS1_EENS_14__move_trivialENS_16reverse_iteratorIPPN7sc_core18sc_signal_inout_ifIN5sc_dt5sc_bvILi12EEEEEEESE_SE_EENS_4pairIT2_T4_EESG_T3_SH_, symObjAddr: 0x1FCD0, symBinAddr: 0x1000231EC, symSize: 0x64 }
  - { offsetInCU: 0x497FB, offset: 0x497FB, size: 0x8, addend: 0x0, symName: __ZNSt3__121__unwrap_and_dispatchB8ue170006INS_10__overloadINS_11__move_loopINS_17_ClassicAlgPolicyEEENS_14__move_trivialEEENS_16reverse_iteratorIPPN7sc_core18sc_signal_inout_ifIN5sc_dt5sc_bvILi12EEEEEEESG_SG_Li0EEENS_4pairIT0_T2_EESI_T1_SJ_, symObjAddr: 0x1FD34, symBinAddr: 0x100023250, symSize: 0x12C }
  - { offsetInCU: 0x4988B, offset: 0x4988B, size: 0x8, addend: 0x0, symName: __ZNSt3__114__unwrap_rangeB8ue170006INS_16reverse_iteratorIPPN7sc_core18sc_signal_inout_ifIN5sc_dt5sc_bvILi12EEEEEEESA_EENS_4pairIT0_SC_EET_SE_, symObjAddr: 0x1FE60, symBinAddr: 0x10002337C, symSize: 0x84 }
  - { offsetInCU: 0x499AB, offset: 0x499AB, size: 0x8, addend: 0x0, symName: __ZNSt3__113__unwrap_iterB8ue170006INS_16reverse_iteratorIPPN7sc_core18sc_signal_inout_ifIN5sc_dt5sc_bvILi12EEEEEEENS_18__unwrap_iter_implISA_Lb0EEELi0EEEDTclsrT0_8__unwrapclsr3stdE7declvalIT_EEEESE_, symObjAddr: 0x1FF84, symBinAddr: 0x1000234A0, symSize: 0x44 }
  - { offsetInCU: 0x499EE, offset: 0x499EE, size: 0x8, addend: 0x0, symName: __ZNSt3__19make_pairB8ue170006INS_16reverse_iteratorIPPN7sc_core18sc_signal_inout_ifIN5sc_dt5sc_bvILi12EEEEEEESA_EENS_4pairINS_18__unwrap_ref_decayIT_E4typeENSC_IT0_E4typeEEEOSD_OSG_, symObjAddr: 0x1FFC8, symBinAddr: 0x1000234E4, symSize: 0x38 }
  - { offsetInCU: 0x49A3E, offset: 0x49A3E, size: 0x8, addend: 0x0, symName: __ZNSt3__114__rewrap_rangeB8ue170006INS_16reverse_iteratorIPPN7sc_core18sc_signal_inout_ifIN5sc_dt5sc_bvILi12EEEEEEESA_EET_SB_T0_, symObjAddr: 0x20000, symBinAddr: 0x10002351C, symSize: 0x5C }
  - { offsetInCU: 0x49A8A, offset: 0x49A8A, size: 0x8, addend: 0x0, symName: __ZNSt3__113__rewrap_iterB8ue170006INS_16reverse_iteratorIPPN7sc_core18sc_signal_inout_ifIN5sc_dt5sc_bvILi12EEEEEEESA_NS_18__unwrap_iter_implISA_Lb0EEEEET_SD_T0_, symObjAddr: 0x2005C, symBinAddr: 0x100023578, symSize: 0x74 }
  - { offsetInCU: 0x49ADF, offset: 0x49ADF, size: 0x8, addend: 0x0, symName: __ZNSt3__1neB8ue170006IPPN7sc_core18sc_signal_inout_ifIN5sc_dt5sc_bvILi12EEEEES8_EEbRKNS_16reverse_iteratorIT_EERKNS9_IT0_EE, symObjAddr: 0x200D0, symBinAddr: 0x1000235EC, symSize: 0x48 }
  - { offsetInCU: 0x49B96, offset: 0x49B96, size: 0x8, addend: 0x0, symName: __ZNSt3__112__to_addressB8ue170006IPN7sc_core18sc_signal_inout_ifIN5sc_dt5sc_bvILi3EEEEEEEPT_S9_, symObjAddr: 0x214E4, symBinAddr: 0x100024A00, symSize: 0x14 }
  - { offsetInCU: 0x49BCC, offset: 0x49BCC, size: 0x8, addend: 0x0, symName: __ZNSt3__119__allocate_at_leastB8ue170006INS_9allocatorIPN7sc_core18sc_signal_inout_ifIN5sc_dt5sc_bvILi3EEEEEEEEENS_19__allocation_resultINS_16allocator_traitsIT_E7pointerEEERSC_m, symObjAddr: 0x22028, symBinAddr: 0x100025544, symSize: 0x40 }
  - { offsetInCU: 0x49C0E, offset: 0x49C0E, size: 0x8, addend: 0x0, symName: __ZNSt3__142__uninitialized_allocator_move_if_noexceptB8ue170006INS_9allocatorIPN7sc_core18sc_signal_inout_ifIN5sc_dt5sc_bvILi3EEEEEEENS_16reverse_iteratorIPS8_EESC_S8_vEET1_RT_T0_SG_SD_, symObjAddr: 0x221DC, symBinAddr: 0x1000256F8, symSize: 0x78 }
  - { offsetInCU: 0x49C8C, offset: 0x49C8C, size: 0x8, addend: 0x0, symName: __ZNSt3__14swapB8ue170006IPPN7sc_core18sc_signal_inout_ifIN5sc_dt5sc_bvILi3EEEEEEENS_9enable_ifIXaasr21is_move_constructibleIT_EE5valuesr18is_move_assignableISA_EE5valueEvE4typeERSA_SD_, symObjAddr: 0x222A0, symBinAddr: 0x1000257BC, symSize: 0x3C }
  - { offsetInCU: 0x49CDE, offset: 0x49CDE, size: 0x8, addend: 0x0, symName: __ZNSt3__14moveB8ue170006INS_16reverse_iteratorIPPN7sc_core18sc_signal_inout_ifIN5sc_dt5sc_bvILi3EEEEEEESA_EET0_T_SC_SB_, symObjAddr: 0x22388, symBinAddr: 0x1000258A4, symSize: 0x78 }
  - { offsetInCU: 0x49D38, offset: 0x49D38, size: 0x8, addend: 0x0, symName: __ZNSt3__16__moveB8ue170006INS_17_ClassicAlgPolicyENS_16reverse_iteratorIPPN7sc_core18sc_signal_inout_ifIN5sc_dt5sc_bvILi3EEEEEEESB_SB_EENS_4pairIT0_T2_EESD_T1_SE_, symObjAddr: 0x22400, symBinAddr: 0x10002591C, symSize: 0x64 }
  - { offsetInCU: 0x49DA4, offset: 0x49DA4, size: 0x8, addend: 0x0, symName: __ZNSt3__123__dispatch_copy_or_moveB8ue170006INS_17_ClassicAlgPolicyENS_11__move_loopIS1_EENS_14__move_trivialENS_16reverse_iteratorIPPN7sc_core18sc_signal_inout_ifIN5sc_dt5sc_bvILi3EEEEEEESE_SE_EENS_4pairIT2_T4_EESG_T3_SH_, symObjAddr: 0x22464, symBinAddr: 0x100025980, symSize: 0x64 }
  - { offsetInCU: 0x49E22, offset: 0x49E22, size: 0x8, addend: 0x0, symName: __ZNSt3__121__unwrap_and_dispatchB8ue170006INS_10__overloadINS_11__move_loopINS_17_ClassicAlgPolicyEEENS_14__move_trivialEEENS_16reverse_iteratorIPPN7sc_core18sc_signal_inout_ifIN5sc_dt5sc_bvILi3EEEEEEESG_SG_Li0EEENS_4pairIT0_T2_EESI_T1_SJ_, symObjAddr: 0x224C8, symBinAddr: 0x1000259E4, symSize: 0x12C }
  - { offsetInCU: 0x49EB2, offset: 0x49EB2, size: 0x8, addend: 0x0, symName: __ZNSt3__114__unwrap_rangeB8ue170006INS_16reverse_iteratorIPPN7sc_core18sc_signal_inout_ifIN5sc_dt5sc_bvILi3EEEEEEESA_EENS_4pairIT0_SC_EET_SE_, symObjAddr: 0x225F4, symBinAddr: 0x100025B10, symSize: 0x84 }
  - { offsetInCU: 0x49FD2, offset: 0x49FD2, size: 0x8, addend: 0x0, symName: __ZNSt3__113__unwrap_iterB8ue170006INS_16reverse_iteratorIPPN7sc_core18sc_signal_inout_ifIN5sc_dt5sc_bvILi3EEEEEEENS_18__unwrap_iter_implISA_Lb0EEELi0EEEDTclsrT0_8__unwrapclsr3stdE7declvalIT_EEEESE_, symObjAddr: 0x22718, symBinAddr: 0x100025C34, symSize: 0x44 }
  - { offsetInCU: 0x4A015, offset: 0x4A015, size: 0x8, addend: 0x0, symName: __ZNSt3__19make_pairB8ue170006INS_16reverse_iteratorIPPN7sc_core18sc_signal_inout_ifIN5sc_dt5sc_bvILi3EEEEEEESA_EENS_4pairINS_18__unwrap_ref_decayIT_E4typeENSC_IT0_E4typeEEEOSD_OSG_, symObjAddr: 0x2275C, symBinAddr: 0x100025C78, symSize: 0x38 }
  - { offsetInCU: 0x4A065, offset: 0x4A065, size: 0x8, addend: 0x0, symName: __ZNSt3__114__rewrap_rangeB8ue170006INS_16reverse_iteratorIPPN7sc_core18sc_signal_inout_ifIN5sc_dt5sc_bvILi3EEEEEEESA_EET_SB_T0_, symObjAddr: 0x22794, symBinAddr: 0x100025CB0, symSize: 0x5C }
  - { offsetInCU: 0x4A0B1, offset: 0x4A0B1, size: 0x8, addend: 0x0, symName: __ZNSt3__113__rewrap_iterB8ue170006INS_16reverse_iteratorIPPN7sc_core18sc_signal_inout_ifIN5sc_dt5sc_bvILi3EEEEEEESA_NS_18__unwrap_iter_implISA_Lb0EEEEET_SD_T0_, symObjAddr: 0x227F0, symBinAddr: 0x100025D0C, symSize: 0x74 }
  - { offsetInCU: 0x4A106, offset: 0x4A106, size: 0x8, addend: 0x0, symName: __ZNSt3__1neB8ue170006IPPN7sc_core18sc_signal_inout_ifIN5sc_dt5sc_bvILi3EEEEES8_EEbRKNS_16reverse_iteratorIT_EERKNS9_IT0_EE, symObjAddr: 0x22864, symBinAddr: 0x100025D80, symSize: 0x48 }
  - { offsetInCU: 0x4A1BD, offset: 0x4A1BD, size: 0x8, addend: 0x0, symName: __ZNSt3__112__to_addressB8ue170006IPN7sc_core18sc_signal_inout_ifIN5sc_dt5sc_bvILi5EEEEEEEPT_S9_, symObjAddr: 0x23C78, symBinAddr: 0x100027194, symSize: 0x14 }
  - { offsetInCU: 0x4A1F3, offset: 0x4A1F3, size: 0x8, addend: 0x0, symName: __ZNSt3__119__allocate_at_leastB8ue170006INS_9allocatorIPN7sc_core18sc_signal_inout_ifIN5sc_dt5sc_bvILi5EEEEEEEEENS_19__allocation_resultINS_16allocator_traitsIT_E7pointerEEERSC_m, symObjAddr: 0x247BC, symBinAddr: 0x100027CD8, symSize: 0x40 }
  - { offsetInCU: 0x4A235, offset: 0x4A235, size: 0x8, addend: 0x0, symName: __ZNSt3__142__uninitialized_allocator_move_if_noexceptB8ue170006INS_9allocatorIPN7sc_core18sc_signal_inout_ifIN5sc_dt5sc_bvILi5EEEEEEENS_16reverse_iteratorIPS8_EESC_S8_vEET1_RT_T0_SG_SD_, symObjAddr: 0x24970, symBinAddr: 0x100027E8C, symSize: 0x78 }
  - { offsetInCU: 0x4A2B3, offset: 0x4A2B3, size: 0x8, addend: 0x0, symName: __ZNSt3__14swapB8ue170006IPPN7sc_core18sc_signal_inout_ifIN5sc_dt5sc_bvILi5EEEEEEENS_9enable_ifIXaasr21is_move_constructibleIT_EE5valuesr18is_move_assignableISA_EE5valueEvE4typeERSA_SD_, symObjAddr: 0x24A34, symBinAddr: 0x100027F50, symSize: 0x3C }
  - { offsetInCU: 0x4A305, offset: 0x4A305, size: 0x8, addend: 0x0, symName: __ZNSt3__14moveB8ue170006INS_16reverse_iteratorIPPN7sc_core18sc_signal_inout_ifIN5sc_dt5sc_bvILi5EEEEEEESA_EET0_T_SC_SB_, symObjAddr: 0x24B1C, symBinAddr: 0x100028038, symSize: 0x78 }
  - { offsetInCU: 0x4A35F, offset: 0x4A35F, size: 0x8, addend: 0x0, symName: __ZNSt3__16__moveB8ue170006INS_17_ClassicAlgPolicyENS_16reverse_iteratorIPPN7sc_core18sc_signal_inout_ifIN5sc_dt5sc_bvILi5EEEEEEESB_SB_EENS_4pairIT0_T2_EESD_T1_SE_, symObjAddr: 0x24B94, symBinAddr: 0x1000280B0, symSize: 0x64 }
  - { offsetInCU: 0x4A3CB, offset: 0x4A3CB, size: 0x8, addend: 0x0, symName: __ZNSt3__123__dispatch_copy_or_moveB8ue170006INS_17_ClassicAlgPolicyENS_11__move_loopIS1_EENS_14__move_trivialENS_16reverse_iteratorIPPN7sc_core18sc_signal_inout_ifIN5sc_dt5sc_bvILi5EEEEEEESE_SE_EENS_4pairIT2_T4_EESG_T3_SH_, symObjAddr: 0x24BF8, symBinAddr: 0x100028114, symSize: 0x64 }
  - { offsetInCU: 0x4A449, offset: 0x4A449, size: 0x8, addend: 0x0, symName: __ZNSt3__121__unwrap_and_dispatchB8ue170006INS_10__overloadINS_11__move_loopINS_17_ClassicAlgPolicyEEENS_14__move_trivialEEENS_16reverse_iteratorIPPN7sc_core18sc_signal_inout_ifIN5sc_dt5sc_bvILi5EEEEEEESG_SG_Li0EEENS_4pairIT0_T2_EESI_T1_SJ_, symObjAddr: 0x24C5C, symBinAddr: 0x100028178, symSize: 0x12C }
  - { offsetInCU: 0x4A4D9, offset: 0x4A4D9, size: 0x8, addend: 0x0, symName: __ZNSt3__114__unwrap_rangeB8ue170006INS_16reverse_iteratorIPPN7sc_core18sc_signal_inout_ifIN5sc_dt5sc_bvILi5EEEEEEESA_EENS_4pairIT0_SC_EET_SE_, symObjAddr: 0x24D88, symBinAddr: 0x1000282A4, symSize: 0x84 }
  - { offsetInCU: 0x4A5F9, offset: 0x4A5F9, size: 0x8, addend: 0x0, symName: __ZNSt3__113__unwrap_iterB8ue170006INS_16reverse_iteratorIPPN7sc_core18sc_signal_inout_ifIN5sc_dt5sc_bvILi5EEEEEEENS_18__unwrap_iter_implISA_Lb0EEELi0EEEDTclsrT0_8__unwrapclsr3stdE7declvalIT_EEEESE_, symObjAddr: 0x24EAC, symBinAddr: 0x1000283C8, symSize: 0x44 }
  - { offsetInCU: 0x4A63C, offset: 0x4A63C, size: 0x8, addend: 0x0, symName: __ZNSt3__19make_pairB8ue170006INS_16reverse_iteratorIPPN7sc_core18sc_signal_inout_ifIN5sc_dt5sc_bvILi5EEEEEEESA_EENS_4pairINS_18__unwrap_ref_decayIT_E4typeENSC_IT0_E4typeEEEOSD_OSG_, symObjAddr: 0x24EF0, symBinAddr: 0x10002840C, symSize: 0x38 }
  - { offsetInCU: 0x4A68C, offset: 0x4A68C, size: 0x8, addend: 0x0, symName: __ZNSt3__114__rewrap_rangeB8ue170006INS_16reverse_iteratorIPPN7sc_core18sc_signal_inout_ifIN5sc_dt5sc_bvILi5EEEEEEESA_EET_SB_T0_, symObjAddr: 0x24F28, symBinAddr: 0x100028444, symSize: 0x5C }
  - { offsetInCU: 0x4A6D8, offset: 0x4A6D8, size: 0x8, addend: 0x0, symName: __ZNSt3__113__rewrap_iterB8ue170006INS_16reverse_iteratorIPPN7sc_core18sc_signal_inout_ifIN5sc_dt5sc_bvILi5EEEEEEESA_NS_18__unwrap_iter_implISA_Lb0EEEEET_SD_T0_, symObjAddr: 0x24F84, symBinAddr: 0x1000284A0, symSize: 0x74 }
  - { offsetInCU: 0x4A72D, offset: 0x4A72D, size: 0x8, addend: 0x0, symName: __ZNSt3__1neB8ue170006IPPN7sc_core18sc_signal_inout_ifIN5sc_dt5sc_bvILi5EEEEES8_EEbRKNS_16reverse_iteratorIT_EERKNS9_IT0_EE, symObjAddr: 0x24FF8, symBinAddr: 0x100028514, symSize: 0x48 }
  - { offsetInCU: 0x4A7E4, offset: 0x4A7E4, size: 0x8, addend: 0x0, symName: __ZNSt3__112__to_addressB8ue170006IPN7sc_core18sc_signal_inout_ifIhEEEEPT_S6_, symObjAddr: 0x26408, symBinAddr: 0x100029924, symSize: 0x14 }
  - { offsetInCU: 0x4A81A, offset: 0x4A81A, size: 0x8, addend: 0x0, symName: __ZNSt3__119__allocate_at_leastB8ue170006INS_9allocatorIPN7sc_core18sc_signal_inout_ifIhEEEEEENS_19__allocation_resultINS_16allocator_traitsIT_E7pointerEEERS9_m, symObjAddr: 0x26F44, symBinAddr: 0x10002A460, symSize: 0x40 }
  - { offsetInCU: 0x4A85C, offset: 0x4A85C, size: 0x8, addend: 0x0, symName: __ZNSt3__142__uninitialized_allocator_move_if_noexceptB8ue170006INS_9allocatorIPN7sc_core18sc_signal_inout_ifIhEEEENS_16reverse_iteratorIPS5_EES9_S5_vEET1_RT_T0_SD_SA_, symObjAddr: 0x270F8, symBinAddr: 0x10002A614, symSize: 0x78 }
  - { offsetInCU: 0x4A8DA, offset: 0x4A8DA, size: 0x8, addend: 0x0, symName: __ZNSt3__14swapB8ue170006IPPN7sc_core18sc_signal_inout_ifIhEEEENS_9enable_ifIXaasr21is_move_constructibleIT_EE5valuesr18is_move_assignableIS7_EE5valueEvE4typeERS7_SA_, symObjAddr: 0x271BC, symBinAddr: 0x10002A6D8, symSize: 0x3C }
  - { offsetInCU: 0x4A92C, offset: 0x4A92C, size: 0x8, addend: 0x0, symName: __ZNSt3__14moveB8ue170006INS_16reverse_iteratorIPPN7sc_core18sc_signal_inout_ifIhEEEES7_EET0_T_S9_S8_, symObjAddr: 0x272A4, symBinAddr: 0x10002A7C0, symSize: 0x78 }
  - { offsetInCU: 0x4A986, offset: 0x4A986, size: 0x8, addend: 0x0, symName: __ZNSt3__16__moveB8ue170006INS_17_ClassicAlgPolicyENS_16reverse_iteratorIPPN7sc_core18sc_signal_inout_ifIhEEEES8_S8_EENS_4pairIT0_T2_EESA_T1_SB_, symObjAddr: 0x2731C, symBinAddr: 0x10002A838, symSize: 0x64 }
  - { offsetInCU: 0x4A9F2, offset: 0x4A9F2, size: 0x8, addend: 0x0, symName: __ZNSt3__123__dispatch_copy_or_moveB8ue170006INS_17_ClassicAlgPolicyENS_11__move_loopIS1_EENS_14__move_trivialENS_16reverse_iteratorIPPN7sc_core18sc_signal_inout_ifIhEEEESB_SB_EENS_4pairIT2_T4_EESD_T3_SE_, symObjAddr: 0x27380, symBinAddr: 0x10002A89C, symSize: 0x64 }
  - { offsetInCU: 0x4AA70, offset: 0x4AA70, size: 0x8, addend: 0x0, symName: __ZNSt3__121__unwrap_and_dispatchB8ue170006INS_10__overloadINS_11__move_loopINS_17_ClassicAlgPolicyEEENS_14__move_trivialEEENS_16reverse_iteratorIPPN7sc_core18sc_signal_inout_ifIhEEEESD_SD_Li0EEENS_4pairIT0_T2_EESF_T1_SG_, symObjAddr: 0x273E4, symBinAddr: 0x10002A900, symSize: 0x12C }
  - { offsetInCU: 0x4AB00, offset: 0x4AB00, size: 0x8, addend: 0x0, symName: __ZNSt3__114__unwrap_rangeB8ue170006INS_16reverse_iteratorIPPN7sc_core18sc_signal_inout_ifIhEEEES7_EENS_4pairIT0_S9_EET_SB_, symObjAddr: 0x27510, symBinAddr: 0x10002AA2C, symSize: 0x84 }
  - { offsetInCU: 0x4AC20, offset: 0x4AC20, size: 0x8, addend: 0x0, symName: __ZNSt3__113__unwrap_iterB8ue170006INS_16reverse_iteratorIPPN7sc_core18sc_signal_inout_ifIhEEEENS_18__unwrap_iter_implIS7_Lb0EEELi0EEEDTclsrT0_8__unwrapclsr3stdE7declvalIT_EEEESB_, symObjAddr: 0x27634, symBinAddr: 0x10002AB50, symSize: 0x44 }
  - { offsetInCU: 0x4AC63, offset: 0x4AC63, size: 0x8, addend: 0x0, symName: __ZNSt3__19make_pairB8ue170006INS_16reverse_iteratorIPPN7sc_core18sc_signal_inout_ifIhEEEES7_EENS_4pairINS_18__unwrap_ref_decayIT_E4typeENS9_IT0_E4typeEEEOSA_OSD_, symObjAddr: 0x27678, symBinAddr: 0x10002AB94, symSize: 0x38 }
  - { offsetInCU: 0x4ACB3, offset: 0x4ACB3, size: 0x8, addend: 0x0, symName: __ZNSt3__114__rewrap_rangeB8ue170006INS_16reverse_iteratorIPPN7sc_core18sc_signal_inout_ifIhEEEES7_EET_S8_T0_, symObjAddr: 0x276B0, symBinAddr: 0x10002ABCC, symSize: 0x5C }
  - { offsetInCU: 0x4ACFF, offset: 0x4ACFF, size: 0x8, addend: 0x0, symName: __ZNSt3__113__rewrap_iterB8ue170006INS_16reverse_iteratorIPPN7sc_core18sc_signal_inout_ifIhEEEES7_NS_18__unwrap_iter_implIS7_Lb0EEEEET_SA_T0_, symObjAddr: 0x2770C, symBinAddr: 0x10002AC28, symSize: 0x74 }
  - { offsetInCU: 0x4AD54, offset: 0x4AD54, size: 0x8, addend: 0x0, symName: __ZNSt3__1neB8ue170006IPPN7sc_core18sc_signal_inout_ifIhEES5_EEbRKNS_16reverse_iteratorIT_EERKNS6_IT0_EE, symObjAddr: 0x27780, symBinAddr: 0x10002AC9C, symSize: 0x48 }
  - { offsetInCU: 0x4AE0C, offset: 0x4AE0C, size: 0x8, addend: 0x0, symName: __ZNSt3__122__make_exception_guardB8ue170006INS_6vectorIN7sc_core5sc_inIjEENS_9allocatorIS4_EEE16__destroy_vectorEEENS_28__exception_guard_exceptionsIT_EESA_, symObjAddr: 0x2938C, symBinAddr: 0x10002C8A8, symSize: 0x40 }
  - { offsetInCU: 0x4AE41, offset: 0x4AE41, size: 0x8, addend: 0x0, symName: __ZNSt3__119__allocate_at_leastB8ue170006INS_9allocatorIN7sc_core5sc_inIjEEEEEENS_19__allocation_resultINS_16allocator_traitsIT_E7pointerEEERS8_m, symObjAddr: 0x29780, symBinAddr: 0x10002CC9C, symSize: 0x40 }
  - { offsetInCU: 0x4AE83, offset: 0x4AE83, size: 0x8, addend: 0x0, symName: __ZNSt3__112__to_addressB8ue170006IN7sc_core5sc_inIjEEEEPT_S5_, symObjAddr: 0x29AC8, symBinAddr: 0x10002CFE4, symSize: 0x14 }
  - { offsetInCU: 0x4AEB8, offset: 0x4AEB8, size: 0x8, addend: 0x0, symName: __ZNSt3__112__to_addressB8ue170006IPN7sc_core15sc_signal_in_ifIhEEEEPT_S6_, symObjAddr: 0x2B0BC, symBinAddr: 0x10002E5D8, symSize: 0x14 }
  - { offsetInCU: 0x4AEEE, offset: 0x4AEEE, size: 0x8, addend: 0x0, symName: __ZNSt3__119__allocate_at_leastB8ue170006INS_9allocatorIPN7sc_core15sc_signal_in_ifIhEEEEEENS_19__allocation_resultINS_16allocator_traitsIT_E7pointerEEERS9_m, symObjAddr: 0x2BA58, symBinAddr: 0x10002EF74, symSize: 0x40 }
  - { offsetInCU: 0x4AF30, offset: 0x4AF30, size: 0x8, addend: 0x0, symName: __ZNSt3__142__uninitialized_allocator_move_if_noexceptB8ue170006INS_9allocatorIPN7sc_core15sc_signal_in_ifIhEEEENS_16reverse_iteratorIPS5_EES9_S5_vEET1_RT_T0_SD_SA_, symObjAddr: 0x2BC0C, symBinAddr: 0x10002F128, symSize: 0x78 }
  - { offsetInCU: 0x4AFAE, offset: 0x4AFAE, size: 0x8, addend: 0x0, symName: __ZNSt3__14swapB8ue170006IPPN7sc_core15sc_signal_in_ifIhEEEENS_9enable_ifIXaasr21is_move_constructibleIT_EE5valuesr18is_move_assignableIS7_EE5valueEvE4typeERS7_SA_, symObjAddr: 0x2BCD0, symBinAddr: 0x10002F1EC, symSize: 0x3C }
  - { offsetInCU: 0x4B000, offset: 0x4B000, size: 0x8, addend: 0x0, symName: __ZNSt3__14moveB8ue170006INS_16reverse_iteratorIPPN7sc_core15sc_signal_in_ifIhEEEES7_EET0_T_S9_S8_, symObjAddr: 0x2BDB8, symBinAddr: 0x10002F2D4, symSize: 0x78 }
  - { offsetInCU: 0x4B05A, offset: 0x4B05A, size: 0x8, addend: 0x0, symName: __ZNSt3__16__moveB8ue170006INS_17_ClassicAlgPolicyENS_16reverse_iteratorIPPN7sc_core15sc_signal_in_ifIhEEEES8_S8_EENS_4pairIT0_T2_EESA_T1_SB_, symObjAddr: 0x2BE30, symBinAddr: 0x10002F34C, symSize: 0x64 }
  - { offsetInCU: 0x4B0C6, offset: 0x4B0C6, size: 0x8, addend: 0x0, symName: __ZNSt3__123__dispatch_copy_or_moveB8ue170006INS_17_ClassicAlgPolicyENS_11__move_loopIS1_EENS_14__move_trivialENS_16reverse_iteratorIPPN7sc_core15sc_signal_in_ifIhEEEESB_SB_EENS_4pairIT2_T4_EESD_T3_SE_, symObjAddr: 0x2BE94, symBinAddr: 0x10002F3B0, symSize: 0x64 }
  - { offsetInCU: 0x4B144, offset: 0x4B144, size: 0x8, addend: 0x0, symName: __ZNSt3__121__unwrap_and_dispatchB8ue170006INS_10__overloadINS_11__move_loopINS_17_ClassicAlgPolicyEEENS_14__move_trivialEEENS_16reverse_iteratorIPPN7sc_core15sc_signal_in_ifIhEEEESD_SD_Li0EEENS_4pairIT0_T2_EESF_T1_SG_, symObjAddr: 0x2BEF8, symBinAddr: 0x10002F414, symSize: 0x12C }
  - { offsetInCU: 0x4B1D4, offset: 0x4B1D4, size: 0x8, addend: 0x0, symName: __ZNSt3__114__unwrap_rangeB8ue170006INS_16reverse_iteratorIPPN7sc_core15sc_signal_in_ifIhEEEES7_EENS_4pairIT0_S9_EET_SB_, symObjAddr: 0x2C024, symBinAddr: 0x10002F540, symSize: 0x84 }
  - { offsetInCU: 0x4B2F4, offset: 0x4B2F4, size: 0x8, addend: 0x0, symName: __ZNSt3__113__unwrap_iterB8ue170006INS_16reverse_iteratorIPPN7sc_core15sc_signal_in_ifIhEEEENS_18__unwrap_iter_implIS7_Lb0EEELi0EEEDTclsrT0_8__unwrapclsr3stdE7declvalIT_EEEESB_, symObjAddr: 0x2C148, symBinAddr: 0x10002F664, symSize: 0x44 }
  - { offsetInCU: 0x4B337, offset: 0x4B337, size: 0x8, addend: 0x0, symName: __ZNSt3__19make_pairB8ue170006INS_16reverse_iteratorIPPN7sc_core15sc_signal_in_ifIhEEEES7_EENS_4pairINS_18__unwrap_ref_decayIT_E4typeENS9_IT0_E4typeEEEOSA_OSD_, symObjAddr: 0x2C18C, symBinAddr: 0x10002F6A8, symSize: 0x38 }
  - { offsetInCU: 0x4B387, offset: 0x4B387, size: 0x8, addend: 0x0, symName: __ZNSt3__114__rewrap_rangeB8ue170006INS_16reverse_iteratorIPPN7sc_core15sc_signal_in_ifIhEEEES7_EET_S8_T0_, symObjAddr: 0x2C1C4, symBinAddr: 0x10002F6E0, symSize: 0x5C }
  - { offsetInCU: 0x4B3D3, offset: 0x4B3D3, size: 0x8, addend: 0x0, symName: __ZNSt3__113__rewrap_iterB8ue170006INS_16reverse_iteratorIPPN7sc_core15sc_signal_in_ifIhEEEES7_NS_18__unwrap_iter_implIS7_Lb0EEEEET_SA_T0_, symObjAddr: 0x2C220, symBinAddr: 0x10002F73C, symSize: 0x74 }
  - { offsetInCU: 0x4B428, offset: 0x4B428, size: 0x8, addend: 0x0, symName: __ZNSt3__1neB8ue170006IPPN7sc_core15sc_signal_in_ifIhEES5_EEbRKNS_16reverse_iteratorIT_EERKNS6_IT0_EE, symObjAddr: 0x2C294, symBinAddr: 0x10002F7B0, symSize: 0x48 }
  - { offsetInCU: 0x4B4E0, offset: 0x4B4E0, size: 0x8, addend: 0x0, symName: __ZNSt3__122__make_exception_guardB8ue170006INS_6vectorIN7sc_core6sc_outIjEENS_9allocatorIS4_EEE16__destroy_vectorEEENS_28__exception_guard_exceptionsIT_EESA_, symObjAddr: 0x2C84C, symBinAddr: 0x10002FD68, symSize: 0x40 }
  - { offsetInCU: 0x4B515, offset: 0x4B515, size: 0x8, addend: 0x0, symName: __ZNSt3__119__allocate_at_leastB8ue170006INS_9allocatorIN7sc_core6sc_outIjEEEEEENS_19__allocation_resultINS_16allocator_traitsIT_E7pointerEEERS8_m, symObjAddr: 0x2CC40, symBinAddr: 0x10003015C, symSize: 0x40 }
  - { offsetInCU: 0x4B557, offset: 0x4B557, size: 0x8, addend: 0x0, symName: __ZNSt3__112__to_addressB8ue170006IN7sc_core6sc_outIjEEEEPT_S5_, symObjAddr: 0x2CF90, symBinAddr: 0x1000304AC, symSize: 0x14 }
  - { offsetInCU: 0x4B58C, offset: 0x4B58C, size: 0x8, addend: 0x0, symName: __ZNSt3__1eqB8ue170006IcNS_11char_traitsIcEENS_9allocatorIcEEEEbRKNS_12basic_stringIT_T0_T1_EEPKS6_, symObjAddr: 0x2E0E4, symBinAddr: 0x100031600, symSize: 0xAC }
  - { offsetInCU: 0x4B5F4, offset: 0x4B5F4, size: 0x8, addend: 0x0, symName: __ZNSt3__118__constexpr_strlenB8ue170006EPKc, symObjAddr: 0x2E2A0, symBinAddr: 0x1000317BC, symSize: 0x24 }
  - { offsetInCU: 0x4B61F, offset: 0x4B61F, size: 0x8, addend: 0x0, symName: __ZNSt3__112__to_addressB8ue170006IKcEEPT_S3_, symObjAddr: 0x2EA6C, symBinAddr: 0x100031F88, symSize: 0x14 }
  - { offsetInCU: 0x4B687, offset: 0x4B687, size: 0x8, addend: 0x0, symName: __ZNSt3__1lsB8ue170006INS_11char_traitsIcEEEERNS_13basic_ostreamIcT_EES6_h, symObjAddr: 0x32FEC, symBinAddr: 0x100036508, symSize: 0x34 }
  - { offsetInCU: 0x4B6CD, offset: 0x4B6CD, size: 0x8, addend: 0x0, symName: __ZNSt3__116__pad_and_outputB8ue170006IcNS_11char_traitsIcEEEENS_19ostreambuf_iteratorIT_T0_EES6_PKS4_S8_S8_RNS_8ios_baseES4_, symObjAddr: 0x33228, symBinAddr: 0x100036744, symSize: 0x240 }
  - { offsetInCU: 0x4B79D, offset: 0x4B79D, size: 0x8, addend: 0x0, symName: __ZNSt3__19use_facetB8ue170006INS_5ctypeIcEEEERKT_RKNS_6localeE, symObjAddr: 0x337B4, symBinAddr: 0x100036CD0, symSize: 0x2C }
  - { offsetInCU: 0x4BC69, offset: 0x4BC69, size: 0x8, addend: 0x0, symName: __ZNSt3__1neB8ue170006ERKNS_14__map_iteratorINS_15__tree_iteratorINS_12__value_typeIjjEEPNS_11__tree_nodeIS3_PvEElEEEESB_, symObjAddr: 0x33990, symBinAddr: 0x100036EAC, symSize: 0x30 }
  - { offsetInCU: 0x4BCA6, offset: 0x4BCA6, size: 0x8, addend: 0x0, symName: __ZNSt3__1neB8ue170006ERKNS_15__tree_iteratorINS_12__value_typeIjjEEPNS_11__tree_nodeIS2_PvEElEES9_, symObjAddr: 0x33D98, symBinAddr: 0x1000372B4, symSize: 0x34 }
  - { offsetInCU: 0x4BCE4, offset: 0x4BCE4, size: 0x8, addend: 0x0, symName: __ZNSt3__1eqB8ue170006ERKNS_15__tree_iteratorINS_12__value_typeIjjEEPNS_11__tree_nodeIS2_PvEElEES9_, symObjAddr: 0x33DCC, symBinAddr: 0x1000372E8, symSize: 0x30 }
  - { offsetInCU: 0x4BD88, offset: 0x4BD88, size: 0x8, addend: 0x0, symName: __ZNSt3__116__tree_next_iterB8ue170006IPNS_15__tree_end_nodeIPNS_16__tree_node_baseIPvEEEES5_EET_T0_, symObjAddr: 0x33F64, symBinAddr: 0x100037480, symSize: 0x80 }
  - { offsetInCU: 0x4BDC5, offset: 0x4BDC5, size: 0x8, addend: 0x0, symName: __ZNSt3__110__tree_minB8ue170006IPNS_16__tree_node_baseIPvEEEET_S5_, symObjAddr: 0x33FE4, symBinAddr: 0x100037500, symSize: 0x40 }
  - { offsetInCU: 0x4BDFA, offset: 0x4BDFA, size: 0x8, addend: 0x0, symName: __ZNSt3__1neB8ue170006ERKNS_20__map_const_iteratorINS_21__tree_const_iteratorINS_12__value_typeIjjEEPNS_11__tree_nodeIS3_PvEElEEEESB_, symObjAddr: 0x3521C, symBinAddr: 0x100038738, symSize: 0x30 }
  - { offsetInCU: 0x4BE37, offset: 0x4BE37, size: 0x8, addend: 0x0, symName: __ZNSt3__1neB8ue170006ERKNS_21__tree_const_iteratorINS_12__value_typeIjjEEPNS_11__tree_nodeIS2_PvEElEES9_, symObjAddr: 0x35324, symBinAddr: 0x100038840, symSize: 0x34 }
  - { offsetInCU: 0x4BE75, offset: 0x4BE75, size: 0x8, addend: 0x0, symName: __ZNSt3__1eqB8ue170006ERKNS_21__tree_const_iteratorINS_12__value_typeIjjEEPNS_11__tree_nodeIS2_PvEElEES9_, symObjAddr: 0x35358, symBinAddr: 0x100038874, symSize: 0x30 }
  - { offsetInCU: 0x4BED7, offset: 0x4BED7, size: 0x8, addend: 0x0, symName: __ZNSt3__14nextB8ue170006INS_21__tree_const_iteratorINS_12__value_typeIjjEEPNS_11__tree_nodeIS3_PvEElEEEENS_9enable_ifIXsr29__has_input_iterator_categoryIT_EE5valueESA_E4typeESA_NS_15iterator_traitsISA_E15difference_typeE, symObjAddr: 0x35DC4, symBinAddr: 0x1000392E0, symSize: 0x3C }
  - { offsetInCU: 0x4BF1A, offset: 0x4BF1A, size: 0x8, addend: 0x0, symName: __ZNSt3__116__tree_prev_iterB8ue170006IPNS_16__tree_node_baseIPvEEPNS_15__tree_end_nodeIS4_EEEET_T0_, symObjAddr: 0x35E84, symBinAddr: 0x1000393A0, symSize: 0x88 }
  - { offsetInCU: 0x4BF65, offset: 0x4BF65, size: 0x8, addend: 0x0, symName: __ZNSt3__110__tree_maxB8ue170006IPNS_16__tree_node_baseIPvEEEET_S5_, symObjAddr: 0x35F0C, symBinAddr: 0x100039428, symSize: 0x40 }
  - { offsetInCU: 0x4BF9A, offset: 0x4BF9A, size: 0x8, addend: 0x0, symName: __ZNSt3__121__convert_to_integralB8ue170006El, symObjAddr: 0x36020, symBinAddr: 0x10003953C, symSize: 0x14 }
  - { offsetInCU: 0x4BFC6, offset: 0x4BFC6, size: 0x8, addend: 0x0, symName: __ZNSt3__19__advanceB8ue170006INS_21__tree_const_iteratorINS_12__value_typeIjjEEPNS_11__tree_nodeIS3_PvEElEEEEvRT_NS_15iterator_traitsIS9_E15difference_typeENS_26bidirectional_iterator_tagE, symObjAddr: 0x36034, symBinAddr: 0x100039550, symSize: 0xA4 }
  - { offsetInCU: 0x4C061, offset: 0x4C061, size: 0x8, addend: 0x0, symName: __ZNSt3__116forward_as_tupleB8ue170006IJjEEENS_5tupleIJDpOT_EEES4_, symObjAddr: 0x36F70, symBinAddr: 0x10003A48C, symSize: 0x2C }
  - { offsetInCU: 0x4C09A, offset: 0x4C09A, size: 0x8, addend: 0x0, symName: __ZNSt3__13getB8ue170006ILm0EJOjEEERNS_13tuple_elementIXT_ENS_5tupleIJDpT0_EEEE4typeERS6_, symObjAddr: 0x37204, symBinAddr: 0x10003A720, symSize: 0x24 }
  - { offsetInCU: 0x4CB0E, offset: 0x4CB0E, size: 0x8, addend: 0x0, symName: __ZSt28__throw_bad_array_new_lengthB8ue170006v, symObjAddr: 0x5A98, symBinAddr: 0x100008FB4, symSize: 0x34 }
  - { offsetInCU: 0x572E8, offset: 0x572E8, size: 0x8, addend: 0x0, symName: __ZN5sc_dteqINS_10sc_bv_baseES1_EEbRKNS_8sc_proxyIT_EERKNS2_IT0_EE, symObjAddr: 0x2F864, symBinAddr: 0x100032D80, symSize: 0x154 }
  - { offsetInCU: 0x573A0, offset: 0x573A0, size: 0x8, addend: 0x0, symName: __ZN5sc_dt9assign_p_INS_10sc_bv_baseES1_EEvRNS_8sc_proxyIT_EERKNS2_IT0_EE, symObjAddr: 0x2FA8C, symBinAddr: 0x100032FA8, symSize: 0x118 }
  - { offsetInCU: 0x57445, offset: 0x57445, size: 0x8, addend: 0x0, symName: __ZN5sc_dt6sc_minIiEEKT_RS2_S3_, symObjAddr: 0x2FBA4, symBinAddr: 0x1000330C0, symSize: 0x58 }
  - { offsetInCU: 0x57488, offset: 0x57488, size: 0x8, addend: 0x0, symName: __ZN5sc_dt10set_words_INS_10sc_bv_baseEEEvRT_ijj, symObjAddr: 0x2FBFC, symBinAddr: 0x100033118, symSize: 0x48 }
  - { offsetInCU: 0x574E8, offset: 0x574E8, size: 0x8, addend: 0x0, symName: __ZN5sc_dt14extend_sign_w_INS_10sc_bv_baseEEEvRT_ib, symObjAddr: 0x2FC44, symBinAddr: 0x100033160, symSize: 0x9C }
  - { offsetInCU: 0x57575, offset: 0x57575, size: 0x8, addend: 0x0, symName: __ZN5sc_dtlsINS_10sc_bv_baseEEERNSt3__113basic_ostreamIcNS2_11char_traitsIcEEEES7_RKNS_8sc_proxyIT_EE, symObjAddr: 0x2FDEC, symBinAddr: 0x100033308, symSize: 0x30 }
  - { offsetInCU: 0x5A189, offset: 0x5A189, size: 0x8, addend: 0x0, symName: __ZNSt3__16vectorIPN7sc_core15sc_signal_in_ifIN5sc_dt5sc_bvILi2EEEEENS_9allocatorIS7_EEE26__swap_out_circular_bufferERNS_14__split_bufferIS7_RS9_EE, symObjAddr: 0x53B4, symBinAddr: 0x1000088D0, symSize: 0x110 }
  - { offsetInCU: 0x5A65B, offset: 0x5A65B, size: 0x8, addend: 0x0, symName: __ZNSt3__16vectorIPN7sc_core15sc_signal_in_ifIjEENS_9allocatorIS4_EEE26__swap_out_circular_bufferERNS_14__split_bufferIS4_RS6_EE, symObjAddr: 0x8354, symBinAddr: 0x10000B870, symSize: 0x110 }
  - { offsetInCU: 0x5AB3E, offset: 0x5AB3E, size: 0x8, addend: 0x0, symName: __ZNSt3__16vectorIPN7sc_core15sc_signal_in_ifIN5sc_dt5sc_bvILi12EEEEENS_9allocatorIS7_EEE26__swap_out_circular_bufferERNS_14__split_bufferIS7_RS9_EE, symObjAddr: 0xAAC4, symBinAddr: 0x10000DFE0, symSize: 0x110 }
  - { offsetInCU: 0x5ABA5, offset: 0x5ABA5, size: 0x8, addend: 0x0, symName: __ZNSt3__16vectorIPN7sc_core18sc_signal_inout_ifIjEENS_9allocatorIS4_EEE26__swap_out_circular_bufferERNS_14__split_bufferIS4_RS6_EE, symObjAddr: 0xD2A4, symBinAddr: 0x1000107C0, symSize: 0x110 }
  - { offsetInCU: 0x5B0E5, offset: 0x5B0E5, size: 0x8, addend: 0x0, symName: __ZNSt3__16vectorIPN7sc_core15sc_signal_in_ifIN5sc_dt5sc_bvILi5EEEEENS_9allocatorIS7_EEE26__swap_out_circular_bufferERNS_14__split_bufferIS7_RS9_EE, symObjAddr: 0x10860, symBinAddr: 0x100013D7C, symSize: 0x110 }
  - { offsetInCU: 0x5B5C8, offset: 0x5B5C8, size: 0x8, addend: 0x0, symName: __ZNSt3__16vectorIPN7sc_core15sc_signal_in_ifIN5sc_dt5sc_bvILi3EEEEENS_9allocatorIS7_EEE26__swap_out_circular_bufferERNS_14__split_bufferIS7_RS9_EE, symObjAddr: 0x137CC, symBinAddr: 0x100016CE8, symSize: 0x110 }
  - { offsetInCU: 0x5B62A, offset: 0x5B62A, size: 0x8, addend: 0x0, symName: __ZNSt3__16vectorIPN7sc_core18sc_signal_inout_ifIbEENS_9allocatorIS4_EEE26__swap_out_circular_bufferERNS_14__split_bufferIS4_RS6_EE, symObjAddr: 0x15444, symBinAddr: 0x100018960, symSize: 0x110 }
  - { offsetInCU: 0x5BE5B, offset: 0x5BE5B, size: 0x8, addend: 0x0, symName: __ZNSt3__16vectorIPN7sc_core18sc_signal_inout_ifIN5sc_dt5sc_bvILi2EEEEENS_9allocatorIS7_EEE26__swap_out_circular_bufferERNS_14__split_bufferIS7_RS9_EE, symObjAddr: 0x1CDA0, symBinAddr: 0x1000202BC, symSize: 0x110 }
  - { offsetInCU: 0x5BF1F, offset: 0x5BF1F, size: 0x8, addend: 0x0, symName: __ZNSt3__16vectorIPN7sc_core18sc_signal_inout_ifIN5sc_dt5sc_bvILi12EEEEENS_9allocatorIS7_EEE26__swap_out_circular_bufferERNS_14__split_bufferIS7_RS9_EE, symObjAddr: 0x1F534, symBinAddr: 0x100022A50, symSize: 0x110 }
  - { offsetInCU: 0x5BFE3, offset: 0x5BFE3, size: 0x8, addend: 0x0, symName: __ZNSt3__16vectorIPN7sc_core18sc_signal_inout_ifIN5sc_dt5sc_bvILi3EEEEENS_9allocatorIS7_EEE26__swap_out_circular_bufferERNS_14__split_bufferIS7_RS9_EE, symObjAddr: 0x21CC8, symBinAddr: 0x1000251E4, symSize: 0x110 }
  - { offsetInCU: 0x5C0A7, offset: 0x5C0A7, size: 0x8, addend: 0x0, symName: __ZNSt3__16vectorIPN7sc_core18sc_signal_inout_ifIN5sc_dt5sc_bvILi5EEEEENS_9allocatorIS7_EEE26__swap_out_circular_bufferERNS_14__split_bufferIS7_RS9_EE, symObjAddr: 0x2445C, symBinAddr: 0x100027978, symSize: 0x110 }
  - { offsetInCU: 0x5C372, offset: 0x5C372, size: 0x8, addend: 0x0, symName: __ZNSt3__16vectorIPN7sc_core18sc_signal_inout_ifIhEENS_9allocatorIS4_EEE26__swap_out_circular_bufferERNS_14__split_bufferIS4_RS6_EE, symObjAddr: 0x26BE4, symBinAddr: 0x10002A100, symSize: 0x110 }
  - { offsetInCU: 0x5C7C9, offset: 0x5C7C9, size: 0x8, addend: 0x0, symName: __ZNSt3__16vectorIPN7sc_core15sc_signal_in_ifIhEENS_9allocatorIS4_EEE26__swap_out_circular_bufferERNS_14__split_bufferIS4_RS6_EE, symObjAddr: 0x2B6F8, symBinAddr: 0x10002EC14, symSize: 0x110 }
  - { offsetInCU: 0x5F605, offset: 0x5F605, size: 0x8, addend: 0x0, symName: _sc_main, symObjAddr: 0x0, symBinAddr: 0x10000351C, symSize: 0x78C }
  - { offsetInCU: 0x5F723, offset: 0x5F723, size: 0x8, addend: 0x0, symName: __ZN7sc_core9sc_signalIbLNS_16sc_writer_policyE0EEC1Ev, symObjAddr: 0x78C, symBinAddr: 0x100003CA8, symSize: 0xDC }
  - { offsetInCU: 0x5F74D, offset: 0x5F74D, size: 0x8, addend: 0x0, symName: __ZNSt3__13mapIjjNS_4lessIjEENS_9allocatorINS_4pairIKjjEEEEEC1B8ue170006Ev, symObjAddr: 0x868, symBinAddr: 0x100003D84, symSize: 0x2C }
  - { offsetInCU: 0x5F777, offset: 0x5F777, size: 0x8, addend: 0x0, symName: __ZNSt3__13mapIjjNS_4lessIjEENS_9allocatorINS_4pairIKjjEEEEEixEOj, symObjAddr: 0x894, symBinAddr: 0x100003DB0, symSize: 0x80 }
  - { offsetInCU: 0x5F7AE, offset: 0x5F7AE, size: 0x8, addend: 0x0, symName: __ZNSt3__13mapIjjNS_4lessIjEENS_9allocatorINS_4pairIKjjEEEEEC1B8ue170006ERKS8_, symObjAddr: 0x914, symBinAddr: 0x100003E30, symSize: 0x34 }
  - { offsetInCU: 0x60659, offset: 0x60659, size: 0x8, addend: 0x0, symName: __ZN9TINY_RISCC1EN7sc_core14sc_module_nameENSt3__13mapIjjNS2_4lessIjEENS2_9allocatorINS2_4pairIKjjEEEEEEj, symObjAddr: 0x948, symBinAddr: 0x100003E64, symSize: 0x44 }
  - { offsetInCU: 0x606AF, offset: 0x606AF, size: 0x8, addend: 0x0, symName: __ZNSt3__13mapIjjNS_4lessIjEENS_9allocatorINS_4pairIKjjEEEEED1B8ue170006Ev, symObjAddr: 0x98C, symBinAddr: 0x100003EA8, symSize: 0x2C }
  - { offsetInCU: 0x606D9, offset: 0x606D9, size: 0x8, addend: 0x0, symName: __ZN7sc_core5sc_inIbEclERKNS_15sc_signal_in_ifIbEE, symObjAddr: 0x9B8, symBinAddr: 0x100003ED4, symSize: 0x34 }
  - { offsetInCU: 0x6070E, offset: 0x6070E, size: 0x8, addend: 0x0, symName: __ZN9TINY_RISC14getMemoryValueEj, symObjAddr: 0xAB8, symBinAddr: 0x100003FD4, symSize: 0x34 }
  - { offsetInCU: 0x60742, offset: 0x60742, size: 0x8, addend: 0x0, symName: __ZNSt3__113basic_ostreamIcNS_11char_traitsIcEEElsB8ue170006EPFRS3_S4_E, symObjAddr: 0xAEC, symBinAddr: 0x100004008, symSize: 0x2C }
  - { offsetInCU: 0x60776, offset: 0x60776, size: 0x8, addend: 0x0, symName: __ZN9TINY_RISCD1Ev, symObjAddr: 0xB70, symBinAddr: 0x10000408C, symSize: 0x2C }
  - { offsetInCU: 0x607A2, offset: 0x607A2, size: 0x8, addend: 0x0, symName: __ZN9TINY_RISCC2EN7sc_core14sc_module_nameENSt3__13mapIjjNS2_4lessIjEENS2_9allocatorINS2_4pairIKjjEEEEEEj, symObjAddr: 0xB9C, symBinAddr: 0x1000040B8, symSize: 0x184C }
  - { offsetInCU: 0x6080D, offset: 0x6080D, size: 0x8, addend: 0x0, symName: __ZN7sc_core5sc_inIbEC1Ev, symObjAddr: 0x23E8, symBinAddr: 0x100005904, symSize: 0x2C }
  - { offsetInCU: 0x60837, offset: 0x60837, size: 0x8, addend: 0x0, symName: __ZN2PCC1EN7sc_core14sc_module_nameE, symObjAddr: 0x2414, symBinAddr: 0x100005930, symSize: 0x34 }
  - { offsetInCU: 0x6086D, offset: 0x6086D, size: 0x8, addend: 0x0, symName: __ZN13REGISTER_FILEC1EN7sc_core14sc_module_nameE, symObjAddr: 0x2448, symBinAddr: 0x100005964, symSize: 0x34 }
  - { offsetInCU: 0x608A3, offset: 0x608A3, size: 0x8, addend: 0x0, symName: __ZN3ALUC1EN7sc_core14sc_module_nameE, symObjAddr: 0x247C, symBinAddr: 0x100005998, symSize: 0x34 }
  - { offsetInCU: 0x608D9, offset: 0x608D9, size: 0x8, addend: 0x0, symName: __ZN16SecureMemoryUnitC1EN7sc_core14sc_module_nameEhjjjj, symObjAddr: 0x24B0, symBinAddr: 0x1000059CC, symSize: 0x5C }
  - { offsetInCU: 0x60958, offset: 0x60958, size: 0x8, addend: 0x0, symName: __ZN2CUC1EN7sc_core14sc_module_nameE, symObjAddr: 0x250C, symBinAddr: 0x100005A28, symSize: 0x34 }
  - { offsetInCU: 0x6098E, offset: 0x6098E, size: 0x8, addend: 0x0, symName: __ZN15MULTIPLEXER_I32C1EN7sc_core14sc_module_nameEhh, symObjAddr: 0x2540, symBinAddr: 0x100005A5C, symSize: 0x44 }
  - { offsetInCU: 0x609E3, offset: 0x609E3, size: 0x8, addend: 0x0, symName: __ZN7sc_core9sc_signalIjLNS_16sc_writer_policyE0EEC1Ev, symObjAddr: 0x2584, symBinAddr: 0x100005AA0, symSize: 0xD0 }
  - { offsetInCU: 0x60A0D, offset: 0x60A0D, size: 0x8, addend: 0x0, symName: __ZN7sc_core9sc_signalIN5sc_dt5sc_bvILi3EEELNS_16sc_writer_policyE0EEC1Ev, symObjAddr: 0x2654, symBinAddr: 0x100005B70, symSize: 0xF8 }
  - { offsetInCU: 0x60A37, offset: 0x60A37, size: 0x8, addend: 0x0, symName: __ZN7sc_core9sc_signalIN5sc_dt5sc_bvILi2EEELNS_16sc_writer_policyE0EEC1Ev, symObjAddr: 0x274C, symBinAddr: 0x100005C68, symSize: 0xF8 }
  - { offsetInCU: 0x60A61, offset: 0x60A61, size: 0x8, addend: 0x0, symName: __ZN7sc_core9sc_signalIN5sc_dt5sc_bvILi12EEELNS_16sc_writer_policyE0EEC1Ev, symObjAddr: 0x2844, symBinAddr: 0x100005D60, symSize: 0xF8 }
  - { offsetInCU: 0x60A8B, offset: 0x60A8B, size: 0x8, addend: 0x0, symName: __ZN7sc_core9sc_signalIN5sc_dt5sc_bvILi5EEELNS_16sc_writer_policyE0EEC1Ev, symObjAddr: 0x293C, symBinAddr: 0x100005E58, symSize: 0xF8 }
  - { offsetInCU: 0x60AB5, offset: 0x60AB5, size: 0x8, addend: 0x0, symName: __ZN7sc_core9sc_signalIhLNS_16sc_writer_policyE0EEC1Ev, symObjAddr: 0x2A34, symBinAddr: 0x100005F50, symSize: 0xD0 }
  - { offsetInCU: 0x60ADF, offset: 0x60ADF, size: 0x8, addend: 0x0, symName: __ZN7sc_core9sc_port_bINS_18sc_signal_inout_ifIjEEE4bindERS2_, symObjAddr: 0x2B04, symBinAddr: 0x100006020, symSize: 0x38 }
  - { offsetInCU: 0x60B14, offset: 0x60B14, size: 0x8, addend: 0x0, symName: __ZNSt3__16vectorIN7sc_core5sc_inIjEENS_9allocatorIS3_EEEixB8ue170006Em, symObjAddr: 0x2B3C, symBinAddr: 0x100006058, symSize: 0x2C }
  - { offsetInCU: 0x60B4B, offset: 0x60B4B, size: 0x8, addend: 0x0, symName: __ZN7sc_core5sc_inIjEclERKNS_15sc_signal_in_ifIjEE, symObjAddr: 0x2B68, symBinAddr: 0x100006084, symSize: 0x34 }
  - { offsetInCU: 0x60B7F, offset: 0x60B7F, size: 0x8, addend: 0x0, symName: __ZN7sc_core5sc_inIjE4bindERNS_15sc_signal_in_ifIjEE, symObjAddr: 0x2B9C, symBinAddr: 0x1000060B8, symSize: 0x34 }
  - { offsetInCU: 0x60BB3, offset: 0x60BB3, size: 0x8, addend: 0x0, symName: __ZNSt3__16vectorIN7sc_core6sc_outIjEENS_9allocatorIS3_EEEixB8ue170006Em, symObjAddr: 0x2BD0, symBinAddr: 0x1000060EC, symSize: 0x2C }
  - { offsetInCU: 0x60BEA, offset: 0x60BEA, size: 0x8, addend: 0x0, symName: __ZN7sc_core9sc_port_bINS_18sc_signal_inout_ifIjEEEclERS2_, symObjAddr: 0x2BFC, symBinAddr: 0x100006118, symSize: 0x34 }
  - { offsetInCU: 0x60C1F, offset: 0x60C1F, size: 0x8, addend: 0x0, symName: __ZN7sc_core9sc_port_bINS_18sc_signal_inout_ifIbEEE4bindERS2_, symObjAddr: 0x2C30, symBinAddr: 0x10000614C, symSize: 0x38 }
  - { offsetInCU: 0x60C54, offset: 0x60C54, size: 0x8, addend: 0x0, symName: __ZN7sc_core5sc_inIbE4bindERNS_15sc_signal_in_ifIbEE, symObjAddr: 0x2C68, symBinAddr: 0x100006184, symSize: 0x34 }
  - { offsetInCU: 0x60C89, offset: 0x60C89, size: 0x8, addend: 0x0, symName: __ZN7sc_core5sc_inIN5sc_dt5sc_bvILi3EEEE4bindERNS_15sc_signal_in_ifIS3_EE, symObjAddr: 0x2C9C, symBinAddr: 0x1000061B8, symSize: 0x34 }
  - { offsetInCU: 0x60CBD, offset: 0x60CBD, size: 0x8, addend: 0x0, symName: __ZN7sc_core9sc_port_bINS_18sc_signal_inout_ifIN5sc_dt5sc_bvILi3EEEEEE4bindERS5_, symObjAddr: 0x2CD0, symBinAddr: 0x1000061EC, symSize: 0x38 }
  - { offsetInCU: 0x60CF2, offset: 0x60CF2, size: 0x8, addend: 0x0, symName: __ZN7sc_core5sc_inIN5sc_dt5sc_bvILi2EEEE4bindERNS_15sc_signal_in_ifIS3_EE, symObjAddr: 0x2D08, symBinAddr: 0x100006224, symSize: 0x34 }
  - { offsetInCU: 0x60D26, offset: 0x60D26, size: 0x8, addend: 0x0, symName: __ZN7sc_core9sc_port_bINS_18sc_signal_inout_ifIN5sc_dt5sc_bvILi2EEEEEE4bindERS5_, symObjAddr: 0x2D3C, symBinAddr: 0x100006258, symSize: 0x38 }
  - { offsetInCU: 0x60D5B, offset: 0x60D5B, size: 0x8, addend: 0x0, symName: __ZN7sc_core5sc_inIN5sc_dt5sc_bvILi12EEEE4bindERNS_15sc_signal_in_ifIS3_EE, symObjAddr: 0x2D74, symBinAddr: 0x100006290, symSize: 0x34 }
  - { offsetInCU: 0x60D8F, offset: 0x60D8F, size: 0x8, addend: 0x0, symName: __ZN7sc_core9sc_port_bINS_18sc_signal_inout_ifIN5sc_dt5sc_bvILi12EEEEEE4bindERS5_, symObjAddr: 0x2DA8, symBinAddr: 0x1000062C4, symSize: 0x38 }
  - { offsetInCU: 0x60DC4, offset: 0x60DC4, size: 0x8, addend: 0x0, symName: __ZN7sc_core5sc_inIN5sc_dt5sc_bvILi5EEEE4bindERNS_15sc_signal_in_ifIS3_EE, symObjAddr: 0x2DE0, symBinAddr: 0x1000062FC, symSize: 0x34 }
  - { offsetInCU: 0x60DF8, offset: 0x60DF8, size: 0x8, addend: 0x0, symName: __ZN7sc_core9sc_port_bINS_18sc_signal_inout_ifIN5sc_dt5sc_bvILi5EEEEEE4bindERS5_, symObjAddr: 0x2E14, symBinAddr: 0x100006330, symSize: 0x38 }
  - { offsetInCU: 0x60E2D, offset: 0x60E2D, size: 0x8, addend: 0x0, symName: __ZN7sc_core5sc_inIhE4bindERNS_15sc_signal_in_ifIhEE, symObjAddr: 0x2E4C, symBinAddr: 0x100006368, symSize: 0x34 }
  - { offsetInCU: 0x60E61, offset: 0x60E61, size: 0x8, addend: 0x0, symName: __ZN7sc_core11sc_signal_tIhLNS_16sc_writer_policyE0EE5writeERKh, symObjAddr: 0x2E80, symBinAddr: 0x10000639C, symSize: 0xA8 }
  - { offsetInCU: 0x60EA6, offset: 0x60EA6, size: 0x8, addend: 0x0, symName: __ZN7sc_core9sc_port_bINS_18sc_signal_inout_ifIhEEE4bindERS2_, symObjAddr: 0x2F28, symBinAddr: 0x100006444, symSize: 0x38 }
  - { offsetInCU: 0x60EDB, offset: 0x60EDB, size: 0x8, addend: 0x0, symName: __ZN9TINY_RISC7doResetEv, symObjAddr: 0x2F60, symBinAddr: 0x10000647C, symSize: 0x114 }
  - { offsetInCU: 0x60F3B, offset: 0x60F3B, size: 0x8, addend: 0x0, symName: __ZN9TINY_RISC9behaviourEv, symObjAddr: 0x310C, symBinAddr: 0x100006628, symSize: 0x4C }
  - { offsetInCU: 0x60F61, offset: 0x60F61, size: 0x8, addend: 0x0, symName: __ZN7sc_core17sc_process_handleC1ERKS0_, symObjAddr: 0x3158, symBinAddr: 0x100006674, symSize: 0x34 }
  - { offsetInCU: 0x60F9A, offset: 0x60F9A, size: 0x8, addend: 0x0, symName: __ZN7sc_core17sc_process_handleD1Ev, symObjAddr: 0x318C, symBinAddr: 0x1000066A8, symSize: 0x2C }
  - { offsetInCU: 0x60FC6, offset: 0x60FC6, size: 0x8, addend: 0x0, symName: __ZN7sc_core9sc_signalIhLNS_16sc_writer_policyE0EED1Ev, symObjAddr: 0x31B8, symBinAddr: 0x1000066D4, symSize: 0x3C }
  - { offsetInCU: 0x60FF0, offset: 0x60FF0, size: 0x8, addend: 0x0, symName: __ZN7sc_core9sc_signalIN5sc_dt5sc_bvILi5EEELNS_16sc_writer_policyE0EED1Ev, symObjAddr: 0x31F4, symBinAddr: 0x100006710, symSize: 0x3C }
  - { offsetInCU: 0x6101A, offset: 0x6101A, size: 0x8, addend: 0x0, symName: __ZN7sc_core9sc_signalIjLNS_16sc_writer_policyE0EED1Ev, symObjAddr: 0x3230, symBinAddr: 0x10000674C, symSize: 0x3C }
  - { offsetInCU: 0x61044, offset: 0x61044, size: 0x8, addend: 0x0, symName: __ZN7sc_core9sc_signalIN5sc_dt5sc_bvILi12EEELNS_16sc_writer_policyE0EED1Ev, symObjAddr: 0x326C, symBinAddr: 0x100006788, symSize: 0x3C }
  - { offsetInCU: 0x6106E, offset: 0x6106E, size: 0x8, addend: 0x0, symName: __ZN7sc_core9sc_signalIN5sc_dt5sc_bvILi2EEELNS_16sc_writer_policyE0EED1Ev, symObjAddr: 0x32A8, symBinAddr: 0x1000067C4, symSize: 0x3C }
  - { offsetInCU: 0x61098, offset: 0x61098, size: 0x8, addend: 0x0, symName: __ZN7sc_core9sc_signalIN5sc_dt5sc_bvILi3EEELNS_16sc_writer_policyE0EED1Ev, symObjAddr: 0x32E4, symBinAddr: 0x100006800, symSize: 0x3C }
  - { offsetInCU: 0x610C2, offset: 0x610C2, size: 0x8, addend: 0x0, symName: __ZN15MULTIPLEXER_I32D1Ev, symObjAddr: 0x3320, symBinAddr: 0x10000683C, symSize: 0x2C }
  - { offsetInCU: 0x610EE, offset: 0x610EE, size: 0x8, addend: 0x0, symName: __ZN2CUD1Ev, symObjAddr: 0x334C, symBinAddr: 0x100006868, symSize: 0x2C }
  - { offsetInCU: 0x6111A, offset: 0x6111A, size: 0x8, addend: 0x0, symName: __ZN16SecureMemoryUnitD1Ev, symObjAddr: 0x3378, symBinAddr: 0x100006894, symSize: 0x2C }
  - { offsetInCU: 0x61146, offset: 0x61146, size: 0x8, addend: 0x0, symName: __ZN3ALUD1Ev, symObjAddr: 0x33A4, symBinAddr: 0x1000068C0, symSize: 0x2C }
  - { offsetInCU: 0x61172, offset: 0x61172, size: 0x8, addend: 0x0, symName: __ZN13REGISTER_FILED1Ev, symObjAddr: 0x33D0, symBinAddr: 0x1000068EC, symSize: 0x2C }
  - { offsetInCU: 0x6119E, offset: 0x6119E, size: 0x8, addend: 0x0, symName: __ZN2PCD1Ev, symObjAddr: 0x33FC, symBinAddr: 0x100006918, symSize: 0x2C }
  - { offsetInCU: 0x611CA, offset: 0x611CA, size: 0x8, addend: 0x0, symName: __ZN7sc_core5sc_inIbED1Ev, symObjAddr: 0x3428, symBinAddr: 0x100006944, symSize: 0x2C }
  - { offsetInCU: 0x611F4, offset: 0x611F4, size: 0x8, addend: 0x0, symName: __ZNK7sc_core9sc_module4kindEv, symObjAddr: 0x3454, symBinAddr: 0x100006970, symSize: 0x18 }
  - { offsetInCU: 0x6121A, offset: 0x6121A, size: 0x8, addend: 0x0, symName: __ZNK7sc_core9sc_object16get_child_eventsEv, symObjAddr: 0x346C, symBinAddr: 0x100006988, symSize: 0x18 }
  - { offsetInCU: 0x61240, offset: 0x61240, size: 0x8, addend: 0x0, symName: __ZN9TINY_RISCD0Ev, symObjAddr: 0x3484, symBinAddr: 0x1000069A0, symSize: 0x30 }
  - { offsetInCU: 0x6126C, offset: 0x6126C, size: 0x8, addend: 0x0, symName: __ZThn104_N9TINY_RISCD1Ev, symObjAddr: 0x34B4, symBinAddr: 0x1000069D0, symSize: 0x1C }
  - { offsetInCU: 0x61282, offset: 0x61282, size: 0x8, addend: 0x0, symName: __ZThn104_N9TINY_RISCD0Ev, symObjAddr: 0x34D0, symBinAddr: 0x1000069EC, symSize: 0x18 }
  - { offsetInCU: 0x61298, offset: 0x61298, size: 0x8, addend: 0x0, symName: __ZN7sc_core5sc_inIbEC2Ev, symObjAddr: 0x34E8, symBinAddr: 0x100006A04, symSize: 0x54 }
  - { offsetInCU: 0x612C2, offset: 0x612C2, size: 0x8, addend: 0x0, symName: __ZN2PCC2EN7sc_core14sc_module_nameE, symObjAddr: 0x353C, symBinAddr: 0x100006A58, symSize: 0x338 }
  - { offsetInCU: 0x6130C, offset: 0x6130C, size: 0x8, addend: 0x0, symName: __ZN7sc_core5sc_inIN5sc_dt5sc_bvILi2EEEEC1Ev, symObjAddr: 0x3874, symBinAddr: 0x100006D90, symSize: 0x2C }
  - { offsetInCU: 0x61336, offset: 0x61336, size: 0x8, addend: 0x0, symName: __ZN7sc_core5sc_inIjEC1Ev, symObjAddr: 0x38A0, symBinAddr: 0x100006DBC, symSize: 0x2C }
  - { offsetInCU: 0x61360, offset: 0x61360, size: 0x8, addend: 0x0, symName: __ZN7sc_core5sc_inIN5sc_dt5sc_bvILi12EEEEC1Ev, symObjAddr: 0x38CC, symBinAddr: 0x100006DE8, symSize: 0x2C }
  - { offsetInCU: 0x6138A, offset: 0x6138A, size: 0x8, addend: 0x0, symName: __ZN7sc_core6sc_outIjEC1Ev, symObjAddr: 0x38F8, symBinAddr: 0x100006E14, symSize: 0x2C }
  - { offsetInCU: 0x613B4, offset: 0x613B4, size: 0x8, addend: 0x0, symName: __ZN2PC9behaviourEv, symObjAddr: 0x3924, symBinAddr: 0x100006E40, symSize: 0x100 }
  - { offsetInCU: 0x613DA, offset: 0x613DA, size: 0x8, addend: 0x0, symName: __ZNK7sc_core5sc_inIbE3posEv, symObjAddr: 0x3A24, symBinAddr: 0x100006F40, symSize: 0x44 }
  - { offsetInCU: 0x61400, offset: 0x61400, size: 0x8, addend: 0x0, symName: __ZN7sc_core6sc_outIjED1Ev, symObjAddr: 0x3A68, symBinAddr: 0x100006F84, symSize: 0x2C }
  - { offsetInCU: 0x6142A, offset: 0x6142A, size: 0x8, addend: 0x0, symName: __ZN7sc_core5sc_inIN5sc_dt5sc_bvILi12EEEED1Ev, symObjAddr: 0x3A94, symBinAddr: 0x100006FB0, symSize: 0x2C }
  - { offsetInCU: 0x61454, offset: 0x61454, size: 0x8, addend: 0x0, symName: __ZN7sc_core5sc_inIjED1Ev, symObjAddr: 0x3AC0, symBinAddr: 0x100006FDC, symSize: 0x2C }
  - { offsetInCU: 0x6147E, offset: 0x6147E, size: 0x8, addend: 0x0, symName: __ZN7sc_core5sc_inIN5sc_dt5sc_bvILi2EEEED1Ev, symObjAddr: 0x3AEC, symBinAddr: 0x100007008, symSize: 0x2C }
  - { offsetInCU: 0x614A8, offset: 0x614A8, size: 0x8, addend: 0x0, symName: __ZN2PCD0Ev, symObjAddr: 0x3B18, symBinAddr: 0x100007034, symSize: 0x30 }
  - { offsetInCU: 0x614D4, offset: 0x614D4, size: 0x8, addend: 0x0, symName: __ZThn104_N2PCD1Ev, symObjAddr: 0x3B48, symBinAddr: 0x100007064, symSize: 0x1C }
  - { offsetInCU: 0x614EA, offset: 0x614EA, size: 0x8, addend: 0x0, symName: __ZThn104_N2PCD0Ev, symObjAddr: 0x3B64, symBinAddr: 0x100007080, symSize: 0x18 }
  - { offsetInCU: 0x61500, offset: 0x61500, size: 0x8, addend: 0x0, symName: __ZN7sc_core5sc_inIN5sc_dt5sc_bvILi2EEEEC2Ev, symObjAddr: 0x3B7C, symBinAddr: 0x100007098, symSize: 0x4C }
  - { offsetInCU: 0x6152A, offset: 0x6152A, size: 0x8, addend: 0x0, symName: __ZN7sc_core7sc_portINS_15sc_signal_in_ifIN5sc_dt5sc_bvILi2EEEEELi1ELNS_14sc_port_policyE0EEC2Ev, symObjAddr: 0x3BC8, symBinAddr: 0x1000070E4, symSize: 0x4C }
  - { offsetInCU: 0x61554, offset: 0x61554, size: 0x8, addend: 0x0, symName: __ZNK7sc_core5sc_inIN5sc_dt5sc_bvILi2EEEE4kindEv, symObjAddr: 0x3C14, symBinAddr: 0x100007130, symSize: 0x18 }
  - { offsetInCU: 0x6157A, offset: 0x6157A, size: 0x8, addend: 0x0, symName: __ZNK7sc_core9sc_object17get_child_objectsEv, symObjAddr: 0x3C2C, symBinAddr: 0x100007148, symSize: 0x18 }
  - { offsetInCU: 0x615A0, offset: 0x615A0, size: 0x8, addend: 0x0, symName: __ZN7sc_core5sc_inIN5sc_dt5sc_bvILi2EEEED0Ev, symObjAddr: 0x3C44, symBinAddr: 0x100007160, symSize: 0x30 }
  - { offsetInCU: 0x615CA, offset: 0x615CA, size: 0x8, addend: 0x0, symName: __ZN7sc_core9sc_port_bINS_15sc_signal_in_ifIN5sc_dt5sc_bvILi2EEEEEE13get_interfaceEv, symObjAddr: 0x3C74, symBinAddr: 0x100007190, symSize: 0x50 }
  - { offsetInCU: 0x615F0, offset: 0x615F0, size: 0x8, addend: 0x0, symName: __ZNK7sc_core9sc_port_bINS_15sc_signal_in_ifIN5sc_dt5sc_bvILi2EEEEEE13get_interfaceEv, symObjAddr: 0x3CC4, symBinAddr: 0x1000071E0, symSize: 0x50 }
  - { offsetInCU: 0x61616, offset: 0x61616, size: 0x8, addend: 0x0, symName: __ZNK7sc_core9sc_port_bINS_15sc_signal_in_ifIN5sc_dt5sc_bvILi2EEEEEE18get_interface_typeEv, symObjAddr: 0x3D14, symBinAddr: 0x100007230, symSize: 0x30 }
  - { offsetInCU: 0x6163E, offset: 0x6163E, size: 0x8, addend: 0x0, symName: __ZN7sc_core5sc_inIN5sc_dt5sc_bvILi2EEEE5vbindERNS_12sc_interfaceE, symObjAddr: 0x3D44, symBinAddr: 0x100007260, symSize: 0x2C }
  - { offsetInCU: 0x61675, offset: 0x61675, size: 0x8, addend: 0x0, symName: __ZN7sc_core5sc_inIN5sc_dt5sc_bvILi2EEEE5vbindERNS_12sc_port_baseE, symObjAddr: 0x3D70, symBinAddr: 0x10000728C, symSize: 0x128 }
  - { offsetInCU: 0x616CA, offset: 0x616CA, size: 0x8, addend: 0x0, symName: __ZN7sc_core9sc_port_bINS_15sc_signal_in_ifIN5sc_dt5sc_bvILi2EEEEEE13add_interfaceEPNS_12sc_interfaceE, symObjAddr: 0x3E98, symBinAddr: 0x1000073B4, symSize: 0x160 }
  - { offsetInCU: 0x6173D, offset: 0x6173D, size: 0x8, addend: 0x0, symName: __ZNK7sc_core9sc_port_bINS_15sc_signal_in_ifIN5sc_dt5sc_bvILi2EEEEEE15interface_countEv, symObjAddr: 0x3FF8, symBinAddr: 0x100007514, symSize: 0x24 }
  - { offsetInCU: 0x61765, offset: 0x61765, size: 0x8, addend: 0x0, symName: __ZN7sc_core5sc_inIN5sc_dt5sc_bvILi2EEEE18end_of_elaborationEv, symObjAddr: 0x401C, symBinAddr: 0x100007538, symSize: 0x134 }
  - { offsetInCU: 0x617D8, offset: 0x617D8, size: 0x8, addend: 0x0, symName: __ZNK7sc_core9sc_port_bINS_15sc_signal_in_ifIN5sc_dt5sc_bvILi2EEEEEE14make_sensitiveEPNS_17sc_thread_processEPNS_15sc_event_finderE, symObjAddr: 0x4150, symBinAddr: 0x10000766C, symSize: 0x114 }
  - { offsetInCU: 0x61878, offset: 0x61878, size: 0x8, addend: 0x0, symName: __ZNK7sc_core9sc_port_bINS_15sc_signal_in_ifIN5sc_dt5sc_bvILi2EEEEEE14make_sensitiveEPNS_17sc_method_processEPNS_15sc_event_finderE, symObjAddr: 0x4264, symBinAddr: 0x100007780, symSize: 0x114 }
  - { offsetInCU: 0x61918, offset: 0x61918, size: 0x8, addend: 0x0, symName: __ZN7sc_core5sc_inIN5sc_dt5sc_bvILi2EEEE4bindERNS_9sc_port_bINS_15sc_signal_in_ifIS3_EEEE, symObjAddr: 0x4378, symBinAddr: 0x100007894, symSize: 0x2C }
  - { offsetInCU: 0x6194D, offset: 0x6194D, size: 0x8, addend: 0x0, symName: __ZN7sc_core5sc_inIN5sc_dt5sc_bvILi2EEEE4bindERKNS_15sc_signal_in_ifIS3_EE, symObjAddr: 0x43A4, symBinAddr: 0x1000078C0, symSize: 0x38 }
  - { offsetInCU: 0x61981, offset: 0x61981, size: 0x8, addend: 0x0, symName: __ZN7sc_core5sc_inIN5sc_dt5sc_bvILi2EEEE4bindERNS_7sc_portINS_15sc_signal_in_ifIS3_EELi1ELNS_14sc_port_policyE0EEE, symObjAddr: 0x43DC, symBinAddr: 0x1000078F8, symSize: 0x2C }
  - { offsetInCU: 0x619B5, offset: 0x619B5, size: 0x8, addend: 0x0, symName: __ZN7sc_core5sc_inIN5sc_dt5sc_bvILi2EEEE4bindERNS_7sc_portINS_18sc_signal_inout_ifIS3_EELi1ELNS_14sc_port_policyE0EEE, symObjAddr: 0x4408, symBinAddr: 0x100007924, symSize: 0x2C }
  - { offsetInCU: 0x619E9, offset: 0x619E9, size: 0x8, addend: 0x0, symName: __ZN7sc_core9sc_port_bINS_15sc_signal_in_ifIN5sc_dt5sc_bvILi2EEEEEEC2EiNS_14sc_port_policyE, symObjAddr: 0x4434, symBinAddr: 0x100007950, symSize: 0x64 }
  - { offsetInCU: 0x61A31, offset: 0x61A31, size: 0x8, addend: 0x0, symName: __ZNK7sc_core7sc_portINS_15sc_signal_in_ifIN5sc_dt5sc_bvILi2EEEEELi1ELNS_14sc_port_policyE0EE4kindEv, symObjAddr: 0x4498, symBinAddr: 0x1000079B4, symSize: 0x18 }
  - { offsetInCU: 0x61A57, offset: 0x61A57, size: 0x8, addend: 0x0, symName: __ZN7sc_core7sc_portINS_15sc_signal_in_ifIN5sc_dt5sc_bvILi2EEEEELi1ELNS_14sc_port_policyE0EED1Ev, symObjAddr: 0x44B0, symBinAddr: 0x1000079CC, symSize: 0x2C }
  - { offsetInCU: 0x61A81, offset: 0x61A81, size: 0x8, addend: 0x0, symName: __ZN7sc_core7sc_portINS_15sc_signal_in_ifIN5sc_dt5sc_bvILi2EEEEELi1ELNS_14sc_port_policyE0EED0Ev, symObjAddr: 0x44DC, symBinAddr: 0x1000079F8, symSize: 0x30 }
  - { offsetInCU: 0x61AAB, offset: 0x61AAB, size: 0x8, addend: 0x0, symName: __ZN7sc_core9sc_port_bINS_15sc_signal_in_ifIN5sc_dt5sc_bvILi2EEEEEE5vbindERNS_12sc_interfaceE, symObjAddr: 0x450C, symBinAddr: 0x100007A28, symSize: 0xBC }
  - { offsetInCU: 0x61AF1, offset: 0x61AF1, size: 0x8, addend: 0x0, symName: __ZN7sc_core9sc_port_bINS_15sc_signal_in_ifIN5sc_dt5sc_bvILi2EEEEEE5vbindERNS_12sc_port_baseE, symObjAddr: 0x45C8, symBinAddr: 0x100007AE4, symSize: 0xB0 }
  - { offsetInCU: 0x61B37, offset: 0x61B37, size: 0x8, addend: 0x0, symName: __ZN7sc_core9sc_port_bINS_15sc_signal_in_ifIN5sc_dt5sc_bvILi2EEEEEE4bindERS5_, symObjAddr: 0x4678, symBinAddr: 0x100007B94, symSize: 0x38 }
  - { offsetInCU: 0x61B6C, offset: 0x61B6C, size: 0x8, addend: 0x0, symName: __ZN7sc_core9sc_port_bINS_15sc_signal_in_ifIN5sc_dt5sc_bvILi2EEEEEE4bindERS6_, symObjAddr: 0x46B0, symBinAddr: 0x100007BCC, symSize: 0x2C }
  - { offsetInCU: 0x61BA1, offset: 0x61BA1, size: 0x8, addend: 0x0, symName: __ZNSt3__16vectorIPN7sc_core15sc_signal_in_ifIN5sc_dt5sc_bvILi2EEEEENS_9allocatorIS7_EEEC1B8ue170006Ev, symObjAddr: 0x46DC, symBinAddr: 0x100007BF8, symSize: 0x2C }
  - { offsetInCU: 0x61BCB, offset: 0x61BCB, size: 0x8, addend: 0x0, symName: __ZNK7sc_core12sc_port_base4kindEv, symObjAddr: 0x4708, symBinAddr: 0x100007C24, symSize: 0x18 }
  - { offsetInCU: 0x61BF1, offset: 0x61BF1, size: 0x8, addend: 0x0, symName: __ZN7sc_core9sc_port_bINS_15sc_signal_in_ifIN5sc_dt5sc_bvILi2EEEEEED1Ev, symObjAddr: 0x4720, symBinAddr: 0x100007C3C, symSize: 0x2C }
  - { offsetInCU: 0x61C1B, offset: 0x61C1B, size: 0x8, addend: 0x0, symName: __ZN7sc_core9sc_port_bINS_15sc_signal_in_ifIN5sc_dt5sc_bvILi2EEEEEED0Ev, symObjAddr: 0x474C, symBinAddr: 0x100007C68, symSize: 0x30 }
  - { offsetInCU: 0x61C45, offset: 0x61C45, size: 0x8, addend: 0x0, symName: __ZNSt3__16vectorIPN7sc_core15sc_signal_in_ifIN5sc_dt5sc_bvILi2EEEEENS_9allocatorIS7_EEEC2B8ue170006Ev, symObjAddr: 0x477C, symBinAddr: 0x100007C98, symSize: 0x4C }
  - { offsetInCU: 0x61C7B, offset: 0x61C7B, size: 0x8, addend: 0x0, symName: __ZNSt3__117__compressed_pairIPPN7sc_core15sc_signal_in_ifIN5sc_dt5sc_bvILi2EEEEENS_9allocatorIS7_EEEC1B8ue170006IDnNS_18__default_init_tagEEEOT_OT0_, symObjAddr: 0x47C8, symBinAddr: 0x100007CE4, symSize: 0x3C }
  - { offsetInCU: 0x61CD3, offset: 0x61CD3, size: 0x8, addend: 0x0, symName: __ZNSt3__117__compressed_pairIPPN7sc_core15sc_signal_in_ifIN5sc_dt5sc_bvILi2EEEEENS_9allocatorIS7_EEEC2B8ue170006IDnNS_18__default_init_tagEEEOT_OT0_, symObjAddr: 0x4810, symBinAddr: 0x100007D2C, symSize: 0x40 }
  - { offsetInCU: 0x61D2B, offset: 0x61D2B, size: 0x8, addend: 0x0, symName: __ZNSt3__122__compressed_pair_elemIPPN7sc_core15sc_signal_in_ifIN5sc_dt5sc_bvILi2EEEEELi0ELb0EEC2B8ue170006IDnvEEOT_, symObjAddr: 0x4850, symBinAddr: 0x100007D6C, symSize: 0x1C }
  - { offsetInCU: 0x61D6D, offset: 0x61D6D, size: 0x8, addend: 0x0, symName: __ZNSt3__122__compressed_pair_elemINS_9allocatorIPN7sc_core15sc_signal_in_ifIN5sc_dt5sc_bvILi2EEEEEEELi1ELb1EEC2B8ue170006ENS_18__default_init_tagE, symObjAddr: 0x486C, symBinAddr: 0x100007D88, symSize: 0x2C }
  - { offsetInCU: 0x61DA2, offset: 0x61DA2, size: 0x8, addend: 0x0, symName: __ZNSt3__19allocatorIPN7sc_core15sc_signal_in_ifIN5sc_dt5sc_bvILi2EEEEEEC2B8ue170006Ev, symObjAddr: 0x4898, symBinAddr: 0x100007DB4, symSize: 0x2C }
  - { offsetInCU: 0x61DCC, offset: 0x61DCC, size: 0x8, addend: 0x0, symName: __ZNSt3__116__non_trivial_ifILb1ENS_9allocatorIPN7sc_core15sc_signal_in_ifIN5sc_dt5sc_bvILi2EEEEEEEEC2B8ue170006Ev, symObjAddr: 0x48C4, symBinAddr: 0x100007DE0, symSize: 0x14 }
  - { offsetInCU: 0x61DF6, offset: 0x61DF6, size: 0x8, addend: 0x0, symName: __ZN7sc_core9sc_port_bINS_15sc_signal_in_ifIN5sc_dt5sc_bvILi2EEEEEED2Ev, symObjAddr: 0x48D8, symBinAddr: 0x100007DF4, symSize: 0x48 }
  - { offsetInCU: 0x61E20, offset: 0x61E20, size: 0x8, addend: 0x0, symName: __ZNSt3__16vectorIPN7sc_core15sc_signal_in_ifIN5sc_dt5sc_bvILi2EEEEENS_9allocatorIS7_EEED1B8ue170006Ev, symObjAddr: 0x4920, symBinAddr: 0x100007E3C, symSize: 0x2C }
  - { offsetInCU: 0x61E4A, offset: 0x61E4A, size: 0x8, addend: 0x0, symName: __ZNSt3__16vectorIPN7sc_core15sc_signal_in_ifIN5sc_dt5sc_bvILi2EEEEENS_9allocatorIS7_EEED2B8ue170006Ev, symObjAddr: 0x494C, symBinAddr: 0x100007E68, symSize: 0x44 }
  - { offsetInCU: 0x61E74, offset: 0x61E74, size: 0x8, addend: 0x0, symName: __ZNSt3__16vectorIPN7sc_core15sc_signal_in_ifIN5sc_dt5sc_bvILi2EEEEENS_9allocatorIS7_EEE16__destroy_vectorC1B8ue170006ERSA_, symObjAddr: 0x4990, symBinAddr: 0x100007EAC, symSize: 0x34 }
  - { offsetInCU: 0x61EAD, offset: 0x61EAD, size: 0x8, addend: 0x0, symName: __ZNSt3__16vectorIPN7sc_core15sc_signal_in_ifIN5sc_dt5sc_bvILi2EEEEENS_9allocatorIS7_EEE16__destroy_vectorclB8ue170006Ev, symObjAddr: 0x49C4, symBinAddr: 0x100007EE0, symSize: 0x90 }
  - { offsetInCU: 0x61ED3, offset: 0x61ED3, size: 0x8, addend: 0x0, symName: __ZNSt3__16vectorIPN7sc_core15sc_signal_in_ifIN5sc_dt5sc_bvILi2EEEEENS_9allocatorIS7_EEE16__destroy_vectorC2B8ue170006ERSA_, symObjAddr: 0x4A54, symBinAddr: 0x100007F70, symSize: 0x20 }
  - { offsetInCU: 0x61F0C, offset: 0x61F0C, size: 0x8, addend: 0x0, symName: __ZNSt3__16vectorIPN7sc_core15sc_signal_in_ifIN5sc_dt5sc_bvILi2EEEEENS_9allocatorIS7_EEE7__clearB8ue170006Ev, symObjAddr: 0x4A74, symBinAddr: 0x100007F90, symSize: 0x28 }
  - { offsetInCU: 0x61F32, offset: 0x61F32, size: 0x8, addend: 0x0, symName: __ZNKSt3__16vectorIPN7sc_core15sc_signal_in_ifIN5sc_dt5sc_bvILi2EEEEENS_9allocatorIS7_EEE17__annotate_deleteB8ue170006Ev, symObjAddr: 0x4A9C, symBinAddr: 0x100007FB8, symSize: 0xB8 }
  - { offsetInCU: 0x61F58, offset: 0x61F58, size: 0x8, addend: 0x0, symName: __ZNSt3__116allocator_traitsINS_9allocatorIPN7sc_core15sc_signal_in_ifIN5sc_dt5sc_bvILi2EEEEEEEE10deallocateB8ue170006ERS9_PS8_m, symObjAddr: 0x4B54, symBinAddr: 0x100008070, symSize: 0x34 }
  - { offsetInCU: 0x61F9A, offset: 0x61F9A, size: 0x8, addend: 0x0, symName: __ZNSt3__16vectorIPN7sc_core15sc_signal_in_ifIN5sc_dt5sc_bvILi2EEEEENS_9allocatorIS7_EEE7__allocB8ue170006Ev, symObjAddr: 0x4B88, symBinAddr: 0x1000080A4, symSize: 0x28 }
  - { offsetInCU: 0x61FC0, offset: 0x61FC0, size: 0x8, addend: 0x0, symName: __ZNKSt3__16vectorIPN7sc_core15sc_signal_in_ifIN5sc_dt5sc_bvILi2EEEEENS_9allocatorIS7_EEE8capacityB8ue170006Ev, symObjAddr: 0x4BB0, symBinAddr: 0x1000080CC, symSize: 0x40 }
  - { offsetInCU: 0x61FE6, offset: 0x61FE6, size: 0x8, addend: 0x0, symName: __ZNSt3__16vectorIPN7sc_core15sc_signal_in_ifIN5sc_dt5sc_bvILi2EEEEENS_9allocatorIS7_EEE22__base_destruct_at_endB8ue170006EPS7_, symObjAddr: 0x4BF0, symBinAddr: 0x10000810C, symSize: 0x8C }
  - { offsetInCU: 0x6202A, offset: 0x6202A, size: 0x8, addend: 0x0, symName: __ZNSt3__116allocator_traitsINS_9allocatorIPN7sc_core15sc_signal_in_ifIN5sc_dt5sc_bvILi2EEEEEEEE7destroyB8ue170006IS8_vEEvRS9_PT_, symObjAddr: 0x4C7C, symBinAddr: 0x100008198, symSize: 0x2C }
  - { offsetInCU: 0x62067, offset: 0x62067, size: 0x8, addend: 0x0, symName: __ZNSt3__19allocatorIPN7sc_core15sc_signal_in_ifIN5sc_dt5sc_bvILi2EEEEEE7destroyB8ue170006EPS7_, symObjAddr: 0x4CBC, symBinAddr: 0x1000081D8, symSize: 0x14 }
  - { offsetInCU: 0x6209B, offset: 0x6209B, size: 0x8, addend: 0x0, symName: __ZNKSt3__16vectorIPN7sc_core15sc_signal_in_ifIN5sc_dt5sc_bvILi2EEEEENS_9allocatorIS7_EEE31__annotate_contiguous_containerB8ue170006EPKvSC_SC_SC_, symObjAddr: 0x4CD0, symBinAddr: 0x1000081EC, symSize: 0x20 }
  - { offsetInCU: 0x620F1, offset: 0x620F1, size: 0x8, addend: 0x0, symName: __ZNKSt3__16vectorIPN7sc_core15sc_signal_in_ifIN5sc_dt5sc_bvILi2EEEEENS_9allocatorIS7_EEE4dataB8ue170006Ev, symObjAddr: 0x4CF0, symBinAddr: 0x10000820C, symSize: 0x28 }
  - { offsetInCU: 0x62117, offset: 0x62117, size: 0x8, addend: 0x0, symName: __ZNKSt3__16vectorIPN7sc_core15sc_signal_in_ifIN5sc_dt5sc_bvILi2EEEEENS_9allocatorIS7_EEE4sizeB8ue170006Ev, symObjAddr: 0x4D18, symBinAddr: 0x100008234, symSize: 0x28 }
  - { offsetInCU: 0x6213D, offset: 0x6213D, size: 0x8, addend: 0x0, symName: __ZNSt3__19allocatorIPN7sc_core15sc_signal_in_ifIN5sc_dt5sc_bvILi2EEEEEE10deallocateB8ue170006EPS7_m, symObjAddr: 0x4D40, symBinAddr: 0x10000825C, symSize: 0x40 }
  - { offsetInCU: 0x6217F, offset: 0x6217F, size: 0x8, addend: 0x0, symName: __ZNSt3__117__compressed_pairIPPN7sc_core15sc_signal_in_ifIN5sc_dt5sc_bvILi2EEEEENS_9allocatorIS7_EEE6secondB8ue170006Ev, symObjAddr: 0x4DFC, symBinAddr: 0x100008318, symSize: 0x24 }
  - { offsetInCU: 0x621A5, offset: 0x621A5, size: 0x8, addend: 0x0, symName: __ZNSt3__122__compressed_pair_elemINS_9allocatorIPN7sc_core15sc_signal_in_ifIN5sc_dt5sc_bvILi2EEEEEEELi1ELb1EE5__getB8ue170006Ev, symObjAddr: 0x4E20, symBinAddr: 0x10000833C, symSize: 0x14 }
  - { offsetInCU: 0x621CB, offset: 0x621CB, size: 0x8, addend: 0x0, symName: __ZNKSt3__16vectorIPN7sc_core15sc_signal_in_ifIN5sc_dt5sc_bvILi2EEEEENS_9allocatorIS7_EEE9__end_capB8ue170006Ev, symObjAddr: 0x4E34, symBinAddr: 0x100008350, symSize: 0x28 }
  - { offsetInCU: 0x621F1, offset: 0x621F1, size: 0x8, addend: 0x0, symName: __ZNKSt3__117__compressed_pairIPPN7sc_core15sc_signal_in_ifIN5sc_dt5sc_bvILi2EEEEENS_9allocatorIS7_EEE5firstB8ue170006Ev, symObjAddr: 0x4E5C, symBinAddr: 0x100008378, symSize: 0x24 }
  - { offsetInCU: 0x62217, offset: 0x62217, size: 0x8, addend: 0x0, symName: __ZNKSt3__122__compressed_pair_elemIPPN7sc_core15sc_signal_in_ifIN5sc_dt5sc_bvILi2EEEEELi0ELb0EE5__getB8ue170006Ev, symObjAddr: 0x4E80, symBinAddr: 0x10000839C, symSize: 0x14 }
  - { offsetInCU: 0x6223D, offset: 0x6223D, size: 0x8, addend: 0x0, symName: __ZN7sc_core7sc_portINS_15sc_signal_in_ifIN5sc_dt5sc_bvILi2EEEEELi1ELNS_14sc_port_policyE0EED2Ev, symObjAddr: 0x4E94, symBinAddr: 0x1000083B0, symSize: 0x2C }
  - { offsetInCU: 0x62267, offset: 0x62267, size: 0x8, addend: 0x0, symName: __ZNSt3__110type_indexC1B8ue170006ERKSt9type_info, symObjAddr: 0x4EC0, symBinAddr: 0x1000083DC, symSize: 0x34 }
  - { offsetInCU: 0x6229F, offset: 0x6229F, size: 0x8, addend: 0x0, symName: __ZNSt3__110type_indexC2B8ue170006ERKSt9type_info, symObjAddr: 0x4EF4, symBinAddr: 0x100008410, symSize: 0x20 }
  - { offsetInCU: 0x622D7, offset: 0x622D7, size: 0x8, addend: 0x0, symName: __ZNK7sc_core9sc_port_bINS_15sc_signal_in_ifIN5sc_dt5sc_bvILi2EEEEEE4sizeEv, symObjAddr: 0x4F14, symBinAddr: 0x100008430, symSize: 0x28 }
  - { offsetInCU: 0x622FD, offset: 0x622FD, size: 0x8, addend: 0x0, symName: __ZNSt3__16vectorIPN7sc_core15sc_signal_in_ifIN5sc_dt5sc_bvILi2EEEEENS_9allocatorIS7_EEEixB8ue170006Em, symObjAddr: 0x4F3C, symBinAddr: 0x100008458, symSize: 0x24 }
  - { offsetInCU: 0x62334, offset: 0x62334, size: 0x8, addend: 0x0, symName: __ZNSt3__16vectorIPN7sc_core15sc_signal_in_ifIN5sc_dt5sc_bvILi2EEEEENS_9allocatorIS7_EEE9push_backB8ue170006ERKS7_, symObjAddr: 0x4F60, symBinAddr: 0x10000847C, symSize: 0x6C }
  - { offsetInCU: 0x6236B, offset: 0x6236B, size: 0x8, addend: 0x0, symName: __ZNSt3__16vectorIPN7sc_core15sc_signal_in_ifIN5sc_dt5sc_bvILi2EEEEENS_9allocatorIS7_EEE9__end_capB8ue170006Ev, symObjAddr: 0x4FCC, symBinAddr: 0x1000084E8, symSize: 0x28 }
  - { offsetInCU: 0x62391, offset: 0x62391, size: 0x8, addend: 0x0, symName: __ZNSt3__16vectorIPN7sc_core15sc_signal_in_ifIN5sc_dt5sc_bvILi2EEEEENS_9allocatorIS7_EEE22__construct_one_at_endB8ue170006IJRKS7_EEEvDpOT_, symObjAddr: 0x4FF4, symBinAddr: 0x100008510, symSize: 0x90 }
  - { offsetInCU: 0x623E0, offset: 0x623E0, size: 0x8, addend: 0x0, symName: __ZNSt3__16vectorIPN7sc_core15sc_signal_in_ifIN5sc_dt5sc_bvILi2EEEEENS_9allocatorIS7_EEE21__push_back_slow_pathIRKS7_EEvOT_, symObjAddr: 0x5084, symBinAddr: 0x1000085A0, symSize: 0xD8 }
  - { offsetInCU: 0x6243E, offset: 0x6243E, size: 0x8, addend: 0x0, symName: __ZNSt3__117__compressed_pairIPPN7sc_core15sc_signal_in_ifIN5sc_dt5sc_bvILi2EEEEENS_9allocatorIS7_EEE5firstB8ue170006Ev, symObjAddr: 0x515C, symBinAddr: 0x100008678, symSize: 0x24 }
  - { offsetInCU: 0x62464, offset: 0x62464, size: 0x8, addend: 0x0, symName: __ZNSt3__122__compressed_pair_elemIPPN7sc_core15sc_signal_in_ifIN5sc_dt5sc_bvILi2EEEEELi0ELb0EE5__getB8ue170006Ev, symObjAddr: 0x5180, symBinAddr: 0x10000869C, symSize: 0x14 }
  - { offsetInCU: 0x624A5, offset: 0x624A5, size: 0x8, addend: 0x0, symName: __ZNSt3__16vectorIPN7sc_core15sc_signal_in_ifIN5sc_dt5sc_bvILi2EEEEENS_9allocatorIS7_EEE21_ConstructTransactionC1B8ue170006ERSA_m, symObjAddr: 0x5194, symBinAddr: 0x1000086B0, symSize: 0x3C }
  - { offsetInCU: 0x624ED, offset: 0x624ED, size: 0x8, addend: 0x0, symName: __ZNSt3__116allocator_traitsINS_9allocatorIPN7sc_core15sc_signal_in_ifIN5sc_dt5sc_bvILi2EEEEEEEE9constructB8ue170006IS8_JRKS8_EvEEvRS9_PT_DpOT0_, symObjAddr: 0x51D0, symBinAddr: 0x1000086EC, symSize: 0x34 }
  - { offsetInCU: 0x62544, offset: 0x62544, size: 0x8, addend: 0x0, symName: __ZNSt3__16vectorIPN7sc_core15sc_signal_in_ifIN5sc_dt5sc_bvILi2EEEEENS_9allocatorIS7_EEE21_ConstructTransactionD1B8ue170006Ev, symObjAddr: 0x5204, symBinAddr: 0x100008720, symSize: 0x2C }
  - { offsetInCU: 0x6256E, offset: 0x6256E, size: 0x8, addend: 0x0, symName: __ZNSt3__16vectorIPN7sc_core15sc_signal_in_ifIN5sc_dt5sc_bvILi2EEEEENS_9allocatorIS7_EEE21_ConstructTransactionC2B8ue170006ERSA_m, symObjAddr: 0x5230, symBinAddr: 0x10000874C, symSize: 0x44 }
  - { offsetInCU: 0x625B6, offset: 0x625B6, size: 0x8, addend: 0x0, symName: __ZNSt3__19allocatorIPN7sc_core15sc_signal_in_ifIN5sc_dt5sc_bvILi2EEEEEE9constructB8ue170006IS7_JRKS7_EEEvPT_DpOT0_, symObjAddr: 0x5274, symBinAddr: 0x100008790, symSize: 0x28 }
  - { offsetInCU: 0x6260C, offset: 0x6260C, size: 0x8, addend: 0x0, symName: __ZNSt3__16vectorIPN7sc_core15sc_signal_in_ifIN5sc_dt5sc_bvILi2EEEEENS_9allocatorIS7_EEE21_ConstructTransactionD2B8ue170006Ev, symObjAddr: 0x529C, symBinAddr: 0x1000087B8, symSize: 0x20 }
  - { offsetInCU: 0x62636, offset: 0x62636, size: 0x8, addend: 0x0, symName: __ZNKSt3__16vectorIPN7sc_core15sc_signal_in_ifIN5sc_dt5sc_bvILi2EEEEENS_9allocatorIS7_EEE11__recommendB8ue170006Em, symObjAddr: 0x52BC, symBinAddr: 0x1000087D8, symSize: 0xB4 }
  - { offsetInCU: 0x6268B, offset: 0x6268B, size: 0x8, addend: 0x0, symName: __ZNSt3__114__split_bufferIPN7sc_core15sc_signal_in_ifIN5sc_dt5sc_bvILi2EEEEERNS_9allocatorIS7_EEEC1EmmSA_, symObjAddr: 0x5370, symBinAddr: 0x10000888C, symSize: 0x44 }
  - { offsetInCU: 0x626E1, offset: 0x626E1, size: 0x8, addend: 0x0, symName: __ZNSt3__114__split_bufferIPN7sc_core15sc_signal_in_ifIN5sc_dt5sc_bvILi2EEEEERNS_9allocatorIS7_EEED1Ev, symObjAddr: 0x54C4, symBinAddr: 0x1000089E0, symSize: 0x2C }
  - { offsetInCU: 0x6270D, offset: 0x6270D, size: 0x8, addend: 0x0, symName: __ZNKSt3__16vectorIPN7sc_core15sc_signal_in_ifIN5sc_dt5sc_bvILi2EEEEENS_9allocatorIS7_EEE8max_sizeEv, symObjAddr: 0x54F0, symBinAddr: 0x100008A0C, symSize: 0x60 }
  - { offsetInCU: 0x62735, offset: 0x62735, size: 0x8, addend: 0x0, symName: __ZNKSt3__16vectorIPN7sc_core15sc_signal_in_ifIN5sc_dt5sc_bvILi2EEEEENS_9allocatorIS7_EEE20__throw_length_errorB8ue170006Ev, symObjAddr: 0x5550, symBinAddr: 0x100008A6C, symSize: 0x1C }
  - { offsetInCU: 0x62766, offset: 0x62766, size: 0x8, addend: 0x0, symName: __ZNSt3__116allocator_traitsINS_9allocatorIPN7sc_core15sc_signal_in_ifIN5sc_dt5sc_bvILi2EEEEEEEE8max_sizeB8ue170006IS9_vEEmRKS9_, symObjAddr: 0x55C4, symBinAddr: 0x100008AE0, symSize: 0x24 }
  - { offsetInCU: 0x62794, offset: 0x62794, size: 0x8, addend: 0x0, symName: __ZNKSt3__16vectorIPN7sc_core15sc_signal_in_ifIN5sc_dt5sc_bvILi2EEEEENS_9allocatorIS7_EEE7__allocB8ue170006Ev, symObjAddr: 0x55E8, symBinAddr: 0x100008B04, symSize: 0x28 }
  - { offsetInCU: 0x627BA, offset: 0x627BA, size: 0x8, addend: 0x0, symName: __ZNSt3__114numeric_limitsIlE3maxB8ue170006Ev, symObjAddr: 0x5610, symBinAddr: 0x100008B2C, symSize: 0x14 }
  - { offsetInCU: 0x627D8, offset: 0x627D8, size: 0x8, addend: 0x0, symName: __ZNKSt3__16__lessIvvEclB8ue170006ImmEEbRKT_RKT0_, symObjAddr: 0x5678, symBinAddr: 0x100008B94, symSize: 0x34 }
  - { offsetInCU: 0x6282C, offset: 0x6282C, size: 0x8, addend: 0x0, symName: __ZNKSt3__19allocatorIPN7sc_core15sc_signal_in_ifIN5sc_dt5sc_bvILi2EEEEEE8max_sizeB8ue170006Ev, symObjAddr: 0x56AC, symBinAddr: 0x100008BC8, symSize: 0x14 }
  - { offsetInCU: 0x62852, offset: 0x62852, size: 0x8, addend: 0x0, symName: __ZNKSt3__117__compressed_pairIPPN7sc_core15sc_signal_in_ifIN5sc_dt5sc_bvILi2EEEEENS_9allocatorIS7_EEE6secondB8ue170006Ev, symObjAddr: 0x56C0, symBinAddr: 0x100008BDC, symSize: 0x24 }
  - { offsetInCU: 0x62878, offset: 0x62878, size: 0x8, addend: 0x0, symName: __ZNKSt3__122__compressed_pair_elemINS_9allocatorIPN7sc_core15sc_signal_in_ifIN5sc_dt5sc_bvILi2EEEEEEELi1ELb1EE5__getB8ue170006Ev, symObjAddr: 0x56E4, symBinAddr: 0x100008C00, symSize: 0x14 }
  - { offsetInCU: 0x6289E, offset: 0x6289E, size: 0x8, addend: 0x0, symName: __ZNSt3__123__libcpp_numeric_limitsIlLb1EE3maxB8ue170006Ev, symObjAddr: 0x56F8, symBinAddr: 0x100008C14, symSize: 0x8 }
  - { offsetInCU: 0x628B2, offset: 0x628B2, size: 0x8, addend: 0x0, symName: __ZNSt12length_errorC1B8ue170006EPKc, symObjAddr: 0x5764, symBinAddr: 0x100008C80, symSize: 0x34 }
  - { offsetInCU: 0x628EA, offset: 0x628EA, size: 0x8, addend: 0x0, symName: __ZNSt12length_errorC2B8ue170006EPKc, symObjAddr: 0x5798, symBinAddr: 0x100008CB4, symSize: 0x4C }
  - { offsetInCU: 0x62922, offset: 0x62922, size: 0x8, addend: 0x0, symName: __ZNSt3__114__split_bufferIPN7sc_core15sc_signal_in_ifIN5sc_dt5sc_bvILi2EEEEERNS_9allocatorIS7_EEEC2EmmSA_, symObjAddr: 0x5838, symBinAddr: 0x100008D54, symSize: 0xD4 }
  - { offsetInCU: 0x62996, offset: 0x62996, size: 0x8, addend: 0x0, symName: __ZNSt3__117__compressed_pairIPPN7sc_core15sc_signal_in_ifIN5sc_dt5sc_bvILi2EEEEERNS_9allocatorIS7_EEEC1B8ue170006IDnSB_EEOT_OT0_, symObjAddr: 0x590C, symBinAddr: 0x100008E28, symSize: 0x3C }
  - { offsetInCU: 0x629EE, offset: 0x629EE, size: 0x8, addend: 0x0, symName: __ZNSt3__114__split_bufferIPN7sc_core15sc_signal_in_ifIN5sc_dt5sc_bvILi2EEEEERNS_9allocatorIS7_EEE7__allocB8ue170006Ev, symObjAddr: 0x5988, symBinAddr: 0x100008EA4, symSize: 0x28 }
  - { offsetInCU: 0x62A14, offset: 0x62A14, size: 0x8, addend: 0x0, symName: __ZNSt3__114__split_bufferIPN7sc_core15sc_signal_in_ifIN5sc_dt5sc_bvILi2EEEEERNS_9allocatorIS7_EEE9__end_capB8ue170006Ev, symObjAddr: 0x59B0, symBinAddr: 0x100008ECC, symSize: 0x28 }
  - { offsetInCU: 0x62A3A, offset: 0x62A3A, size: 0x8, addend: 0x0, symName: __ZNSt3__117__compressed_pairIPPN7sc_core15sc_signal_in_ifIN5sc_dt5sc_bvILi2EEEEERNS_9allocatorIS7_EEEC2B8ue170006IDnSB_EEOT_OT0_, symObjAddr: 0x59D8, symBinAddr: 0x100008EF4, symSize: 0x48 }
  - { offsetInCU: 0x62A92, offset: 0x62A92, size: 0x8, addend: 0x0, symName: __ZNSt3__122__compressed_pair_elemIRNS_9allocatorIPN7sc_core15sc_signal_in_ifIN5sc_dt5sc_bvILi2EEEEEEELi1ELb0EEC2B8ue170006ISA_vEEOT_, symObjAddr: 0x5A20, symBinAddr: 0x100008F3C, symSize: 0x20 }
  - { offsetInCU: 0x62AD4, offset: 0x62AD4, size: 0x8, addend: 0x0, symName: __ZNSt3__19allocatorIPN7sc_core15sc_signal_in_ifIN5sc_dt5sc_bvILi2EEEEEE8allocateB8ue170006Em, symObjAddr: 0x5A40, symBinAddr: 0x100008F5C, symSize: 0x58 }
  - { offsetInCU: 0x62B08, offset: 0x62B08, size: 0x8, addend: 0x0, symName: __ZNSt3__117__compressed_pairIPPN7sc_core15sc_signal_in_ifIN5sc_dt5sc_bvILi2EEEEERNS_9allocatorIS7_EEE6secondB8ue170006Ev, symObjAddr: 0x5B18, symBinAddr: 0x100009034, symSize: 0x28 }
  - { offsetInCU: 0x62B2E, offset: 0x62B2E, size: 0x8, addend: 0x0, symName: __ZNSt3__122__compressed_pair_elemIRNS_9allocatorIPN7sc_core15sc_signal_in_ifIN5sc_dt5sc_bvILi2EEEEEEELi1ELb0EE5__getB8ue170006Ev, symObjAddr: 0x5B40, symBinAddr: 0x10000905C, symSize: 0x18 }
  - { offsetInCU: 0x62B54, offset: 0x62B54, size: 0x8, addend: 0x0, symName: __ZNSt3__117__compressed_pairIPPN7sc_core15sc_signal_in_ifIN5sc_dt5sc_bvILi2EEEEERNS_9allocatorIS7_EEE5firstB8ue170006Ev, symObjAddr: 0x5B58, symBinAddr: 0x100009074, symSize: 0x24 }
  - { offsetInCU: 0x62B7A, offset: 0x62B7A, size: 0x8, addend: 0x0, symName: __ZNSt3__116reverse_iteratorIPPN7sc_core15sc_signal_in_ifIN5sc_dt5sc_bvILi2EEEEEEC1B8ue170006ES8_, symObjAddr: 0x5BF4, symBinAddr: 0x100009110, symSize: 0x34 }
  - { offsetInCU: 0x62BB2, offset: 0x62BB2, size: 0x8, addend: 0x0, symName: __ZNKSt3__116reverse_iteratorIPPN7sc_core15sc_signal_in_ifIN5sc_dt5sc_bvILi2EEEEEE4baseB8ue170006Ev, symObjAddr: 0x5C28, symBinAddr: 0x100009144, symSize: 0x18 }
  - { offsetInCU: 0x62BD8, offset: 0x62BD8, size: 0x8, addend: 0x0, symName: __ZNKSt3__16vectorIPN7sc_core15sc_signal_in_ifIN5sc_dt5sc_bvILi2EEEEENS_9allocatorIS7_EEE14__annotate_newB8ue170006Em, symObjAddr: 0x5C7C, symBinAddr: 0x100009198, symSize: 0xAC }
  - { offsetInCU: 0x62C33, offset: 0x62C33, size: 0x8, addend: 0x0, symName: __ZNKSt3__111__move_loopINS_17_ClassicAlgPolicyEEclB8ue170006INS_16reverse_iteratorIPPN7sc_core15sc_signal_in_ifIN5sc_dt5sc_bvILi2EEEEEEESD_SD_EENS_4pairIT_T1_EESF_T0_SG_, symObjAddr: 0x6018, symBinAddr: 0x100009534, symSize: 0xA0 }
  - { offsetInCU: 0x62CA4, offset: 0x62CA4, size: 0x8, addend: 0x0, symName: __ZNSt3__18_IterOpsINS_17_ClassicAlgPolicyEE11__iter_moveB8ue170006IRNS_16reverse_iteratorIPPN7sc_core15sc_signal_in_ifIN5sc_dt5sc_bvILi2EEEEEEEEENS_9enable_ifIXsr12is_referenceIDTdeclsr3stdE7declvalIRT_EEEEE5valueEDTclsr3stdE4movedeclsr3stdE7declvalISH_EEEEE4typeEOSG_, symObjAddr: 0x624C, symBinAddr: 0x100009768, symSize: 0x28 }
  - { offsetInCU: 0x62CD0, offset: 0x62CD0, size: 0x8, addend: 0x0, symName: __ZNKSt3__116reverse_iteratorIPPN7sc_core15sc_signal_in_ifIN5sc_dt5sc_bvILi2EEEEEEdeB8ue170006Ev, symObjAddr: 0x6274, symBinAddr: 0x100009790, symSize: 0x28 }
  - { offsetInCU: 0x62D04, offset: 0x62D04, size: 0x8, addend: 0x0, symName: __ZNSt3__116reverse_iteratorIPPN7sc_core15sc_signal_in_ifIN5sc_dt5sc_bvILi2EEEEEEppB8ue170006Ev, symObjAddr: 0x629C, symBinAddr: 0x1000097B8, symSize: 0x20 }
  - { offsetInCU: 0x62D2A, offset: 0x62D2A, size: 0x8, addend: 0x0, symName: __ZNSt3__18_IterOpsINS_17_ClassicAlgPolicyEE25__validate_iter_referenceB8ue170006IRNS_16reverse_iteratorIPPN7sc_core15sc_signal_in_ifIN5sc_dt5sc_bvILi2EEEEEEEEEvv, symObjAddr: 0x62BC, symBinAddr: 0x1000097D8, symSize: 0x4 }
  - { offsetInCU: 0x62D48, offset: 0x62D48, size: 0x8, addend: 0x0, symName: __ZNSt3__118__unwrap_iter_implINS_16reverse_iteratorIPPN7sc_core15sc_signal_in_ifIN5sc_dt5sc_bvILi2EEEEEEELb0EE8__unwrapB8ue170006ESA_, symObjAddr: 0x62C0, symBinAddr: 0x1000097DC, symSize: 0x24 }
  - { offsetInCU: 0x62D71, offset: 0x62D71, size: 0x8, addend: 0x0, symName: __ZNSt3__14pairINS_16reverse_iteratorIPPN7sc_core15sc_signal_in_ifIN5sc_dt5sc_bvILi2EEEEEEESA_EC1B8ue170006ISA_SA_LPv0EEEOT_OT0_, symObjAddr: 0x62E4, symBinAddr: 0x100009800, symSize: 0x3C }
  - { offsetInCU: 0x62DCF, offset: 0x62DCF, size: 0x8, addend: 0x0, symName: __ZNSt3__14pairINS_16reverse_iteratorIPPN7sc_core15sc_signal_in_ifIN5sc_dt5sc_bvILi2EEEEEEESA_EC2B8ue170006ISA_SA_LPv0EEEOT_OT0_, symObjAddr: 0x6320, symBinAddr: 0x10000983C, symSize: 0x34 }
  - { offsetInCU: 0x62E2D, offset: 0x62E2D, size: 0x8, addend: 0x0, symName: __ZNSt3__118__unwrap_iter_implINS_16reverse_iteratorIPPN7sc_core15sc_signal_in_ifIN5sc_dt5sc_bvILi2EEEEEEELb0EE8__rewrapB8ue170006ESA_SA_, symObjAddr: 0x6354, symBinAddr: 0x100009870, symSize: 0x2C }
  - { offsetInCU: 0x62E5B, offset: 0x62E5B, size: 0x8, addend: 0x0, symName: __ZNSt3__116reverse_iteratorIPPN7sc_core15sc_signal_in_ifIN5sc_dt5sc_bvILi2EEEEEEC2B8ue170006ES8_, symObjAddr: 0x6380, symBinAddr: 0x10000989C, symSize: 0x28 }
  - { offsetInCU: 0x62E93, offset: 0x62E93, size: 0x8, addend: 0x0, symName: __ZNSt3__114__split_bufferIPN7sc_core15sc_signal_in_ifIN5sc_dt5sc_bvILi2EEEEERNS_9allocatorIS7_EEED2Ev, symObjAddr: 0x63A8, symBinAddr: 0x1000098C4, symSize: 0x8C }
  - { offsetInCU: 0x62EBF, offset: 0x62EBF, size: 0x8, addend: 0x0, symName: __ZNSt3__114__split_bufferIPN7sc_core15sc_signal_in_ifIN5sc_dt5sc_bvILi2EEEEERNS_9allocatorIS7_EEE5clearB8ue170006Ev, symObjAddr: 0x6434, symBinAddr: 0x100009950, symSize: 0x28 }
  - { offsetInCU: 0x62EE5, offset: 0x62EE5, size: 0x8, addend: 0x0, symName: __ZNKSt3__114__split_bufferIPN7sc_core15sc_signal_in_ifIN5sc_dt5sc_bvILi2EEEEERNS_9allocatorIS7_EEE8capacityB8ue170006Ev, symObjAddr: 0x645C, symBinAddr: 0x100009978, symSize: 0x40 }
  - { offsetInCU: 0x62F0B, offset: 0x62F0B, size: 0x8, addend: 0x0, symName: __ZNSt3__114__split_bufferIPN7sc_core15sc_signal_in_ifIN5sc_dt5sc_bvILi2EEEEERNS_9allocatorIS7_EEE17__destruct_at_endB8ue170006EPS7_, symObjAddr: 0x649C, symBinAddr: 0x1000099B8, symSize: 0x2C }
  - { offsetInCU: 0x62F3F, offset: 0x62F3F, size: 0x8, addend: 0x0, symName: __ZNSt3__114__split_bufferIPN7sc_core15sc_signal_in_ifIN5sc_dt5sc_bvILi2EEEEERNS_9allocatorIS7_EEE17__destruct_at_endB8ue170006EPS7_NS_17integral_constantIbLb0EEE, symObjAddr: 0x64C8, symBinAddr: 0x1000099E4, symSize: 0x80 }
  - { offsetInCU: 0x62F80, offset: 0x62F80, size: 0x8, addend: 0x0, symName: __ZNKSt3__114__split_bufferIPN7sc_core15sc_signal_in_ifIN5sc_dt5sc_bvILi2EEEEERNS_9allocatorIS7_EEE9__end_capB8ue170006Ev, symObjAddr: 0x6548, symBinAddr: 0x100009A64, symSize: 0x28 }
  - { offsetInCU: 0x62FA6, offset: 0x62FA6, size: 0x8, addend: 0x0, symName: __ZNKSt3__117__compressed_pairIPPN7sc_core15sc_signal_in_ifIN5sc_dt5sc_bvILi2EEEEERNS_9allocatorIS7_EEE5firstB8ue170006Ev, symObjAddr: 0x6570, symBinAddr: 0x100009A8C, symSize: 0x24 }
  - { offsetInCU: 0x62FCC, offset: 0x62FCC, size: 0x8, addend: 0x0, symName: __ZNKSt3__16vectorIPN7sc_core15sc_trace_paramsENS_9allocatorIS3_EEE4sizeB8ue170006Ev, symObjAddr: 0x6594, symBinAddr: 0x100009AB0, symSize: 0x28 }
  - { offsetInCU: 0x62FF2, offset: 0x62FF2, size: 0x8, addend: 0x0, symName: __ZNSt3__16vectorIPN7sc_core15sc_trace_paramsENS_9allocatorIS3_EEEixB8ue170006Em, symObjAddr: 0x65BC, symBinAddr: 0x100009AD8, symSize: 0x24 }
  - { offsetInCU: 0x63029, offset: 0x63029, size: 0x8, addend: 0x0, symName: __ZNK7sc_core5sc_inIN5sc_dt5sc_bvILi2EEEE13remove_tracesEv, symObjAddr: 0x65E0, symBinAddr: 0x100009AFC, symSize: 0xF4 }
  - { offsetInCU: 0x6306F, offset: 0x6306F, size: 0x8, addend: 0x0, symName: __ZN7sc_core15sc_trace_paramsD1Ev, symObjAddr: 0x66D4, symBinAddr: 0x100009BF0, symSize: 0x2C }
  - { offsetInCU: 0x6309B, offset: 0x6309B, size: 0x8, addend: 0x0, symName: __ZNSt3__16vectorIPN7sc_core15sc_trace_paramsENS_9allocatorIS3_EEED1B8ue170006Ev, symObjAddr: 0x6700, symBinAddr: 0x100009C1C, symSize: 0x2C }
  - { offsetInCU: 0x630C5, offset: 0x630C5, size: 0x8, addend: 0x0, symName: __ZN7sc_core15sc_trace_paramsD2Ev, symObjAddr: 0x672C, symBinAddr: 0x100009C48, symSize: 0x30 }
  - { offsetInCU: 0x630F1, offset: 0x630F1, size: 0x8, addend: 0x0, symName: __ZNSt3__16vectorIPN7sc_core15sc_trace_paramsENS_9allocatorIS3_EEED2B8ue170006Ev, symObjAddr: 0x675C, symBinAddr: 0x100009C78, symSize: 0x44 }
  - { offsetInCU: 0x6311B, offset: 0x6311B, size: 0x8, addend: 0x0, symName: __ZNSt3__16vectorIPN7sc_core15sc_trace_paramsENS_9allocatorIS3_EEE16__destroy_vectorC1B8ue170006ERS6_, symObjAddr: 0x67A0, symBinAddr: 0x100009CBC, symSize: 0x34 }
  - { offsetInCU: 0x63154, offset: 0x63154, size: 0x8, addend: 0x0, symName: __ZNSt3__16vectorIPN7sc_core15sc_trace_paramsENS_9allocatorIS3_EEE16__destroy_vectorclB8ue170006Ev, symObjAddr: 0x67D4, symBinAddr: 0x100009CF0, symSize: 0x90 }
  - { offsetInCU: 0x6317A, offset: 0x6317A, size: 0x8, addend: 0x0, symName: __ZNSt3__16vectorIPN7sc_core15sc_trace_paramsENS_9allocatorIS3_EEE16__destroy_vectorC2B8ue170006ERS6_, symObjAddr: 0x6864, symBinAddr: 0x100009D80, symSize: 0x20 }
  - { offsetInCU: 0x631B3, offset: 0x631B3, size: 0x8, addend: 0x0, symName: __ZNSt3__16vectorIPN7sc_core15sc_trace_paramsENS_9allocatorIS3_EEE7__clearB8ue170006Ev, symObjAddr: 0x6884, symBinAddr: 0x100009DA0, symSize: 0x28 }
  - { offsetInCU: 0x631D9, offset: 0x631D9, size: 0x8, addend: 0x0, symName: __ZNKSt3__16vectorIPN7sc_core15sc_trace_paramsENS_9allocatorIS3_EEE17__annotate_deleteB8ue170006Ev, symObjAddr: 0x68AC, symBinAddr: 0x100009DC8, symSize: 0xB8 }
  - { offsetInCU: 0x631FF, offset: 0x631FF, size: 0x8, addend: 0x0, symName: __ZNSt3__116allocator_traitsINS_9allocatorIPN7sc_core15sc_trace_paramsEEEE10deallocateB8ue170006ERS5_PS4_m, symObjAddr: 0x6964, symBinAddr: 0x100009E80, symSize: 0x34 }
  - { offsetInCU: 0x63241, offset: 0x63241, size: 0x8, addend: 0x0, symName: __ZNSt3__16vectorIPN7sc_core15sc_trace_paramsENS_9allocatorIS3_EEE7__allocB8ue170006Ev, symObjAddr: 0x6998, symBinAddr: 0x100009EB4, symSize: 0x28 }
  - { offsetInCU: 0x63267, offset: 0x63267, size: 0x8, addend: 0x0, symName: __ZNKSt3__16vectorIPN7sc_core15sc_trace_paramsENS_9allocatorIS3_EEE8capacityB8ue170006Ev, symObjAddr: 0x69C0, symBinAddr: 0x100009EDC, symSize: 0x40 }
  - { offsetInCU: 0x6328D, offset: 0x6328D, size: 0x8, addend: 0x0, symName: __ZNSt3__16vectorIPN7sc_core15sc_trace_paramsENS_9allocatorIS3_EEE22__base_destruct_at_endB8ue170006EPS3_, symObjAddr: 0x6A00, symBinAddr: 0x100009F1C, symSize: 0x8C }
  - { offsetInCU: 0x632D1, offset: 0x632D1, size: 0x8, addend: 0x0, symName: __ZNSt3__116allocator_traitsINS_9allocatorIPN7sc_core15sc_trace_paramsEEEE7destroyB8ue170006IS4_vEEvRS5_PT_, symObjAddr: 0x6A8C, symBinAddr: 0x100009FA8, symSize: 0x2C }
  - { offsetInCU: 0x6330E, offset: 0x6330E, size: 0x8, addend: 0x0, symName: __ZNSt3__19allocatorIPN7sc_core15sc_trace_paramsEE7destroyB8ue170006EPS3_, symObjAddr: 0x6ACC, symBinAddr: 0x100009FE8, symSize: 0x14 }
  - { offsetInCU: 0x63342, offset: 0x63342, size: 0x8, addend: 0x0, symName: __ZNKSt3__16vectorIPN7sc_core15sc_trace_paramsENS_9allocatorIS3_EEE31__annotate_contiguous_containerB8ue170006EPKvS8_S8_S8_, symObjAddr: 0x6AE0, symBinAddr: 0x100009FFC, symSize: 0x20 }
  - { offsetInCU: 0x63398, offset: 0x63398, size: 0x8, addend: 0x0, symName: __ZNKSt3__16vectorIPN7sc_core15sc_trace_paramsENS_9allocatorIS3_EEE4dataB8ue170006Ev, symObjAddr: 0x6B00, symBinAddr: 0x10000A01C, symSize: 0x28 }
  - { offsetInCU: 0x633BE, offset: 0x633BE, size: 0x8, addend: 0x0, symName: __ZNSt3__19allocatorIPN7sc_core15sc_trace_paramsEE10deallocateB8ue170006EPS3_m, symObjAddr: 0x6B28, symBinAddr: 0x10000A044, symSize: 0x40 }
  - { offsetInCU: 0x63400, offset: 0x63400, size: 0x8, addend: 0x0, symName: __ZNSt3__117__compressed_pairIPPN7sc_core15sc_trace_paramsENS_9allocatorIS3_EEE6secondB8ue170006Ev, symObjAddr: 0x6B68, symBinAddr: 0x10000A084, symSize: 0x24 }
  - { offsetInCU: 0x63426, offset: 0x63426, size: 0x8, addend: 0x0, symName: __ZNSt3__122__compressed_pair_elemINS_9allocatorIPN7sc_core15sc_trace_paramsEEELi1ELb1EE5__getB8ue170006Ev, symObjAddr: 0x6B8C, symBinAddr: 0x10000A0A8, symSize: 0x14 }
  - { offsetInCU: 0x6344C, offset: 0x6344C, size: 0x8, addend: 0x0, symName: __ZNKSt3__16vectorIPN7sc_core15sc_trace_paramsENS_9allocatorIS3_EEE9__end_capB8ue170006Ev, symObjAddr: 0x6BA0, symBinAddr: 0x10000A0BC, symSize: 0x28 }
  - { offsetInCU: 0x63472, offset: 0x63472, size: 0x8, addend: 0x0, symName: __ZNKSt3__117__compressed_pairIPPN7sc_core15sc_trace_paramsENS_9allocatorIS3_EEE5firstB8ue170006Ev, symObjAddr: 0x6BC8, symBinAddr: 0x10000A0E4, symSize: 0x24 }
  - { offsetInCU: 0x63498, offset: 0x63498, size: 0x8, addend: 0x0, symName: __ZNKSt3__122__compressed_pair_elemIPPN7sc_core15sc_trace_paramsELi0ELb0EE5__getB8ue170006Ev, symObjAddr: 0x6BEC, symBinAddr: 0x10000A108, symSize: 0x14 }
  - { offsetInCU: 0x634BE, offset: 0x634BE, size: 0x8, addend: 0x0, symName: __ZNKSt3__16vectorIPN7sc_core15sc_signal_in_ifIN5sc_dt5sc_bvILi2EEEEENS_9allocatorIS7_EEEixB8ue170006Em, symObjAddr: 0x6C00, symBinAddr: 0x10000A11C, symSize: 0x24 }
  - { offsetInCU: 0x634F5, offset: 0x634F5, size: 0x8, addend: 0x0, symName: __ZN7sc_core5sc_inIjEC2Ev, symObjAddr: 0x6C24, symBinAddr: 0x10000A140, symSize: 0x4C }
  - { offsetInCU: 0x6351F, offset: 0x6351F, size: 0x8, addend: 0x0, symName: __ZN7sc_core7sc_portINS_15sc_signal_in_ifIjEELi1ELNS_14sc_port_policyE0EEC2Ev, symObjAddr: 0x6C70, symBinAddr: 0x10000A18C, symSize: 0x4C }
  - { offsetInCU: 0x63549, offset: 0x63549, size: 0x8, addend: 0x0, symName: __ZNK7sc_core5sc_inIjE4kindEv, symObjAddr: 0x6CBC, symBinAddr: 0x10000A1D8, symSize: 0x18 }
  - { offsetInCU: 0x6356F, offset: 0x6356F, size: 0x8, addend: 0x0, symName: __ZN7sc_core5sc_inIjED0Ev, symObjAddr: 0x6CD4, symBinAddr: 0x10000A1F0, symSize: 0x30 }
  - { offsetInCU: 0x63599, offset: 0x63599, size: 0x8, addend: 0x0, symName: __ZN7sc_core9sc_port_bINS_15sc_signal_in_ifIjEEE13get_interfaceEv, symObjAddr: 0x6D04, symBinAddr: 0x10000A220, symSize: 0x50 }
  - { offsetInCU: 0x635BF, offset: 0x635BF, size: 0x8, addend: 0x0, symName: __ZNK7sc_core9sc_port_bINS_15sc_signal_in_ifIjEEE13get_interfaceEv, symObjAddr: 0x6D54, symBinAddr: 0x10000A270, symSize: 0x50 }
  - { offsetInCU: 0x635E5, offset: 0x635E5, size: 0x8, addend: 0x0, symName: __ZNK7sc_core9sc_port_bINS_15sc_signal_in_ifIjEEE18get_interface_typeEv, symObjAddr: 0x6DA4, symBinAddr: 0x10000A2C0, symSize: 0x30 }
  - { offsetInCU: 0x6360D, offset: 0x6360D, size: 0x8, addend: 0x0, symName: __ZN7sc_core5sc_inIjE5vbindERNS_12sc_interfaceE, symObjAddr: 0x6DD4, symBinAddr: 0x10000A2F0, symSize: 0x2C }
  - { offsetInCU: 0x63644, offset: 0x63644, size: 0x8, addend: 0x0, symName: __ZN7sc_core5sc_inIjE5vbindERNS_12sc_port_baseE, symObjAddr: 0x6E00, symBinAddr: 0x10000A31C, symSize: 0x128 }
  - { offsetInCU: 0x63699, offset: 0x63699, size: 0x8, addend: 0x0, symName: __ZN7sc_core9sc_port_bINS_15sc_signal_in_ifIjEEE13add_interfaceEPNS_12sc_interfaceE, symObjAddr: 0x6F28, symBinAddr: 0x10000A444, symSize: 0x160 }
  - { offsetInCU: 0x6370C, offset: 0x6370C, size: 0x8, addend: 0x0, symName: __ZNK7sc_core9sc_port_bINS_15sc_signal_in_ifIjEEE15interface_countEv, symObjAddr: 0x7088, symBinAddr: 0x10000A5A4, symSize: 0x24 }
  - { offsetInCU: 0x63734, offset: 0x63734, size: 0x8, addend: 0x0, symName: __ZN7sc_core5sc_inIjE18end_of_elaborationEv, symObjAddr: 0x70AC, symBinAddr: 0x10000A5C8, symSize: 0x138 }
  - { offsetInCU: 0x637A7, offset: 0x637A7, size: 0x8, addend: 0x0, symName: __ZNK7sc_core9sc_port_bINS_15sc_signal_in_ifIjEEE14make_sensitiveEPNS_17sc_thread_processEPNS_15sc_event_finderE, symObjAddr: 0x71E4, symBinAddr: 0x10000A700, symSize: 0x114 }
  - { offsetInCU: 0x63847, offset: 0x63847, size: 0x8, addend: 0x0, symName: __ZNK7sc_core9sc_port_bINS_15sc_signal_in_ifIjEEE14make_sensitiveEPNS_17sc_method_processEPNS_15sc_event_finderE, symObjAddr: 0x72F8, symBinAddr: 0x10000A814, symSize: 0x114 }
  - { offsetInCU: 0x638E7, offset: 0x638E7, size: 0x8, addend: 0x0, symName: __ZN7sc_core5sc_inIjE4bindERNS_9sc_port_bINS_15sc_signal_in_ifIjEEEE, symObjAddr: 0x740C, symBinAddr: 0x10000A928, symSize: 0x2C }
  - { offsetInCU: 0x6391C, offset: 0x6391C, size: 0x8, addend: 0x0, symName: __ZN7sc_core5sc_inIjE4bindERKNS_15sc_signal_in_ifIjEE, symObjAddr: 0x7438, symBinAddr: 0x10000A954, symSize: 0x38 }
  - { offsetInCU: 0x63950, offset: 0x63950, size: 0x8, addend: 0x0, symName: __ZN7sc_core5sc_inIjE4bindERNS_7sc_portINS_15sc_signal_in_ifIjEELi1ELNS_14sc_port_policyE0EEE, symObjAddr: 0x7470, symBinAddr: 0x10000A98C, symSize: 0x2C }
  - { offsetInCU: 0x63984, offset: 0x63984, size: 0x8, addend: 0x0, symName: __ZN7sc_core5sc_inIjE4bindERNS_7sc_portINS_18sc_signal_inout_ifIjEELi1ELNS_14sc_port_policyE0EEE, symObjAddr: 0x749C, symBinAddr: 0x10000A9B8, symSize: 0x2C }
  - { offsetInCU: 0x639B8, offset: 0x639B8, size: 0x8, addend: 0x0, symName: __ZN7sc_core9sc_port_bINS_15sc_signal_in_ifIjEEEC2EiNS_14sc_port_policyE, symObjAddr: 0x74C8, symBinAddr: 0x10000A9E4, symSize: 0x64 }
  - { offsetInCU: 0x63A00, offset: 0x63A00, size: 0x8, addend: 0x0, symName: __ZNK7sc_core7sc_portINS_15sc_signal_in_ifIjEELi1ELNS_14sc_port_policyE0EE4kindEv, symObjAddr: 0x752C, symBinAddr: 0x10000AA48, symSize: 0x18 }
  - { offsetInCU: 0x63A26, offset: 0x63A26, size: 0x8, addend: 0x0, symName: __ZN7sc_core7sc_portINS_15sc_signal_in_ifIjEELi1ELNS_14sc_port_policyE0EED1Ev, symObjAddr: 0x7544, symBinAddr: 0x10000AA60, symSize: 0x2C }
  - { offsetInCU: 0x63A50, offset: 0x63A50, size: 0x8, addend: 0x0, symName: __ZN7sc_core7sc_portINS_15sc_signal_in_ifIjEELi1ELNS_14sc_port_policyE0EED0Ev, symObjAddr: 0x7570, symBinAddr: 0x10000AA8C, symSize: 0x30 }
  - { offsetInCU: 0x63A7A, offset: 0x63A7A, size: 0x8, addend: 0x0, symName: __ZN7sc_core9sc_port_bINS_15sc_signal_in_ifIjEEE5vbindERNS_12sc_interfaceE, symObjAddr: 0x75A0, symBinAddr: 0x10000AABC, symSize: 0xBC }
  - { offsetInCU: 0x63AC0, offset: 0x63AC0, size: 0x8, addend: 0x0, symName: __ZN7sc_core9sc_port_bINS_15sc_signal_in_ifIjEEE5vbindERNS_12sc_port_baseE, symObjAddr: 0x765C, symBinAddr: 0x10000AB78, symSize: 0xB0 }
  - { offsetInCU: 0x63B06, offset: 0x63B06, size: 0x8, addend: 0x0, symName: __ZN7sc_core9sc_port_bINS_15sc_signal_in_ifIjEEE4bindERS2_, symObjAddr: 0x770C, symBinAddr: 0x10000AC28, symSize: 0x38 }
  - { offsetInCU: 0x63B3B, offset: 0x63B3B, size: 0x8, addend: 0x0, symName: __ZN7sc_core9sc_port_bINS_15sc_signal_in_ifIjEEE4bindERS3_, symObjAddr: 0x7744, symBinAddr: 0x10000AC60, symSize: 0x2C }
  - { offsetInCU: 0x63B70, offset: 0x63B70, size: 0x8, addend: 0x0, symName: __ZNSt3__16vectorIPN7sc_core15sc_signal_in_ifIjEENS_9allocatorIS4_EEEC1B8ue170006Ev, symObjAddr: 0x7770, symBinAddr: 0x10000AC8C, symSize: 0x2C }
  - { offsetInCU: 0x63B9A, offset: 0x63B9A, size: 0x8, addend: 0x0, symName: __ZN7sc_core9sc_port_bINS_15sc_signal_in_ifIjEEED1Ev, symObjAddr: 0x779C, symBinAddr: 0x10000ACB8, symSize: 0x2C }
  - { offsetInCU: 0x63BC4, offset: 0x63BC4, size: 0x8, addend: 0x0, symName: __ZN7sc_core9sc_port_bINS_15sc_signal_in_ifIjEEED0Ev, symObjAddr: 0x77C8, symBinAddr: 0x10000ACE4, symSize: 0x30 }
  - { offsetInCU: 0x63BEE, offset: 0x63BEE, size: 0x8, addend: 0x0, symName: __ZNSt3__16vectorIPN7sc_core15sc_signal_in_ifIjEENS_9allocatorIS4_EEEC2B8ue170006Ev, symObjAddr: 0x77F8, symBinAddr: 0x10000AD14, symSize: 0x4C }
  - { offsetInCU: 0x63C18, offset: 0x63C18, size: 0x8, addend: 0x0, symName: __ZNSt3__117__compressed_pairIPPN7sc_core15sc_signal_in_ifIjEENS_9allocatorIS4_EEEC1B8ue170006IDnNS_18__default_init_tagEEEOT_OT0_, symObjAddr: 0x7844, symBinAddr: 0x10000AD60, symSize: 0x3C }
  - { offsetInCU: 0x63C70, offset: 0x63C70, size: 0x8, addend: 0x0, symName: __ZNSt3__117__compressed_pairIPPN7sc_core15sc_signal_in_ifIjEENS_9allocatorIS4_EEEC2B8ue170006IDnNS_18__default_init_tagEEEOT_OT0_, symObjAddr: 0x7880, symBinAddr: 0x10000AD9C, symSize: 0x40 }
  - { offsetInCU: 0x63CC8, offset: 0x63CC8, size: 0x8, addend: 0x0, symName: __ZNSt3__122__compressed_pair_elemIPPN7sc_core15sc_signal_in_ifIjEELi0ELb0EEC2B8ue170006IDnvEEOT_, symObjAddr: 0x78C0, symBinAddr: 0x10000ADDC, symSize: 0x1C }
  - { offsetInCU: 0x63D0A, offset: 0x63D0A, size: 0x8, addend: 0x0, symName: __ZNSt3__122__compressed_pair_elemINS_9allocatorIPN7sc_core15sc_signal_in_ifIjEEEELi1ELb1EEC2B8ue170006ENS_18__default_init_tagE, symObjAddr: 0x78DC, symBinAddr: 0x10000ADF8, symSize: 0x2C }
  - { offsetInCU: 0x63D3F, offset: 0x63D3F, size: 0x8, addend: 0x0, symName: __ZNSt3__19allocatorIPN7sc_core15sc_signal_in_ifIjEEEC2B8ue170006Ev, symObjAddr: 0x7908, symBinAddr: 0x10000AE24, symSize: 0x2C }
  - { offsetInCU: 0x63D69, offset: 0x63D69, size: 0x8, addend: 0x0, symName: __ZNSt3__116__non_trivial_ifILb1ENS_9allocatorIPN7sc_core15sc_signal_in_ifIjEEEEEC2B8ue170006Ev, symObjAddr: 0x7934, symBinAddr: 0x10000AE50, symSize: 0x14 }
  - { offsetInCU: 0x63D93, offset: 0x63D93, size: 0x8, addend: 0x0, symName: __ZN7sc_core9sc_port_bINS_15sc_signal_in_ifIjEEED2Ev, symObjAddr: 0x7948, symBinAddr: 0x10000AE64, symSize: 0x48 }
  - { offsetInCU: 0x63DBD, offset: 0x63DBD, size: 0x8, addend: 0x0, symName: __ZNSt3__16vectorIPN7sc_core15sc_signal_in_ifIjEENS_9allocatorIS4_EEED1B8ue170006Ev, symObjAddr: 0x7990, symBinAddr: 0x10000AEAC, symSize: 0x2C }
  - { offsetInCU: 0x63DE7, offset: 0x63DE7, size: 0x8, addend: 0x0, symName: __ZNSt3__16vectorIPN7sc_core15sc_signal_in_ifIjEENS_9allocatorIS4_EEED2B8ue170006Ev, symObjAddr: 0x79BC, symBinAddr: 0x10000AED8, symSize: 0x44 }
  - { offsetInCU: 0x63E11, offset: 0x63E11, size: 0x8, addend: 0x0, symName: __ZNSt3__16vectorIPN7sc_core15sc_signal_in_ifIjEENS_9allocatorIS4_EEE16__destroy_vectorC1B8ue170006ERS7_, symObjAddr: 0x7A00, symBinAddr: 0x10000AF1C, symSize: 0x34 }
  - { offsetInCU: 0x63E4A, offset: 0x63E4A, size: 0x8, addend: 0x0, symName: __ZNSt3__16vectorIPN7sc_core15sc_signal_in_ifIjEENS_9allocatorIS4_EEE16__destroy_vectorclB8ue170006Ev, symObjAddr: 0x7A34, symBinAddr: 0x10000AF50, symSize: 0x90 }
  - { offsetInCU: 0x63E70, offset: 0x63E70, size: 0x8, addend: 0x0, symName: __ZNSt3__16vectorIPN7sc_core15sc_signal_in_ifIjEENS_9allocatorIS4_EEE16__destroy_vectorC2B8ue170006ERS7_, symObjAddr: 0x7AC4, symBinAddr: 0x10000AFE0, symSize: 0x20 }
  - { offsetInCU: 0x63EA9, offset: 0x63EA9, size: 0x8, addend: 0x0, symName: __ZNSt3__16vectorIPN7sc_core15sc_signal_in_ifIjEENS_9allocatorIS4_EEE7__clearB8ue170006Ev, symObjAddr: 0x7AE4, symBinAddr: 0x10000B000, symSize: 0x28 }
  - { offsetInCU: 0x63ECF, offset: 0x63ECF, size: 0x8, addend: 0x0, symName: __ZNKSt3__16vectorIPN7sc_core15sc_signal_in_ifIjEENS_9allocatorIS4_EEE17__annotate_deleteB8ue170006Ev, symObjAddr: 0x7B0C, symBinAddr: 0x10000B028, symSize: 0xB8 }
  - { offsetInCU: 0x63EF5, offset: 0x63EF5, size: 0x8, addend: 0x0, symName: __ZNSt3__116allocator_traitsINS_9allocatorIPN7sc_core15sc_signal_in_ifIjEEEEE10deallocateB8ue170006ERS6_PS5_m, symObjAddr: 0x7BC4, symBinAddr: 0x10000B0E0, symSize: 0x34 }
  - { offsetInCU: 0x63F37, offset: 0x63F37, size: 0x8, addend: 0x0, symName: __ZNSt3__16vectorIPN7sc_core15sc_signal_in_ifIjEENS_9allocatorIS4_EEE7__allocB8ue170006Ev, symObjAddr: 0x7BF8, symBinAddr: 0x10000B114, symSize: 0x28 }
  - { offsetInCU: 0x63F5D, offset: 0x63F5D, size: 0x8, addend: 0x0, symName: __ZNKSt3__16vectorIPN7sc_core15sc_signal_in_ifIjEENS_9allocatorIS4_EEE8capacityB8ue170006Ev, symObjAddr: 0x7C20, symBinAddr: 0x10000B13C, symSize: 0x40 }
  - { offsetInCU: 0x63F83, offset: 0x63F83, size: 0x8, addend: 0x0, symName: __ZNSt3__16vectorIPN7sc_core15sc_signal_in_ifIjEENS_9allocatorIS4_EEE22__base_destruct_at_endB8ue170006EPS4_, symObjAddr: 0x7C60, symBinAddr: 0x10000B17C, symSize: 0x8C }
  - { offsetInCU: 0x63FC7, offset: 0x63FC7, size: 0x8, addend: 0x0, symName: __ZNSt3__116allocator_traitsINS_9allocatorIPN7sc_core15sc_signal_in_ifIjEEEEE7destroyB8ue170006IS5_vEEvRS6_PT_, symObjAddr: 0x7CEC, symBinAddr: 0x10000B208, symSize: 0x2C }
  - { offsetInCU: 0x64004, offset: 0x64004, size: 0x8, addend: 0x0, symName: __ZNSt3__19allocatorIPN7sc_core15sc_signal_in_ifIjEEE7destroyB8ue170006EPS4_, symObjAddr: 0x7D2C, symBinAddr: 0x10000B248, symSize: 0x14 }
  - { offsetInCU: 0x64038, offset: 0x64038, size: 0x8, addend: 0x0, symName: __ZNKSt3__16vectorIPN7sc_core15sc_signal_in_ifIjEENS_9allocatorIS4_EEE31__annotate_contiguous_containerB8ue170006EPKvS9_S9_S9_, symObjAddr: 0x7D40, symBinAddr: 0x10000B25C, symSize: 0x20 }
  - { offsetInCU: 0x6408E, offset: 0x6408E, size: 0x8, addend: 0x0, symName: __ZNKSt3__16vectorIPN7sc_core15sc_signal_in_ifIjEENS_9allocatorIS4_EEE4dataB8ue170006Ev, symObjAddr: 0x7D60, symBinAddr: 0x10000B27C, symSize: 0x28 }
  - { offsetInCU: 0x640B4, offset: 0x640B4, size: 0x8, addend: 0x0, symName: __ZNKSt3__16vectorIPN7sc_core15sc_signal_in_ifIjEENS_9allocatorIS4_EEE4sizeB8ue170006Ev, symObjAddr: 0x7D88, symBinAddr: 0x10000B2A4, symSize: 0x28 }
  - { offsetInCU: 0x640DA, offset: 0x640DA, size: 0x8, addend: 0x0, symName: __ZNSt3__19allocatorIPN7sc_core15sc_signal_in_ifIjEEE10deallocateB8ue170006EPS4_m, symObjAddr: 0x7DB0, symBinAddr: 0x10000B2CC, symSize: 0x40 }
  - { offsetInCU: 0x6411C, offset: 0x6411C, size: 0x8, addend: 0x0, symName: __ZNSt3__117__compressed_pairIPPN7sc_core15sc_signal_in_ifIjEENS_9allocatorIS4_EEE6secondB8ue170006Ev, symObjAddr: 0x7DF0, symBinAddr: 0x10000B30C, symSize: 0x24 }
  - { offsetInCU: 0x64142, offset: 0x64142, size: 0x8, addend: 0x0, symName: __ZNSt3__122__compressed_pair_elemINS_9allocatorIPN7sc_core15sc_signal_in_ifIjEEEELi1ELb1EE5__getB8ue170006Ev, symObjAddr: 0x7E14, symBinAddr: 0x10000B330, symSize: 0x14 }
  - { offsetInCU: 0x64168, offset: 0x64168, size: 0x8, addend: 0x0, symName: __ZNKSt3__16vectorIPN7sc_core15sc_signal_in_ifIjEENS_9allocatorIS4_EEE9__end_capB8ue170006Ev, symObjAddr: 0x7E28, symBinAddr: 0x10000B344, symSize: 0x28 }
  - { offsetInCU: 0x6418E, offset: 0x6418E, size: 0x8, addend: 0x0, symName: __ZNKSt3__117__compressed_pairIPPN7sc_core15sc_signal_in_ifIjEENS_9allocatorIS4_EEE5firstB8ue170006Ev, symObjAddr: 0x7E50, symBinAddr: 0x10000B36C, symSize: 0x24 }
  - { offsetInCU: 0x641B4, offset: 0x641B4, size: 0x8, addend: 0x0, symName: __ZNKSt3__122__compressed_pair_elemIPPN7sc_core15sc_signal_in_ifIjEELi0ELb0EE5__getB8ue170006Ev, symObjAddr: 0x7E74, symBinAddr: 0x10000B390, symSize: 0x14 }
  - { offsetInCU: 0x641DA, offset: 0x641DA, size: 0x8, addend: 0x0, symName: __ZN7sc_core7sc_portINS_15sc_signal_in_ifIjEELi1ELNS_14sc_port_policyE0EED2Ev, symObjAddr: 0x7E88, symBinAddr: 0x10000B3A4, symSize: 0x2C }
  - { offsetInCU: 0x64204, offset: 0x64204, size: 0x8, addend: 0x0, symName: __ZNK7sc_core9sc_port_bINS_15sc_signal_in_ifIjEEE4sizeEv, symObjAddr: 0x7EB4, symBinAddr: 0x10000B3D0, symSize: 0x28 }
  - { offsetInCU: 0x6422A, offset: 0x6422A, size: 0x8, addend: 0x0, symName: __ZNSt3__16vectorIPN7sc_core15sc_signal_in_ifIjEENS_9allocatorIS4_EEEixB8ue170006Em, symObjAddr: 0x7EDC, symBinAddr: 0x10000B3F8, symSize: 0x24 }
  - { offsetInCU: 0x64261, offset: 0x64261, size: 0x8, addend: 0x0, symName: __ZNSt3__16vectorIPN7sc_core15sc_signal_in_ifIjEENS_9allocatorIS4_EEE9push_backB8ue170006ERKS4_, symObjAddr: 0x7F00, symBinAddr: 0x10000B41C, symSize: 0x6C }
  - { offsetInCU: 0x64298, offset: 0x64298, size: 0x8, addend: 0x0, symName: __ZNSt3__16vectorIPN7sc_core15sc_signal_in_ifIjEENS_9allocatorIS4_EEE9__end_capB8ue170006Ev, symObjAddr: 0x7F6C, symBinAddr: 0x10000B488, symSize: 0x28 }
  - { offsetInCU: 0x642BE, offset: 0x642BE, size: 0x8, addend: 0x0, symName: __ZNSt3__16vectorIPN7sc_core15sc_signal_in_ifIjEENS_9allocatorIS4_EEE22__construct_one_at_endB8ue170006IJRKS4_EEEvDpOT_, symObjAddr: 0x7F94, symBinAddr: 0x10000B4B0, symSize: 0x90 }
  - { offsetInCU: 0x6430D, offset: 0x6430D, size: 0x8, addend: 0x0, symName: __ZNSt3__16vectorIPN7sc_core15sc_signal_in_ifIjEENS_9allocatorIS4_EEE21__push_back_slow_pathIRKS4_EEvOT_, symObjAddr: 0x8024, symBinAddr: 0x10000B540, symSize: 0xD8 }
  - { offsetInCU: 0x6436B, offset: 0x6436B, size: 0x8, addend: 0x0, symName: __ZNSt3__117__compressed_pairIPPN7sc_core15sc_signal_in_ifIjEENS_9allocatorIS4_EEE5firstB8ue170006Ev, symObjAddr: 0x80FC, symBinAddr: 0x10000B618, symSize: 0x24 }
  - { offsetInCU: 0x64391, offset: 0x64391, size: 0x8, addend: 0x0, symName: __ZNSt3__122__compressed_pair_elemIPPN7sc_core15sc_signal_in_ifIjEELi0ELb0EE5__getB8ue170006Ev, symObjAddr: 0x8120, symBinAddr: 0x10000B63C, symSize: 0x14 }
  - { offsetInCU: 0x643D2, offset: 0x643D2, size: 0x8, addend: 0x0, symName: __ZNSt3__16vectorIPN7sc_core15sc_signal_in_ifIjEENS_9allocatorIS4_EEE21_ConstructTransactionC1B8ue170006ERS7_m, symObjAddr: 0x8134, symBinAddr: 0x10000B650, symSize: 0x3C }
  - { offsetInCU: 0x6441A, offset: 0x6441A, size: 0x8, addend: 0x0, symName: __ZNSt3__116allocator_traitsINS_9allocatorIPN7sc_core15sc_signal_in_ifIjEEEEE9constructB8ue170006IS5_JRKS5_EvEEvRS6_PT_DpOT0_, symObjAddr: 0x8170, symBinAddr: 0x10000B68C, symSize: 0x34 }
  - { offsetInCU: 0x64471, offset: 0x64471, size: 0x8, addend: 0x0, symName: __ZNSt3__16vectorIPN7sc_core15sc_signal_in_ifIjEENS_9allocatorIS4_EEE21_ConstructTransactionD1B8ue170006Ev, symObjAddr: 0x81A4, symBinAddr: 0x10000B6C0, symSize: 0x2C }
  - { offsetInCU: 0x6449B, offset: 0x6449B, size: 0x8, addend: 0x0, symName: __ZNSt3__16vectorIPN7sc_core15sc_signal_in_ifIjEENS_9allocatorIS4_EEE21_ConstructTransactionC2B8ue170006ERS7_m, symObjAddr: 0x81D0, symBinAddr: 0x10000B6EC, symSize: 0x44 }
  - { offsetInCU: 0x644E3, offset: 0x644E3, size: 0x8, addend: 0x0, symName: __ZNSt3__19allocatorIPN7sc_core15sc_signal_in_ifIjEEE9constructB8ue170006IS4_JRKS4_EEEvPT_DpOT0_, symObjAddr: 0x8214, symBinAddr: 0x10000B730, symSize: 0x28 }
  - { offsetInCU: 0x64539, offset: 0x64539, size: 0x8, addend: 0x0, symName: __ZNSt3__16vectorIPN7sc_core15sc_signal_in_ifIjEENS_9allocatorIS4_EEE21_ConstructTransactionD2B8ue170006Ev, symObjAddr: 0x823C, symBinAddr: 0x10000B758, symSize: 0x20 }
  - { offsetInCU: 0x64563, offset: 0x64563, size: 0x8, addend: 0x0, symName: __ZNKSt3__16vectorIPN7sc_core15sc_signal_in_ifIjEENS_9allocatorIS4_EEE11__recommendB8ue170006Em, symObjAddr: 0x825C, symBinAddr: 0x10000B778, symSize: 0xB4 }
  - { offsetInCU: 0x645B8, offset: 0x645B8, size: 0x8, addend: 0x0, symName: __ZNSt3__114__split_bufferIPN7sc_core15sc_signal_in_ifIjEERNS_9allocatorIS4_EEEC1EmmS7_, symObjAddr: 0x8310, symBinAddr: 0x10000B82C, symSize: 0x44 }
  - { offsetInCU: 0x6460E, offset: 0x6460E, size: 0x8, addend: 0x0, symName: __ZNSt3__114__split_bufferIPN7sc_core15sc_signal_in_ifIjEERNS_9allocatorIS4_EEED1Ev, symObjAddr: 0x8464, symBinAddr: 0x10000B980, symSize: 0x2C }
  - { offsetInCU: 0x6463A, offset: 0x6463A, size: 0x8, addend: 0x0, symName: __ZNKSt3__16vectorIPN7sc_core15sc_signal_in_ifIjEENS_9allocatorIS4_EEE8max_sizeEv, symObjAddr: 0x8490, symBinAddr: 0x10000B9AC, symSize: 0x60 }
  - { offsetInCU: 0x64662, offset: 0x64662, size: 0x8, addend: 0x0, symName: __ZNKSt3__16vectorIPN7sc_core15sc_signal_in_ifIjEENS_9allocatorIS4_EEE20__throw_length_errorB8ue170006Ev, symObjAddr: 0x84F0, symBinAddr: 0x10000BA0C, symSize: 0x1C }
  - { offsetInCU: 0x64693, offset: 0x64693, size: 0x8, addend: 0x0, symName: __ZNSt3__116allocator_traitsINS_9allocatorIPN7sc_core15sc_signal_in_ifIjEEEEE8max_sizeB8ue170006IS6_vEEmRKS6_, symObjAddr: 0x850C, symBinAddr: 0x10000BA28, symSize: 0x24 }
  - { offsetInCU: 0x646C1, offset: 0x646C1, size: 0x8, addend: 0x0, symName: __ZNKSt3__16vectorIPN7sc_core15sc_signal_in_ifIjEENS_9allocatorIS4_EEE7__allocB8ue170006Ev, symObjAddr: 0x8530, symBinAddr: 0x10000BA4C, symSize: 0x28 }
  - { offsetInCU: 0x646E7, offset: 0x646E7, size: 0x8, addend: 0x0, symName: __ZNKSt3__19allocatorIPN7sc_core15sc_signal_in_ifIjEEE8max_sizeB8ue170006Ev, symObjAddr: 0x8558, symBinAddr: 0x10000BA74, symSize: 0x14 }
  - { offsetInCU: 0x6470D, offset: 0x6470D, size: 0x8, addend: 0x0, symName: __ZNKSt3__117__compressed_pairIPPN7sc_core15sc_signal_in_ifIjEENS_9allocatorIS4_EEE6secondB8ue170006Ev, symObjAddr: 0x856C, symBinAddr: 0x10000BA88, symSize: 0x24 }
  - { offsetInCU: 0x64733, offset: 0x64733, size: 0x8, addend: 0x0, symName: __ZNKSt3__122__compressed_pair_elemINS_9allocatorIPN7sc_core15sc_signal_in_ifIjEEEELi1ELb1EE5__getB8ue170006Ev, symObjAddr: 0x8590, symBinAddr: 0x10000BAAC, symSize: 0x14 }
  - { offsetInCU: 0x64759, offset: 0x64759, size: 0x8, addend: 0x0, symName: __ZNSt3__114__split_bufferIPN7sc_core15sc_signal_in_ifIjEERNS_9allocatorIS4_EEEC2EmmS7_, symObjAddr: 0x85A4, symBinAddr: 0x10000BAC0, symSize: 0xD4 }
  - { offsetInCU: 0x647CD, offset: 0x647CD, size: 0x8, addend: 0x0, symName: __ZNSt3__117__compressed_pairIPPN7sc_core15sc_signal_in_ifIjEERNS_9allocatorIS4_EEEC1B8ue170006IDnS8_EEOT_OT0_, symObjAddr: 0x8678, symBinAddr: 0x10000BB94, symSize: 0x3C }
  - { offsetInCU: 0x64825, offset: 0x64825, size: 0x8, addend: 0x0, symName: __ZNSt3__114__split_bufferIPN7sc_core15sc_signal_in_ifIjEERNS_9allocatorIS4_EEE7__allocB8ue170006Ev, symObjAddr: 0x86F4, symBinAddr: 0x10000BC10, symSize: 0x28 }
  - { offsetInCU: 0x6484B, offset: 0x6484B, size: 0x8, addend: 0x0, symName: __ZNSt3__114__split_bufferIPN7sc_core15sc_signal_in_ifIjEERNS_9allocatorIS4_EEE9__end_capB8ue170006Ev, symObjAddr: 0x871C, symBinAddr: 0x10000BC38, symSize: 0x28 }
  - { offsetInCU: 0x64871, offset: 0x64871, size: 0x8, addend: 0x0, symName: __ZNSt3__117__compressed_pairIPPN7sc_core15sc_signal_in_ifIjEERNS_9allocatorIS4_EEEC2B8ue170006IDnS8_EEOT_OT0_, symObjAddr: 0x8744, symBinAddr: 0x10000BC60, symSize: 0x48 }
  - { offsetInCU: 0x648C9, offset: 0x648C9, size: 0x8, addend: 0x0, symName: __ZNSt3__122__compressed_pair_elemIRNS_9allocatorIPN7sc_core15sc_signal_in_ifIjEEEELi1ELb0EEC2B8ue170006IS7_vEEOT_, symObjAddr: 0x878C, symBinAddr: 0x10000BCA8, symSize: 0x20 }
  - { offsetInCU: 0x6490B, offset: 0x6490B, size: 0x8, addend: 0x0, symName: __ZNSt3__19allocatorIPN7sc_core15sc_signal_in_ifIjEEE8allocateB8ue170006Em, symObjAddr: 0x87AC, symBinAddr: 0x10000BCC8, symSize: 0x58 }
  - { offsetInCU: 0x6493F, offset: 0x6493F, size: 0x8, addend: 0x0, symName: __ZNSt3__117__compressed_pairIPPN7sc_core15sc_signal_in_ifIjEERNS_9allocatorIS4_EEE6secondB8ue170006Ev, symObjAddr: 0x8804, symBinAddr: 0x10000BD20, symSize: 0x28 }
  - { offsetInCU: 0x64965, offset: 0x64965, size: 0x8, addend: 0x0, symName: __ZNSt3__122__compressed_pair_elemIRNS_9allocatorIPN7sc_core15sc_signal_in_ifIjEEEELi1ELb0EE5__getB8ue170006Ev, symObjAddr: 0x882C, symBinAddr: 0x10000BD48, symSize: 0x18 }
  - { offsetInCU: 0x6498B, offset: 0x6498B, size: 0x8, addend: 0x0, symName: __ZNSt3__117__compressed_pairIPPN7sc_core15sc_signal_in_ifIjEERNS_9allocatorIS4_EEE5firstB8ue170006Ev, symObjAddr: 0x8844, symBinAddr: 0x10000BD60, symSize: 0x24 }
  - { offsetInCU: 0x649B1, offset: 0x649B1, size: 0x8, addend: 0x0, symName: __ZNSt3__116reverse_iteratorIPPN7sc_core15sc_signal_in_ifIjEEEC1B8ue170006ES5_, symObjAddr: 0x88E0, symBinAddr: 0x10000BDFC, symSize: 0x34 }
  - { offsetInCU: 0x649E9, offset: 0x649E9, size: 0x8, addend: 0x0, symName: __ZNKSt3__116reverse_iteratorIPPN7sc_core15sc_signal_in_ifIjEEE4baseB8ue170006Ev, symObjAddr: 0x8914, symBinAddr: 0x10000BE30, symSize: 0x18 }
  - { offsetInCU: 0x64A0F, offset: 0x64A0F, size: 0x8, addend: 0x0, symName: __ZNKSt3__16vectorIPN7sc_core15sc_signal_in_ifIjEENS_9allocatorIS4_EEE14__annotate_newB8ue170006Em, symObjAddr: 0x8968, symBinAddr: 0x10000BE84, symSize: 0xAC }
  - { offsetInCU: 0x64A60, offset: 0x64A60, size: 0x8, addend: 0x0, symName: __ZNKSt3__111__move_loopINS_17_ClassicAlgPolicyEEclB8ue170006INS_16reverse_iteratorIPPN7sc_core15sc_signal_in_ifIjEEEESA_SA_EENS_4pairIT_T1_EESC_T0_SD_, symObjAddr: 0x8D04, symBinAddr: 0x10000C220, symSize: 0xA0 }
  - { offsetInCU: 0x64AD1, offset: 0x64AD1, size: 0x8, addend: 0x0, symName: __ZNSt3__18_IterOpsINS_17_ClassicAlgPolicyEE11__iter_moveB8ue170006IRNS_16reverse_iteratorIPPN7sc_core15sc_signal_in_ifIjEEEEEENS_9enable_ifIXsr12is_referenceIDTdeclsr3stdE7declvalIRT_EEEEE5valueEDTclsr3stdE4movedeclsr3stdE7declvalISE_EEEEE4typeEOSD_, symObjAddr: 0x8F38, symBinAddr: 0x10000C454, symSize: 0x28 }
  - { offsetInCU: 0x64AFD, offset: 0x64AFD, size: 0x8, addend: 0x0, symName: __ZNKSt3__116reverse_iteratorIPPN7sc_core15sc_signal_in_ifIjEEEdeB8ue170006Ev, symObjAddr: 0x8F60, symBinAddr: 0x10000C47C, symSize: 0x28 }
  - { offsetInCU: 0x64B31, offset: 0x64B31, size: 0x8, addend: 0x0, symName: __ZNSt3__116reverse_iteratorIPPN7sc_core15sc_signal_in_ifIjEEEppB8ue170006Ev, symObjAddr: 0x8F88, symBinAddr: 0x10000C4A4, symSize: 0x20 }
  - { offsetInCU: 0x64B57, offset: 0x64B57, size: 0x8, addend: 0x0, symName: __ZNSt3__18_IterOpsINS_17_ClassicAlgPolicyEE25__validate_iter_referenceB8ue170006IRNS_16reverse_iteratorIPPN7sc_core15sc_signal_in_ifIjEEEEEEvv, symObjAddr: 0x8FA8, symBinAddr: 0x10000C4C4, symSize: 0x4 }
  - { offsetInCU: 0x64B75, offset: 0x64B75, size: 0x8, addend: 0x0, symName: __ZNSt3__118__unwrap_iter_implINS_16reverse_iteratorIPPN7sc_core15sc_signal_in_ifIjEEEELb0EE8__unwrapB8ue170006ES7_, symObjAddr: 0x8FAC, symBinAddr: 0x10000C4C8, symSize: 0x24 }
  - { offsetInCU: 0x64B9E, offset: 0x64B9E, size: 0x8, addend: 0x0, symName: __ZNSt3__14pairINS_16reverse_iteratorIPPN7sc_core15sc_signal_in_ifIjEEEES7_EC1B8ue170006IS7_S7_LPv0EEEOT_OT0_, symObjAddr: 0x8FD0, symBinAddr: 0x10000C4EC, symSize: 0x3C }
  - { offsetInCU: 0x64BFC, offset: 0x64BFC, size: 0x8, addend: 0x0, symName: __ZNSt3__14pairINS_16reverse_iteratorIPPN7sc_core15sc_signal_in_ifIjEEEES7_EC2B8ue170006IS7_S7_LPv0EEEOT_OT0_, symObjAddr: 0x900C, symBinAddr: 0x10000C528, symSize: 0x34 }
  - { offsetInCU: 0x64C5A, offset: 0x64C5A, size: 0x8, addend: 0x0, symName: __ZNSt3__118__unwrap_iter_implINS_16reverse_iteratorIPPN7sc_core15sc_signal_in_ifIjEEEELb0EE8__rewrapB8ue170006ES7_S7_, symObjAddr: 0x9040, symBinAddr: 0x10000C55C, symSize: 0x2C }
  - { offsetInCU: 0x64C88, offset: 0x64C88, size: 0x8, addend: 0x0, symName: __ZNSt3__116reverse_iteratorIPPN7sc_core15sc_signal_in_ifIjEEEC2B8ue170006ES5_, symObjAddr: 0x906C, symBinAddr: 0x10000C588, symSize: 0x28 }
  - { offsetInCU: 0x64CC0, offset: 0x64CC0, size: 0x8, addend: 0x0, symName: __ZNSt3__114__split_bufferIPN7sc_core15sc_signal_in_ifIjEERNS_9allocatorIS4_EEED2Ev, symObjAddr: 0x9094, symBinAddr: 0x10000C5B0, symSize: 0x8C }
  - { offsetInCU: 0x64CEC, offset: 0x64CEC, size: 0x8, addend: 0x0, symName: __ZNSt3__114__split_bufferIPN7sc_core15sc_signal_in_ifIjEERNS_9allocatorIS4_EEE5clearB8ue170006Ev, symObjAddr: 0x9120, symBinAddr: 0x10000C63C, symSize: 0x28 }
  - { offsetInCU: 0x64D12, offset: 0x64D12, size: 0x8, addend: 0x0, symName: __ZNKSt3__114__split_bufferIPN7sc_core15sc_signal_in_ifIjEERNS_9allocatorIS4_EEE8capacityB8ue170006Ev, symObjAddr: 0x9148, symBinAddr: 0x10000C664, symSize: 0x40 }
  - { offsetInCU: 0x64D38, offset: 0x64D38, size: 0x8, addend: 0x0, symName: __ZNSt3__114__split_bufferIPN7sc_core15sc_signal_in_ifIjEERNS_9allocatorIS4_EEE17__destruct_at_endB8ue170006EPS4_, symObjAddr: 0x9188, symBinAddr: 0x10000C6A4, symSize: 0x2C }
  - { offsetInCU: 0x64D6C, offset: 0x64D6C, size: 0x8, addend: 0x0, symName: __ZNSt3__114__split_bufferIPN7sc_core15sc_signal_in_ifIjEERNS_9allocatorIS4_EEE17__destruct_at_endB8ue170006EPS4_NS_17integral_constantIbLb0EEE, symObjAddr: 0x91B4, symBinAddr: 0x10000C6D0, symSize: 0x80 }
  - { offsetInCU: 0x64DAD, offset: 0x64DAD, size: 0x8, addend: 0x0, symName: __ZNKSt3__114__split_bufferIPN7sc_core15sc_signal_in_ifIjEERNS_9allocatorIS4_EEE9__end_capB8ue170006Ev, symObjAddr: 0x9234, symBinAddr: 0x10000C750, symSize: 0x28 }
  - { offsetInCU: 0x64DD3, offset: 0x64DD3, size: 0x8, addend: 0x0, symName: __ZNKSt3__117__compressed_pairIPPN7sc_core15sc_signal_in_ifIjEERNS_9allocatorIS4_EEE5firstB8ue170006Ev, symObjAddr: 0x925C, symBinAddr: 0x10000C778, symSize: 0x24 }
  - { offsetInCU: 0x64DF9, offset: 0x64DF9, size: 0x8, addend: 0x0, symName: __ZNK7sc_core5sc_inIjE13remove_tracesEv, symObjAddr: 0x9280, symBinAddr: 0x10000C79C, symSize: 0xF4 }
  - { offsetInCU: 0x64E3F, offset: 0x64E3F, size: 0x8, addend: 0x0, symName: __ZNKSt3__16vectorIPN7sc_core15sc_signal_in_ifIjEENS_9allocatorIS4_EEEixB8ue170006Em, symObjAddr: 0x9374, symBinAddr: 0x10000C890, symSize: 0x24 }
  - { offsetInCU: 0x64E76, offset: 0x64E76, size: 0x8, addend: 0x0, symName: __ZN7sc_core5sc_inIN5sc_dt5sc_bvILi12EEEEC2Ev, symObjAddr: 0x9398, symBinAddr: 0x10000C8B4, symSize: 0x4C }
  - { offsetInCU: 0x64EA0, offset: 0x64EA0, size: 0x8, addend: 0x0, symName: __ZN7sc_core7sc_portINS_15sc_signal_in_ifIN5sc_dt5sc_bvILi12EEEEELi1ELNS_14sc_port_policyE0EEC2Ev, symObjAddr: 0x93E4, symBinAddr: 0x10000C900, symSize: 0x4C }
  - { offsetInCU: 0x64ECA, offset: 0x64ECA, size: 0x8, addend: 0x0, symName: __ZNK7sc_core5sc_inIN5sc_dt5sc_bvILi12EEEE4kindEv, symObjAddr: 0x9430, symBinAddr: 0x10000C94C, symSize: 0x18 }
  - { offsetInCU: 0x64EF0, offset: 0x64EF0, size: 0x8, addend: 0x0, symName: __ZN7sc_core5sc_inIN5sc_dt5sc_bvILi12EEEED0Ev, symObjAddr: 0x9448, symBinAddr: 0x10000C964, symSize: 0x30 }
  - { offsetInCU: 0x64F1A, offset: 0x64F1A, size: 0x8, addend: 0x0, symName: __ZN7sc_core9sc_port_bINS_15sc_signal_in_ifIN5sc_dt5sc_bvILi12EEEEEE13get_interfaceEv, symObjAddr: 0x9478, symBinAddr: 0x10000C994, symSize: 0x50 }
  - { offsetInCU: 0x64F40, offset: 0x64F40, size: 0x8, addend: 0x0, symName: __ZNK7sc_core9sc_port_bINS_15sc_signal_in_ifIN5sc_dt5sc_bvILi12EEEEEE13get_interfaceEv, symObjAddr: 0x94C8, symBinAddr: 0x10000C9E4, symSize: 0x50 }
  - { offsetInCU: 0x64F66, offset: 0x64F66, size: 0x8, addend: 0x0, symName: __ZNK7sc_core9sc_port_bINS_15sc_signal_in_ifIN5sc_dt5sc_bvILi12EEEEEE18get_interface_typeEv, symObjAddr: 0x9518, symBinAddr: 0x10000CA34, symSize: 0x30 }
  - { offsetInCU: 0x64F8E, offset: 0x64F8E, size: 0x8, addend: 0x0, symName: __ZN7sc_core5sc_inIN5sc_dt5sc_bvILi12EEEE5vbindERNS_12sc_interfaceE, symObjAddr: 0x9548, symBinAddr: 0x10000CA64, symSize: 0x2C }
  - { offsetInCU: 0x64FC5, offset: 0x64FC5, size: 0x8, addend: 0x0, symName: __ZN7sc_core5sc_inIN5sc_dt5sc_bvILi12EEEE5vbindERNS_12sc_port_baseE, symObjAddr: 0x9574, symBinAddr: 0x10000CA90, symSize: 0x128 }
  - { offsetInCU: 0x6501A, offset: 0x6501A, size: 0x8, addend: 0x0, symName: __ZN7sc_core9sc_port_bINS_15sc_signal_in_ifIN5sc_dt5sc_bvILi12EEEEEE13add_interfaceEPNS_12sc_interfaceE, symObjAddr: 0x969C, symBinAddr: 0x10000CBB8, symSize: 0x160 }
  - { offsetInCU: 0x6508D, offset: 0x6508D, size: 0x8, addend: 0x0, symName: __ZNK7sc_core9sc_port_bINS_15sc_signal_in_ifIN5sc_dt5sc_bvILi12EEEEEE15interface_countEv, symObjAddr: 0x97FC, symBinAddr: 0x10000CD18, symSize: 0x24 }
  - { offsetInCU: 0x650B5, offset: 0x650B5, size: 0x8, addend: 0x0, symName: __ZN7sc_core5sc_inIN5sc_dt5sc_bvILi12EEEE18end_of_elaborationEv, symObjAddr: 0x9820, symBinAddr: 0x10000CD3C, symSize: 0x134 }
  - { offsetInCU: 0x65128, offset: 0x65128, size: 0x8, addend: 0x0, symName: __ZNK7sc_core9sc_port_bINS_15sc_signal_in_ifIN5sc_dt5sc_bvILi12EEEEEE14make_sensitiveEPNS_17sc_thread_processEPNS_15sc_event_finderE, symObjAddr: 0x9954, symBinAddr: 0x10000CE70, symSize: 0x114 }
  - { offsetInCU: 0x651C8, offset: 0x651C8, size: 0x8, addend: 0x0, symName: __ZNK7sc_core9sc_port_bINS_15sc_signal_in_ifIN5sc_dt5sc_bvILi12EEEEEE14make_sensitiveEPNS_17sc_method_processEPNS_15sc_event_finderE, symObjAddr: 0x9A68, symBinAddr: 0x10000CF84, symSize: 0x114 }
  - { offsetInCU: 0x65268, offset: 0x65268, size: 0x8, addend: 0x0, symName: __ZN7sc_core5sc_inIN5sc_dt5sc_bvILi12EEEE4bindERNS_9sc_port_bINS_15sc_signal_in_ifIS3_EEEE, symObjAddr: 0x9B7C, symBinAddr: 0x10000D098, symSize: 0x2C }
  - { offsetInCU: 0x6529D, offset: 0x6529D, size: 0x8, addend: 0x0, symName: __ZN7sc_core5sc_inIN5sc_dt5sc_bvILi12EEEE4bindERKNS_15sc_signal_in_ifIS3_EE, symObjAddr: 0x9BA8, symBinAddr: 0x10000D0C4, symSize: 0x38 }
  - { offsetInCU: 0x652D1, offset: 0x652D1, size: 0x8, addend: 0x0, symName: __ZN7sc_core5sc_inIN5sc_dt5sc_bvILi12EEEE4bindERNS_7sc_portINS_15sc_signal_in_ifIS3_EELi1ELNS_14sc_port_policyE0EEE, symObjAddr: 0x9BE0, symBinAddr: 0x10000D0FC, symSize: 0x2C }
  - { offsetInCU: 0x65305, offset: 0x65305, size: 0x8, addend: 0x0, symName: __ZN7sc_core5sc_inIN5sc_dt5sc_bvILi12EEEE4bindERNS_7sc_portINS_18sc_signal_inout_ifIS3_EELi1ELNS_14sc_port_policyE0EEE, symObjAddr: 0x9C0C, symBinAddr: 0x10000D128, symSize: 0x2C }
  - { offsetInCU: 0x65339, offset: 0x65339, size: 0x8, addend: 0x0, symName: __ZN7sc_core9sc_port_bINS_15sc_signal_in_ifIN5sc_dt5sc_bvILi12EEEEEEC2EiNS_14sc_port_policyE, symObjAddr: 0x9C38, symBinAddr: 0x10000D154, symSize: 0x64 }
  - { offsetInCU: 0x65381, offset: 0x65381, size: 0x8, addend: 0x0, symName: __ZNK7sc_core7sc_portINS_15sc_signal_in_ifIN5sc_dt5sc_bvILi12EEEEELi1ELNS_14sc_port_policyE0EE4kindEv, symObjAddr: 0x9C9C, symBinAddr: 0x10000D1B8, symSize: 0x18 }
  - { offsetInCU: 0x653A7, offset: 0x653A7, size: 0x8, addend: 0x0, symName: __ZN7sc_core7sc_portINS_15sc_signal_in_ifIN5sc_dt5sc_bvILi12EEEEELi1ELNS_14sc_port_policyE0EED1Ev, symObjAddr: 0x9CB4, symBinAddr: 0x10000D1D0, symSize: 0x2C }
  - { offsetInCU: 0x653D1, offset: 0x653D1, size: 0x8, addend: 0x0, symName: __ZN7sc_core7sc_portINS_15sc_signal_in_ifIN5sc_dt5sc_bvILi12EEEEELi1ELNS_14sc_port_policyE0EED0Ev, symObjAddr: 0x9CE0, symBinAddr: 0x10000D1FC, symSize: 0x30 }
  - { offsetInCU: 0x653FB, offset: 0x653FB, size: 0x8, addend: 0x0, symName: __ZN7sc_core9sc_port_bINS_15sc_signal_in_ifIN5sc_dt5sc_bvILi12EEEEEE5vbindERNS_12sc_interfaceE, symObjAddr: 0x9D10, symBinAddr: 0x10000D22C, symSize: 0xBC }
  - { offsetInCU: 0x65441, offset: 0x65441, size: 0x8, addend: 0x0, symName: __ZN7sc_core9sc_port_bINS_15sc_signal_in_ifIN5sc_dt5sc_bvILi12EEEEEE5vbindERNS_12sc_port_baseE, symObjAddr: 0x9DCC, symBinAddr: 0x10000D2E8, symSize: 0xB0 }
  - { offsetInCU: 0x65487, offset: 0x65487, size: 0x8, addend: 0x0, symName: __ZN7sc_core9sc_port_bINS_15sc_signal_in_ifIN5sc_dt5sc_bvILi12EEEEEE4bindERS5_, symObjAddr: 0x9E7C, symBinAddr: 0x10000D398, symSize: 0x38 }
  - { offsetInCU: 0x654BC, offset: 0x654BC, size: 0x8, addend: 0x0, symName: __ZN7sc_core9sc_port_bINS_15sc_signal_in_ifIN5sc_dt5sc_bvILi12EEEEEE4bindERS6_, symObjAddr: 0x9EB4, symBinAddr: 0x10000D3D0, symSize: 0x2C }
  - { offsetInCU: 0x654F1, offset: 0x654F1, size: 0x8, addend: 0x0, symName: __ZNSt3__16vectorIPN7sc_core15sc_signal_in_ifIN5sc_dt5sc_bvILi12EEEEENS_9allocatorIS7_EEEC1B8ue170006Ev, symObjAddr: 0x9EE0, symBinAddr: 0x10000D3FC, symSize: 0x2C }
  - { offsetInCU: 0x6551B, offset: 0x6551B, size: 0x8, addend: 0x0, symName: __ZN7sc_core9sc_port_bINS_15sc_signal_in_ifIN5sc_dt5sc_bvILi12EEEEEED1Ev, symObjAddr: 0x9F0C, symBinAddr: 0x10000D428, symSize: 0x2C }
  - { offsetInCU: 0x65545, offset: 0x65545, size: 0x8, addend: 0x0, symName: __ZN7sc_core9sc_port_bINS_15sc_signal_in_ifIN5sc_dt5sc_bvILi12EEEEEED0Ev, symObjAddr: 0x9F38, symBinAddr: 0x10000D454, symSize: 0x30 }
  - { offsetInCU: 0x6556F, offset: 0x6556F, size: 0x8, addend: 0x0, symName: __ZNSt3__16vectorIPN7sc_core15sc_signal_in_ifIN5sc_dt5sc_bvILi12EEEEENS_9allocatorIS7_EEEC2B8ue170006Ev, symObjAddr: 0x9F68, symBinAddr: 0x10000D484, symSize: 0x4C }
  - { offsetInCU: 0x65599, offset: 0x65599, size: 0x8, addend: 0x0, symName: __ZNSt3__117__compressed_pairIPPN7sc_core15sc_signal_in_ifIN5sc_dt5sc_bvILi12EEEEENS_9allocatorIS7_EEEC1B8ue170006IDnNS_18__default_init_tagEEEOT_OT0_, symObjAddr: 0x9FB4, symBinAddr: 0x10000D4D0, symSize: 0x3C }
  - { offsetInCU: 0x655F1, offset: 0x655F1, size: 0x8, addend: 0x0, symName: __ZNSt3__117__compressed_pairIPPN7sc_core15sc_signal_in_ifIN5sc_dt5sc_bvILi12EEEEENS_9allocatorIS7_EEEC2B8ue170006IDnNS_18__default_init_tagEEEOT_OT0_, symObjAddr: 0x9FF0, symBinAddr: 0x10000D50C, symSize: 0x40 }
  - { offsetInCU: 0x65649, offset: 0x65649, size: 0x8, addend: 0x0, symName: __ZNSt3__122__compressed_pair_elemIPPN7sc_core15sc_signal_in_ifIN5sc_dt5sc_bvILi12EEEEELi0ELb0EEC2B8ue170006IDnvEEOT_, symObjAddr: 0xA030, symBinAddr: 0x10000D54C, symSize: 0x1C }
  - { offsetInCU: 0x6568B, offset: 0x6568B, size: 0x8, addend: 0x0, symName: __ZNSt3__122__compressed_pair_elemINS_9allocatorIPN7sc_core15sc_signal_in_ifIN5sc_dt5sc_bvILi12EEEEEEELi1ELb1EEC2B8ue170006ENS_18__default_init_tagE, symObjAddr: 0xA04C, symBinAddr: 0x10000D568, symSize: 0x2C }
  - { offsetInCU: 0x656C0, offset: 0x656C0, size: 0x8, addend: 0x0, symName: __ZNSt3__19allocatorIPN7sc_core15sc_signal_in_ifIN5sc_dt5sc_bvILi12EEEEEEC2B8ue170006Ev, symObjAddr: 0xA078, symBinAddr: 0x10000D594, symSize: 0x2C }
  - { offsetInCU: 0x656EA, offset: 0x656EA, size: 0x8, addend: 0x0, symName: __ZNSt3__116__non_trivial_ifILb1ENS_9allocatorIPN7sc_core15sc_signal_in_ifIN5sc_dt5sc_bvILi12EEEEEEEEC2B8ue170006Ev, symObjAddr: 0xA0A4, symBinAddr: 0x10000D5C0, symSize: 0x14 }
  - { offsetInCU: 0x65714, offset: 0x65714, size: 0x8, addend: 0x0, symName: __ZN7sc_core9sc_port_bINS_15sc_signal_in_ifIN5sc_dt5sc_bvILi12EEEEEED2Ev, symObjAddr: 0xA0B8, symBinAddr: 0x10000D5D4, symSize: 0x48 }
  - { offsetInCU: 0x6573E, offset: 0x6573E, size: 0x8, addend: 0x0, symName: __ZNSt3__16vectorIPN7sc_core15sc_signal_in_ifIN5sc_dt5sc_bvILi12EEEEENS_9allocatorIS7_EEED1B8ue170006Ev, symObjAddr: 0xA100, symBinAddr: 0x10000D61C, symSize: 0x2C }
  - { offsetInCU: 0x65768, offset: 0x65768, size: 0x8, addend: 0x0, symName: __ZNSt3__16vectorIPN7sc_core15sc_signal_in_ifIN5sc_dt5sc_bvILi12EEEEENS_9allocatorIS7_EEED2B8ue170006Ev, symObjAddr: 0xA12C, symBinAddr: 0x10000D648, symSize: 0x44 }
  - { offsetInCU: 0x65792, offset: 0x65792, size: 0x8, addend: 0x0, symName: __ZNSt3__16vectorIPN7sc_core15sc_signal_in_ifIN5sc_dt5sc_bvILi12EEEEENS_9allocatorIS7_EEE16__destroy_vectorC1B8ue170006ERSA_, symObjAddr: 0xA170, symBinAddr: 0x10000D68C, symSize: 0x34 }
  - { offsetInCU: 0x657CB, offset: 0x657CB, size: 0x8, addend: 0x0, symName: __ZNSt3__16vectorIPN7sc_core15sc_signal_in_ifIN5sc_dt5sc_bvILi12EEEEENS_9allocatorIS7_EEE16__destroy_vectorclB8ue170006Ev, symObjAddr: 0xA1A4, symBinAddr: 0x10000D6C0, symSize: 0x90 }
  - { offsetInCU: 0x657F1, offset: 0x657F1, size: 0x8, addend: 0x0, symName: __ZNSt3__16vectorIPN7sc_core15sc_signal_in_ifIN5sc_dt5sc_bvILi12EEEEENS_9allocatorIS7_EEE16__destroy_vectorC2B8ue170006ERSA_, symObjAddr: 0xA234, symBinAddr: 0x10000D750, symSize: 0x20 }
  - { offsetInCU: 0x6582A, offset: 0x6582A, size: 0x8, addend: 0x0, symName: __ZNSt3__16vectorIPN7sc_core15sc_signal_in_ifIN5sc_dt5sc_bvILi12EEEEENS_9allocatorIS7_EEE7__clearB8ue170006Ev, symObjAddr: 0xA254, symBinAddr: 0x10000D770, symSize: 0x28 }
  - { offsetInCU: 0x65850, offset: 0x65850, size: 0x8, addend: 0x0, symName: __ZNKSt3__16vectorIPN7sc_core15sc_signal_in_ifIN5sc_dt5sc_bvILi12EEEEENS_9allocatorIS7_EEE17__annotate_deleteB8ue170006Ev, symObjAddr: 0xA27C, symBinAddr: 0x10000D798, symSize: 0xB8 }
  - { offsetInCU: 0x65876, offset: 0x65876, size: 0x8, addend: 0x0, symName: __ZNSt3__116allocator_traitsINS_9allocatorIPN7sc_core15sc_signal_in_ifIN5sc_dt5sc_bvILi12EEEEEEEE10deallocateB8ue170006ERS9_PS8_m, symObjAddr: 0xA334, symBinAddr: 0x10000D850, symSize: 0x34 }
  - { offsetInCU: 0x658B8, offset: 0x658B8, size: 0x8, addend: 0x0, symName: __ZNSt3__16vectorIPN7sc_core15sc_signal_in_ifIN5sc_dt5sc_bvILi12EEEEENS_9allocatorIS7_EEE7__allocB8ue170006Ev, symObjAddr: 0xA368, symBinAddr: 0x10000D884, symSize: 0x28 }
  - { offsetInCU: 0x658DE, offset: 0x658DE, size: 0x8, addend: 0x0, symName: __ZNKSt3__16vectorIPN7sc_core15sc_signal_in_ifIN5sc_dt5sc_bvILi12EEEEENS_9allocatorIS7_EEE8capacityB8ue170006Ev, symObjAddr: 0xA390, symBinAddr: 0x10000D8AC, symSize: 0x40 }
  - { offsetInCU: 0x65904, offset: 0x65904, size: 0x8, addend: 0x0, symName: __ZNSt3__16vectorIPN7sc_core15sc_signal_in_ifIN5sc_dt5sc_bvILi12EEEEENS_9allocatorIS7_EEE22__base_destruct_at_endB8ue170006EPS7_, symObjAddr: 0xA3D0, symBinAddr: 0x10000D8EC, symSize: 0x8C }
  - { offsetInCU: 0x65948, offset: 0x65948, size: 0x8, addend: 0x0, symName: __ZNSt3__116allocator_traitsINS_9allocatorIPN7sc_core15sc_signal_in_ifIN5sc_dt5sc_bvILi12EEEEEEEE7destroyB8ue170006IS8_vEEvRS9_PT_, symObjAddr: 0xA45C, symBinAddr: 0x10000D978, symSize: 0x2C }
  - { offsetInCU: 0x65985, offset: 0x65985, size: 0x8, addend: 0x0, symName: __ZNSt3__19allocatorIPN7sc_core15sc_signal_in_ifIN5sc_dt5sc_bvILi12EEEEEE7destroyB8ue170006EPS7_, symObjAddr: 0xA49C, symBinAddr: 0x10000D9B8, symSize: 0x14 }
  - { offsetInCU: 0x659B9, offset: 0x659B9, size: 0x8, addend: 0x0, symName: __ZNKSt3__16vectorIPN7sc_core15sc_signal_in_ifIN5sc_dt5sc_bvILi12EEEEENS_9allocatorIS7_EEE31__annotate_contiguous_containerB8ue170006EPKvSC_SC_SC_, symObjAddr: 0xA4B0, symBinAddr: 0x10000D9CC, symSize: 0x20 }
  - { offsetInCU: 0x65A0F, offset: 0x65A0F, size: 0x8, addend: 0x0, symName: __ZNKSt3__16vectorIPN7sc_core15sc_signal_in_ifIN5sc_dt5sc_bvILi12EEEEENS_9allocatorIS7_EEE4dataB8ue170006Ev, symObjAddr: 0xA4D0, symBinAddr: 0x10000D9EC, symSize: 0x28 }
  - { offsetInCU: 0x65A35, offset: 0x65A35, size: 0x8, addend: 0x0, symName: __ZNKSt3__16vectorIPN7sc_core15sc_signal_in_ifIN5sc_dt5sc_bvILi12EEEEENS_9allocatorIS7_EEE4sizeB8ue170006Ev, symObjAddr: 0xA4F8, symBinAddr: 0x10000DA14, symSize: 0x28 }
  - { offsetInCU: 0x65A5B, offset: 0x65A5B, size: 0x8, addend: 0x0, symName: __ZNSt3__19allocatorIPN7sc_core15sc_signal_in_ifIN5sc_dt5sc_bvILi12EEEEEE10deallocateB8ue170006EPS7_m, symObjAddr: 0xA520, symBinAddr: 0x10000DA3C, symSize: 0x40 }
  - { offsetInCU: 0x65A9D, offset: 0x65A9D, size: 0x8, addend: 0x0, symName: __ZNSt3__117__compressed_pairIPPN7sc_core15sc_signal_in_ifIN5sc_dt5sc_bvILi12EEEEENS_9allocatorIS7_EEE6secondB8ue170006Ev, symObjAddr: 0xA560, symBinAddr: 0x10000DA7C, symSize: 0x24 }
  - { offsetInCU: 0x65AC3, offset: 0x65AC3, size: 0x8, addend: 0x0, symName: __ZNSt3__122__compressed_pair_elemINS_9allocatorIPN7sc_core15sc_signal_in_ifIN5sc_dt5sc_bvILi12EEEEEEELi1ELb1EE5__getB8ue170006Ev, symObjAddr: 0xA584, symBinAddr: 0x10000DAA0, symSize: 0x14 }
  - { offsetInCU: 0x65AE9, offset: 0x65AE9, size: 0x8, addend: 0x0, symName: __ZNKSt3__16vectorIPN7sc_core15sc_signal_in_ifIN5sc_dt5sc_bvILi12EEEEENS_9allocatorIS7_EEE9__end_capB8ue170006Ev, symObjAddr: 0xA598, symBinAddr: 0x10000DAB4, symSize: 0x28 }
  - { offsetInCU: 0x65B0F, offset: 0x65B0F, size: 0x8, addend: 0x0, symName: __ZNKSt3__117__compressed_pairIPPN7sc_core15sc_signal_in_ifIN5sc_dt5sc_bvILi12EEEEENS_9allocatorIS7_EEE5firstB8ue170006Ev, symObjAddr: 0xA5C0, symBinAddr: 0x10000DADC, symSize: 0x24 }
  - { offsetInCU: 0x65B35, offset: 0x65B35, size: 0x8, addend: 0x0, symName: __ZNKSt3__122__compressed_pair_elemIPPN7sc_core15sc_signal_in_ifIN5sc_dt5sc_bvILi12EEEEELi0ELb0EE5__getB8ue170006Ev, symObjAddr: 0xA5E4, symBinAddr: 0x10000DB00, symSize: 0x14 }
  - { offsetInCU: 0x65B5B, offset: 0x65B5B, size: 0x8, addend: 0x0, symName: __ZN7sc_core7sc_portINS_15sc_signal_in_ifIN5sc_dt5sc_bvILi12EEEEELi1ELNS_14sc_port_policyE0EED2Ev, symObjAddr: 0xA5F8, symBinAddr: 0x10000DB14, symSize: 0x2C }
  - { offsetInCU: 0x65B85, offset: 0x65B85, size: 0x8, addend: 0x0, symName: __ZNK7sc_core9sc_port_bINS_15sc_signal_in_ifIN5sc_dt5sc_bvILi12EEEEEE4sizeEv, symObjAddr: 0xA624, symBinAddr: 0x10000DB40, symSize: 0x28 }
  - { offsetInCU: 0x65BAB, offset: 0x65BAB, size: 0x8, addend: 0x0, symName: __ZNSt3__16vectorIPN7sc_core15sc_signal_in_ifIN5sc_dt5sc_bvILi12EEEEENS_9allocatorIS7_EEEixB8ue170006Em, symObjAddr: 0xA64C, symBinAddr: 0x10000DB68, symSize: 0x24 }
  - { offsetInCU: 0x65BE2, offset: 0x65BE2, size: 0x8, addend: 0x0, symName: __ZNSt3__16vectorIPN7sc_core15sc_signal_in_ifIN5sc_dt5sc_bvILi12EEEEENS_9allocatorIS7_EEE9push_backB8ue170006ERKS7_, symObjAddr: 0xA670, symBinAddr: 0x10000DB8C, symSize: 0x6C }
  - { offsetInCU: 0x65C19, offset: 0x65C19, size: 0x8, addend: 0x0, symName: __ZNSt3__16vectorIPN7sc_core15sc_signal_in_ifIN5sc_dt5sc_bvILi12EEEEENS_9allocatorIS7_EEE9__end_capB8ue170006Ev, symObjAddr: 0xA6DC, symBinAddr: 0x10000DBF8, symSize: 0x28 }
  - { offsetInCU: 0x65C3F, offset: 0x65C3F, size: 0x8, addend: 0x0, symName: __ZNSt3__16vectorIPN7sc_core15sc_signal_in_ifIN5sc_dt5sc_bvILi12EEEEENS_9allocatorIS7_EEE22__construct_one_at_endB8ue170006IJRKS7_EEEvDpOT_, symObjAddr: 0xA704, symBinAddr: 0x10000DC20, symSize: 0x90 }
  - { offsetInCU: 0x65C8E, offset: 0x65C8E, size: 0x8, addend: 0x0, symName: __ZNSt3__16vectorIPN7sc_core15sc_signal_in_ifIN5sc_dt5sc_bvILi12EEEEENS_9allocatorIS7_EEE21__push_back_slow_pathIRKS7_EEvOT_, symObjAddr: 0xA794, symBinAddr: 0x10000DCB0, symSize: 0xD8 }
  - { offsetInCU: 0x65CEC, offset: 0x65CEC, size: 0x8, addend: 0x0, symName: __ZNSt3__117__compressed_pairIPPN7sc_core15sc_signal_in_ifIN5sc_dt5sc_bvILi12EEEEENS_9allocatorIS7_EEE5firstB8ue170006Ev, symObjAddr: 0xA86C, symBinAddr: 0x10000DD88, symSize: 0x24 }
  - { offsetInCU: 0x65D12, offset: 0x65D12, size: 0x8, addend: 0x0, symName: __ZNSt3__122__compressed_pair_elemIPPN7sc_core15sc_signal_in_ifIN5sc_dt5sc_bvILi12EEEEELi0ELb0EE5__getB8ue170006Ev, symObjAddr: 0xA890, symBinAddr: 0x10000DDAC, symSize: 0x14 }
  - { offsetInCU: 0x65D53, offset: 0x65D53, size: 0x8, addend: 0x0, symName: __ZNSt3__16vectorIPN7sc_core15sc_signal_in_ifIN5sc_dt5sc_bvILi12EEEEENS_9allocatorIS7_EEE21_ConstructTransactionC1B8ue170006ERSA_m, symObjAddr: 0xA8A4, symBinAddr: 0x10000DDC0, symSize: 0x3C }
  - { offsetInCU: 0x65D9B, offset: 0x65D9B, size: 0x8, addend: 0x0, symName: __ZNSt3__116allocator_traitsINS_9allocatorIPN7sc_core15sc_signal_in_ifIN5sc_dt5sc_bvILi12EEEEEEEE9constructB8ue170006IS8_JRKS8_EvEEvRS9_PT_DpOT0_, symObjAddr: 0xA8E0, symBinAddr: 0x10000DDFC, symSize: 0x34 }
  - { offsetInCU: 0x65DF2, offset: 0x65DF2, size: 0x8, addend: 0x0, symName: __ZNSt3__16vectorIPN7sc_core15sc_signal_in_ifIN5sc_dt5sc_bvILi12EEEEENS_9allocatorIS7_EEE21_ConstructTransactionD1B8ue170006Ev, symObjAddr: 0xA914, symBinAddr: 0x10000DE30, symSize: 0x2C }
  - { offsetInCU: 0x65E1C, offset: 0x65E1C, size: 0x8, addend: 0x0, symName: __ZNSt3__16vectorIPN7sc_core15sc_signal_in_ifIN5sc_dt5sc_bvILi12EEEEENS_9allocatorIS7_EEE21_ConstructTransactionC2B8ue170006ERSA_m, symObjAddr: 0xA940, symBinAddr: 0x10000DE5C, symSize: 0x44 }
  - { offsetInCU: 0x65E64, offset: 0x65E64, size: 0x8, addend: 0x0, symName: __ZNSt3__19allocatorIPN7sc_core15sc_signal_in_ifIN5sc_dt5sc_bvILi12EEEEEE9constructB8ue170006IS7_JRKS7_EEEvPT_DpOT0_, symObjAddr: 0xA984, symBinAddr: 0x10000DEA0, symSize: 0x28 }
  - { offsetInCU: 0x65EBA, offset: 0x65EBA, size: 0x8, addend: 0x0, symName: __ZNSt3__16vectorIPN7sc_core15sc_signal_in_ifIN5sc_dt5sc_bvILi12EEEEENS_9allocatorIS7_EEE21_ConstructTransactionD2B8ue170006Ev, symObjAddr: 0xA9AC, symBinAddr: 0x10000DEC8, symSize: 0x20 }
  - { offsetInCU: 0x65EE4, offset: 0x65EE4, size: 0x8, addend: 0x0, symName: __ZNKSt3__16vectorIPN7sc_core15sc_signal_in_ifIN5sc_dt5sc_bvILi12EEEEENS_9allocatorIS7_EEE11__recommendB8ue170006Em, symObjAddr: 0xA9CC, symBinAddr: 0x10000DEE8, symSize: 0xB4 }
  - { offsetInCU: 0x65F39, offset: 0x65F39, size: 0x8, addend: 0x0, symName: __ZNSt3__114__split_bufferIPN7sc_core15sc_signal_in_ifIN5sc_dt5sc_bvILi12EEEEERNS_9allocatorIS7_EEEC1EmmSA_, symObjAddr: 0xAA80, symBinAddr: 0x10000DF9C, symSize: 0x44 }
  - { offsetInCU: 0x65F8F, offset: 0x65F8F, size: 0x8, addend: 0x0, symName: __ZNSt3__114__split_bufferIPN7sc_core15sc_signal_in_ifIN5sc_dt5sc_bvILi12EEEEERNS_9allocatorIS7_EEED1Ev, symObjAddr: 0xABD4, symBinAddr: 0x10000E0F0, symSize: 0x2C }
  - { offsetInCU: 0x65FBB, offset: 0x65FBB, size: 0x8, addend: 0x0, symName: __ZNKSt3__16vectorIPN7sc_core15sc_signal_in_ifIN5sc_dt5sc_bvILi12EEEEENS_9allocatorIS7_EEE8max_sizeEv, symObjAddr: 0xAC00, symBinAddr: 0x10000E11C, symSize: 0x60 }
  - { offsetInCU: 0x65FE3, offset: 0x65FE3, size: 0x8, addend: 0x0, symName: __ZNKSt3__16vectorIPN7sc_core15sc_signal_in_ifIN5sc_dt5sc_bvILi12EEEEENS_9allocatorIS7_EEE20__throw_length_errorB8ue170006Ev, symObjAddr: 0xAC60, symBinAddr: 0x10000E17C, symSize: 0x1C }
  - { offsetInCU: 0x66014, offset: 0x66014, size: 0x8, addend: 0x0, symName: __ZNSt3__116allocator_traitsINS_9allocatorIPN7sc_core15sc_signal_in_ifIN5sc_dt5sc_bvILi12EEEEEEEE8max_sizeB8ue170006IS9_vEEmRKS9_, symObjAddr: 0xAC7C, symBinAddr: 0x10000E198, symSize: 0x24 }
  - { offsetInCU: 0x66042, offset: 0x66042, size: 0x8, addend: 0x0, symName: __ZNKSt3__16vectorIPN7sc_core15sc_signal_in_ifIN5sc_dt5sc_bvILi12EEEEENS_9allocatorIS7_EEE7__allocB8ue170006Ev, symObjAddr: 0xACA0, symBinAddr: 0x10000E1BC, symSize: 0x28 }
  - { offsetInCU: 0x66068, offset: 0x66068, size: 0x8, addend: 0x0, symName: __ZNKSt3__19allocatorIPN7sc_core15sc_signal_in_ifIN5sc_dt5sc_bvILi12EEEEEE8max_sizeB8ue170006Ev, symObjAddr: 0xACC8, symBinAddr: 0x10000E1E4, symSize: 0x14 }
  - { offsetInCU: 0x6608E, offset: 0x6608E, size: 0x8, addend: 0x0, symName: __ZNKSt3__117__compressed_pairIPPN7sc_core15sc_signal_in_ifIN5sc_dt5sc_bvILi12EEEEENS_9allocatorIS7_EEE6secondB8ue170006Ev, symObjAddr: 0xACDC, symBinAddr: 0x10000E1F8, symSize: 0x24 }
  - { offsetInCU: 0x660B4, offset: 0x660B4, size: 0x8, addend: 0x0, symName: __ZNKSt3__122__compressed_pair_elemINS_9allocatorIPN7sc_core15sc_signal_in_ifIN5sc_dt5sc_bvILi12EEEEEEELi1ELb1EE5__getB8ue170006Ev, symObjAddr: 0xAD00, symBinAddr: 0x10000E21C, symSize: 0x14 }
  - { offsetInCU: 0x660DA, offset: 0x660DA, size: 0x8, addend: 0x0, symName: __ZNSt3__114__split_bufferIPN7sc_core15sc_signal_in_ifIN5sc_dt5sc_bvILi12EEEEERNS_9allocatorIS7_EEEC2EmmSA_, symObjAddr: 0xAD14, symBinAddr: 0x10000E230, symSize: 0xD4 }
  - { offsetInCU: 0x6614E, offset: 0x6614E, size: 0x8, addend: 0x0, symName: __ZNSt3__117__compressed_pairIPPN7sc_core15sc_signal_in_ifIN5sc_dt5sc_bvILi12EEEEERNS_9allocatorIS7_EEEC1B8ue170006IDnSB_EEOT_OT0_, symObjAddr: 0xADE8, symBinAddr: 0x10000E304, symSize: 0x3C }
  - { offsetInCU: 0x661A6, offset: 0x661A6, size: 0x8, addend: 0x0, symName: __ZNSt3__114__split_bufferIPN7sc_core15sc_signal_in_ifIN5sc_dt5sc_bvILi12EEEEERNS_9allocatorIS7_EEE7__allocB8ue170006Ev, symObjAddr: 0xAE64, symBinAddr: 0x10000E380, symSize: 0x28 }
  - { offsetInCU: 0x661CC, offset: 0x661CC, size: 0x8, addend: 0x0, symName: __ZNSt3__114__split_bufferIPN7sc_core15sc_signal_in_ifIN5sc_dt5sc_bvILi12EEEEERNS_9allocatorIS7_EEE9__end_capB8ue170006Ev, symObjAddr: 0xAE8C, symBinAddr: 0x10000E3A8, symSize: 0x28 }
  - { offsetInCU: 0x661F2, offset: 0x661F2, size: 0x8, addend: 0x0, symName: __ZNSt3__117__compressed_pairIPPN7sc_core15sc_signal_in_ifIN5sc_dt5sc_bvILi12EEEEERNS_9allocatorIS7_EEEC2B8ue170006IDnSB_EEOT_OT0_, symObjAddr: 0xAEB4, symBinAddr: 0x10000E3D0, symSize: 0x48 }
  - { offsetInCU: 0x6624A, offset: 0x6624A, size: 0x8, addend: 0x0, symName: __ZNSt3__122__compressed_pair_elemIRNS_9allocatorIPN7sc_core15sc_signal_in_ifIN5sc_dt5sc_bvILi12EEEEEEELi1ELb0EEC2B8ue170006ISA_vEEOT_, symObjAddr: 0xAEFC, symBinAddr: 0x10000E418, symSize: 0x20 }
  - { offsetInCU: 0x6628C, offset: 0x6628C, size: 0x8, addend: 0x0, symName: __ZNSt3__19allocatorIPN7sc_core15sc_signal_in_ifIN5sc_dt5sc_bvILi12EEEEEE8allocateB8ue170006Em, symObjAddr: 0xAF1C, symBinAddr: 0x10000E438, symSize: 0x58 }
  - { offsetInCU: 0x662C0, offset: 0x662C0, size: 0x8, addend: 0x0, symName: __ZNSt3__117__compressed_pairIPPN7sc_core15sc_signal_in_ifIN5sc_dt5sc_bvILi12EEEEERNS_9allocatorIS7_EEE6secondB8ue170006Ev, symObjAddr: 0xAF74, symBinAddr: 0x10000E490, symSize: 0x28 }
  - { offsetInCU: 0x662E6, offset: 0x662E6, size: 0x8, addend: 0x0, symName: __ZNSt3__122__compressed_pair_elemIRNS_9allocatorIPN7sc_core15sc_signal_in_ifIN5sc_dt5sc_bvILi12EEEEEEELi1ELb0EE5__getB8ue170006Ev, symObjAddr: 0xAF9C, symBinAddr: 0x10000E4B8, symSize: 0x18 }
  - { offsetInCU: 0x6630C, offset: 0x6630C, size: 0x8, addend: 0x0, symName: __ZNSt3__117__compressed_pairIPPN7sc_core15sc_signal_in_ifIN5sc_dt5sc_bvILi12EEEEERNS_9allocatorIS7_EEE5firstB8ue170006Ev, symObjAddr: 0xAFB4, symBinAddr: 0x10000E4D0, symSize: 0x24 }
  - { offsetInCU: 0x66332, offset: 0x66332, size: 0x8, addend: 0x0, symName: __ZNSt3__116reverse_iteratorIPPN7sc_core15sc_signal_in_ifIN5sc_dt5sc_bvILi12EEEEEEC1B8ue170006ES8_, symObjAddr: 0xB050, symBinAddr: 0x10000E56C, symSize: 0x34 }
  - { offsetInCU: 0x6636A, offset: 0x6636A, size: 0x8, addend: 0x0, symName: __ZNKSt3__116reverse_iteratorIPPN7sc_core15sc_signal_in_ifIN5sc_dt5sc_bvILi12EEEEEE4baseB8ue170006Ev, symObjAddr: 0xB084, symBinAddr: 0x10000E5A0, symSize: 0x18 }
  - { offsetInCU: 0x66390, offset: 0x66390, size: 0x8, addend: 0x0, symName: __ZNKSt3__16vectorIPN7sc_core15sc_signal_in_ifIN5sc_dt5sc_bvILi12EEEEENS_9allocatorIS7_EEE14__annotate_newB8ue170006Em, symObjAddr: 0xB0D8, symBinAddr: 0x10000E5F4, symSize: 0xAC }
  - { offsetInCU: 0x663E1, offset: 0x663E1, size: 0x8, addend: 0x0, symName: __ZNKSt3__111__move_loopINS_17_ClassicAlgPolicyEEclB8ue170006INS_16reverse_iteratorIPPN7sc_core15sc_signal_in_ifIN5sc_dt5sc_bvILi12EEEEEEESD_SD_EENS_4pairIT_T1_EESF_T0_SG_, symObjAddr: 0xB474, symBinAddr: 0x10000E990, symSize: 0xA0 }
  - { offsetInCU: 0x66452, offset: 0x66452, size: 0x8, addend: 0x0, symName: __ZNSt3__18_IterOpsINS_17_ClassicAlgPolicyEE11__iter_moveB8ue170006IRNS_16reverse_iteratorIPPN7sc_core15sc_signal_in_ifIN5sc_dt5sc_bvILi12EEEEEEEEENS_9enable_ifIXsr12is_referenceIDTdeclsr3stdE7declvalIRT_EEEEE5valueEDTclsr3stdE4movedeclsr3stdE7declvalISH_EEEEE4typeEOSG_, symObjAddr: 0xB6A8, symBinAddr: 0x10000EBC4, symSize: 0x28 }
  - { offsetInCU: 0x6647E, offset: 0x6647E, size: 0x8, addend: 0x0, symName: __ZNKSt3__116reverse_iteratorIPPN7sc_core15sc_signal_in_ifIN5sc_dt5sc_bvILi12EEEEEEdeB8ue170006Ev, symObjAddr: 0xB6D0, symBinAddr: 0x10000EBEC, symSize: 0x28 }
  - { offsetInCU: 0x664B2, offset: 0x664B2, size: 0x8, addend: 0x0, symName: __ZNSt3__116reverse_iteratorIPPN7sc_core15sc_signal_in_ifIN5sc_dt5sc_bvILi12EEEEEEppB8ue170006Ev, symObjAddr: 0xB6F8, symBinAddr: 0x10000EC14, symSize: 0x20 }
  - { offsetInCU: 0x664D8, offset: 0x664D8, size: 0x8, addend: 0x0, symName: __ZNSt3__18_IterOpsINS_17_ClassicAlgPolicyEE25__validate_iter_referenceB8ue170006IRNS_16reverse_iteratorIPPN7sc_core15sc_signal_in_ifIN5sc_dt5sc_bvILi12EEEEEEEEEvv, symObjAddr: 0xB718, symBinAddr: 0x10000EC34, symSize: 0x4 }
  - { offsetInCU: 0x664F6, offset: 0x664F6, size: 0x8, addend: 0x0, symName: __ZNSt3__118__unwrap_iter_implINS_16reverse_iteratorIPPN7sc_core15sc_signal_in_ifIN5sc_dt5sc_bvILi12EEEEEEELb0EE8__unwrapB8ue170006ESA_, symObjAddr: 0xB71C, symBinAddr: 0x10000EC38, symSize: 0x24 }
  - { offsetInCU: 0x6651F, offset: 0x6651F, size: 0x8, addend: 0x0, symName: __ZNSt3__14pairINS_16reverse_iteratorIPPN7sc_core15sc_signal_in_ifIN5sc_dt5sc_bvILi12EEEEEEESA_EC1B8ue170006ISA_SA_LPv0EEEOT_OT0_, symObjAddr: 0xB740, symBinAddr: 0x10000EC5C, symSize: 0x3C }
  - { offsetInCU: 0x6657D, offset: 0x6657D, size: 0x8, addend: 0x0, symName: __ZNSt3__14pairINS_16reverse_iteratorIPPN7sc_core15sc_signal_in_ifIN5sc_dt5sc_bvILi12EEEEEEESA_EC2B8ue170006ISA_SA_LPv0EEEOT_OT0_, symObjAddr: 0xB77C, symBinAddr: 0x10000EC98, symSize: 0x34 }
  - { offsetInCU: 0x665DB, offset: 0x665DB, size: 0x8, addend: 0x0, symName: __ZNSt3__118__unwrap_iter_implINS_16reverse_iteratorIPPN7sc_core15sc_signal_in_ifIN5sc_dt5sc_bvILi12EEEEEEELb0EE8__rewrapB8ue170006ESA_SA_, symObjAddr: 0xB7B0, symBinAddr: 0x10000ECCC, symSize: 0x2C }
  - { offsetInCU: 0x66609, offset: 0x66609, size: 0x8, addend: 0x0, symName: __ZNSt3__116reverse_iteratorIPPN7sc_core15sc_signal_in_ifIN5sc_dt5sc_bvILi12EEEEEEC2B8ue170006ES8_, symObjAddr: 0xB7DC, symBinAddr: 0x10000ECF8, symSize: 0x28 }
  - { offsetInCU: 0x66641, offset: 0x66641, size: 0x8, addend: 0x0, symName: __ZNSt3__114__split_bufferIPN7sc_core15sc_signal_in_ifIN5sc_dt5sc_bvILi12EEEEERNS_9allocatorIS7_EEED2Ev, symObjAddr: 0xB804, symBinAddr: 0x10000ED20, symSize: 0x8C }
  - { offsetInCU: 0x6666D, offset: 0x6666D, size: 0x8, addend: 0x0, symName: __ZNSt3__114__split_bufferIPN7sc_core15sc_signal_in_ifIN5sc_dt5sc_bvILi12EEEEERNS_9allocatorIS7_EEE5clearB8ue170006Ev, symObjAddr: 0xB890, symBinAddr: 0x10000EDAC, symSize: 0x28 }
  - { offsetInCU: 0x66693, offset: 0x66693, size: 0x8, addend: 0x0, symName: __ZNKSt3__114__split_bufferIPN7sc_core15sc_signal_in_ifIN5sc_dt5sc_bvILi12EEEEERNS_9allocatorIS7_EEE8capacityB8ue170006Ev, symObjAddr: 0xB8B8, symBinAddr: 0x10000EDD4, symSize: 0x40 }
  - { offsetInCU: 0x666B9, offset: 0x666B9, size: 0x8, addend: 0x0, symName: __ZNSt3__114__split_bufferIPN7sc_core15sc_signal_in_ifIN5sc_dt5sc_bvILi12EEEEERNS_9allocatorIS7_EEE17__destruct_at_endB8ue170006EPS7_, symObjAddr: 0xB8F8, symBinAddr: 0x10000EE14, symSize: 0x2C }
  - { offsetInCU: 0x666ED, offset: 0x666ED, size: 0x8, addend: 0x0, symName: __ZNSt3__114__split_bufferIPN7sc_core15sc_signal_in_ifIN5sc_dt5sc_bvILi12EEEEERNS_9allocatorIS7_EEE17__destruct_at_endB8ue170006EPS7_NS_17integral_constantIbLb0EEE, symObjAddr: 0xB924, symBinAddr: 0x10000EE40, symSize: 0x80 }
  - { offsetInCU: 0x6672E, offset: 0x6672E, size: 0x8, addend: 0x0, symName: __ZNKSt3__114__split_bufferIPN7sc_core15sc_signal_in_ifIN5sc_dt5sc_bvILi12EEEEERNS_9allocatorIS7_EEE9__end_capB8ue170006Ev, symObjAddr: 0xB9A4, symBinAddr: 0x10000EEC0, symSize: 0x28 }
  - { offsetInCU: 0x66754, offset: 0x66754, size: 0x8, addend: 0x0, symName: __ZNKSt3__117__compressed_pairIPPN7sc_core15sc_signal_in_ifIN5sc_dt5sc_bvILi12EEEEERNS_9allocatorIS7_EEE5firstB8ue170006Ev, symObjAddr: 0xB9CC, symBinAddr: 0x10000EEE8, symSize: 0x24 }
  - { offsetInCU: 0x6677A, offset: 0x6677A, size: 0x8, addend: 0x0, symName: __ZNK7sc_core5sc_inIN5sc_dt5sc_bvILi12EEEE13remove_tracesEv, symObjAddr: 0xB9F0, symBinAddr: 0x10000EF0C, symSize: 0xF4 }
  - { offsetInCU: 0x667C0, offset: 0x667C0, size: 0x8, addend: 0x0, symName: __ZNKSt3__16vectorIPN7sc_core15sc_signal_in_ifIN5sc_dt5sc_bvILi12EEEEENS_9allocatorIS7_EEEixB8ue170006Em, symObjAddr: 0xBAE4, symBinAddr: 0x10000F000, symSize: 0x24 }
  - { offsetInCU: 0x667F7, offset: 0x667F7, size: 0x8, addend: 0x0, symName: __ZN7sc_core6sc_outIjEC2Ev, symObjAddr: 0xBB08, symBinAddr: 0x10000F024, symSize: 0x44 }
  - { offsetInCU: 0x66821, offset: 0x66821, size: 0x8, addend: 0x0, symName: __ZN7sc_core8sc_inoutIjEC2Ev, symObjAddr: 0xBB4C, symBinAddr: 0x10000F068, symSize: 0x50 }
  - { offsetInCU: 0x6684B, offset: 0x6684B, size: 0x8, addend: 0x0, symName: __ZNK7sc_core6sc_outIjE4kindEv, symObjAddr: 0xBB9C, symBinAddr: 0x10000F0B8, symSize: 0x18 }
  - { offsetInCU: 0x66871, offset: 0x66871, size: 0x8, addend: 0x0, symName: __ZN7sc_core6sc_outIjED0Ev, symObjAddr: 0xBBB4, symBinAddr: 0x10000F0D0, symSize: 0x30 }
  - { offsetInCU: 0x6689B, offset: 0x6689B, size: 0x8, addend: 0x0, symName: __ZN7sc_core9sc_port_bINS_18sc_signal_inout_ifIjEEE13get_interfaceEv, symObjAddr: 0xBBE4, symBinAddr: 0x10000F100, symSize: 0x50 }
  - { offsetInCU: 0x668C1, offset: 0x668C1, size: 0x8, addend: 0x0, symName: __ZNK7sc_core9sc_port_bINS_18sc_signal_inout_ifIjEEE13get_interfaceEv, symObjAddr: 0xBC34, symBinAddr: 0x10000F150, symSize: 0x50 }
  - { offsetInCU: 0x668E7, offset: 0x668E7, size: 0x8, addend: 0x0, symName: __ZNK7sc_core9sc_port_bINS_18sc_signal_inout_ifIjEEE18get_interface_typeEv, symObjAddr: 0xBC84, symBinAddr: 0x10000F1A0, symSize: 0x30 }
  - { offsetInCU: 0x6690F, offset: 0x6690F, size: 0x8, addend: 0x0, symName: __ZN7sc_core9sc_port_bINS_18sc_signal_inout_ifIjEEE5vbindERNS_12sc_interfaceE, symObjAddr: 0xBCB4, symBinAddr: 0x10000F1D0, symSize: 0xBC }
  - { offsetInCU: 0x66955, offset: 0x66955, size: 0x8, addend: 0x0, symName: __ZN7sc_core9sc_port_bINS_18sc_signal_inout_ifIjEEE5vbindERNS_12sc_port_baseE, symObjAddr: 0xBD70, symBinAddr: 0x10000F28C, symSize: 0xB0 }
  - { offsetInCU: 0x6699B, offset: 0x6699B, size: 0x8, addend: 0x0, symName: __ZN7sc_core9sc_port_bINS_18sc_signal_inout_ifIjEEE13add_interfaceEPNS_12sc_interfaceE, symObjAddr: 0xBE20, symBinAddr: 0x10000F33C, symSize: 0x160 }
  - { offsetInCU: 0x66A0E, offset: 0x66A0E, size: 0x8, addend: 0x0, symName: __ZNK7sc_core9sc_port_bINS_18sc_signal_inout_ifIjEEE15interface_countEv, symObjAddr: 0xBF80, symBinAddr: 0x10000F49C, symSize: 0x24 }
  - { offsetInCU: 0x66A36, offset: 0x66A36, size: 0x8, addend: 0x0, symName: __ZN7sc_core8sc_inoutIjE18end_of_elaborationEv, symObjAddr: 0xBFA4, symBinAddr: 0x10000F4C0, symSize: 0x190 }
  - { offsetInCU: 0x66AA9, offset: 0x66AA9, size: 0x8, addend: 0x0, symName: __ZNK7sc_core9sc_port_bINS_18sc_signal_inout_ifIjEEE14make_sensitiveEPNS_17sc_thread_processEPNS_15sc_event_finderE, symObjAddr: 0xC134, symBinAddr: 0x10000F650, symSize: 0x114 }
  - { offsetInCU: 0x66B49, offset: 0x66B49, size: 0x8, addend: 0x0, symName: __ZNK7sc_core9sc_port_bINS_18sc_signal_inout_ifIjEEE14make_sensitiveEPNS_17sc_method_processEPNS_15sc_event_finderE, symObjAddr: 0xC248, symBinAddr: 0x10000F764, symSize: 0x114 }
  - { offsetInCU: 0x66BE9, offset: 0x66BE9, size: 0x8, addend: 0x0, symName: __ZN7sc_core9sc_port_bINS_18sc_signal_inout_ifIjEEE4bindERS3_, symObjAddr: 0xC35C, symBinAddr: 0x10000F878, symSize: 0x2C }
  - { offsetInCU: 0x66C1E, offset: 0x66C1E, size: 0x8, addend: 0x0, symName: __ZN7sc_core7sc_portINS_18sc_signal_inout_ifIjEELi1ELNS_14sc_port_policyE0EEC2Ev, symObjAddr: 0xC388, symBinAddr: 0x10000F8A4, symSize: 0x4C }
  - { offsetInCU: 0x66C48, offset: 0x66C48, size: 0x8, addend: 0x0, symName: __ZNK7sc_core8sc_inoutIjE4kindEv, symObjAddr: 0xC3D4, symBinAddr: 0x10000F8F0, symSize: 0x18 }
  - { offsetInCU: 0x66C6E, offset: 0x66C6E, size: 0x8, addend: 0x0, symName: __ZN7sc_core8sc_inoutIjED1Ev, symObjAddr: 0xC3EC, symBinAddr: 0x10000F908, symSize: 0x2C }
  - { offsetInCU: 0x66C9A, offset: 0x66C9A, size: 0x8, addend: 0x0, symName: __ZN7sc_core8sc_inoutIjED0Ev, symObjAddr: 0xC418, symBinAddr: 0x10000F934, symSize: 0x30 }
  - { offsetInCU: 0x66CC6, offset: 0x66CC6, size: 0x8, addend: 0x0, symName: __ZN7sc_core9sc_port_bINS_18sc_signal_inout_ifIjEEEC2EiNS_14sc_port_policyE, symObjAddr: 0xC448, symBinAddr: 0x10000F964, symSize: 0x64 }
  - { offsetInCU: 0x66D0E, offset: 0x66D0E, size: 0x8, addend: 0x0, symName: __ZNK7sc_core7sc_portINS_18sc_signal_inout_ifIjEELi1ELNS_14sc_port_policyE0EE4kindEv, symObjAddr: 0xC4AC, symBinAddr: 0x10000F9C8, symSize: 0x18 }
  - { offsetInCU: 0x66D34, offset: 0x66D34, size: 0x8, addend: 0x0, symName: __ZN7sc_core7sc_portINS_18sc_signal_inout_ifIjEELi1ELNS_14sc_port_policyE0EED1Ev, symObjAddr: 0xC4C4, symBinAddr: 0x10000F9E0, symSize: 0x2C }
  - { offsetInCU: 0x66D5E, offset: 0x66D5E, size: 0x8, addend: 0x0, symName: __ZN7sc_core7sc_portINS_18sc_signal_inout_ifIjEELi1ELNS_14sc_port_policyE0EED0Ev, symObjAddr: 0xC4F0, symBinAddr: 0x10000FA0C, symSize: 0x30 }
  - { offsetInCU: 0x66D88, offset: 0x66D88, size: 0x8, addend: 0x0, symName: __ZNSt3__16vectorIPN7sc_core18sc_signal_inout_ifIjEENS_9allocatorIS4_EEEC1B8ue170006Ev, symObjAddr: 0xC520, symBinAddr: 0x10000FA3C, symSize: 0x2C }
  - { offsetInCU: 0x66DB2, offset: 0x66DB2, size: 0x8, addend: 0x0, symName: __ZN7sc_core9sc_port_bINS_18sc_signal_inout_ifIjEEED1Ev, symObjAddr: 0xC54C, symBinAddr: 0x10000FA68, symSize: 0x2C }
  - { offsetInCU: 0x66DDC, offset: 0x66DDC, size: 0x8, addend: 0x0, symName: __ZN7sc_core9sc_port_bINS_18sc_signal_inout_ifIjEEED0Ev, symObjAddr: 0xC578, symBinAddr: 0x10000FA94, symSize: 0x30 }
  - { offsetInCU: 0x66E06, offset: 0x66E06, size: 0x8, addend: 0x0, symName: __ZNSt3__16vectorIPN7sc_core18sc_signal_inout_ifIjEENS_9allocatorIS4_EEEC2B8ue170006Ev, symObjAddr: 0xC5A8, symBinAddr: 0x10000FAC4, symSize: 0x4C }
  - { offsetInCU: 0x66E30, offset: 0x66E30, size: 0x8, addend: 0x0, symName: __ZNSt3__117__compressed_pairIPPN7sc_core18sc_signal_inout_ifIjEENS_9allocatorIS4_EEEC1B8ue170006IDnNS_18__default_init_tagEEEOT_OT0_, symObjAddr: 0xC5F4, symBinAddr: 0x10000FB10, symSize: 0x3C }
  - { offsetInCU: 0x66E88, offset: 0x66E88, size: 0x8, addend: 0x0, symName: __ZNSt3__117__compressed_pairIPPN7sc_core18sc_signal_inout_ifIjEENS_9allocatorIS4_EEEC2B8ue170006IDnNS_18__default_init_tagEEEOT_OT0_, symObjAddr: 0xC630, symBinAddr: 0x10000FB4C, symSize: 0x40 }
  - { offsetInCU: 0x66EE0, offset: 0x66EE0, size: 0x8, addend: 0x0, symName: __ZNSt3__122__compressed_pair_elemIPPN7sc_core18sc_signal_inout_ifIjEELi0ELb0EEC2B8ue170006IDnvEEOT_, symObjAddr: 0xC670, symBinAddr: 0x10000FB8C, symSize: 0x1C }
  - { offsetInCU: 0x66F22, offset: 0x66F22, size: 0x8, addend: 0x0, symName: __ZNSt3__122__compressed_pair_elemINS_9allocatorIPN7sc_core18sc_signal_inout_ifIjEEEELi1ELb1EEC2B8ue170006ENS_18__default_init_tagE, symObjAddr: 0xC68C, symBinAddr: 0x10000FBA8, symSize: 0x2C }
  - { offsetInCU: 0x66F57, offset: 0x66F57, size: 0x8, addend: 0x0, symName: __ZNSt3__19allocatorIPN7sc_core18sc_signal_inout_ifIjEEEC2B8ue170006Ev, symObjAddr: 0xC6B8, symBinAddr: 0x10000FBD4, symSize: 0x2C }
  - { offsetInCU: 0x66F81, offset: 0x66F81, size: 0x8, addend: 0x0, symName: __ZNSt3__116__non_trivial_ifILb1ENS_9allocatorIPN7sc_core18sc_signal_inout_ifIjEEEEEC2B8ue170006Ev, symObjAddr: 0xC6E4, symBinAddr: 0x10000FC00, symSize: 0x14 }
  - { offsetInCU: 0x66FAB, offset: 0x66FAB, size: 0x8, addend: 0x0, symName: __ZN7sc_core9sc_port_bINS_18sc_signal_inout_ifIjEEED2Ev, symObjAddr: 0xC6F8, symBinAddr: 0x10000FC14, symSize: 0x48 }
  - { offsetInCU: 0x66FD5, offset: 0x66FD5, size: 0x8, addend: 0x0, symName: __ZNSt3__16vectorIPN7sc_core18sc_signal_inout_ifIjEENS_9allocatorIS4_EEED1B8ue170006Ev, symObjAddr: 0xC740, symBinAddr: 0x10000FC5C, symSize: 0x2C }
  - { offsetInCU: 0x66FFF, offset: 0x66FFF, size: 0x8, addend: 0x0, symName: __ZNSt3__16vectorIPN7sc_core18sc_signal_inout_ifIjEENS_9allocatorIS4_EEED2B8ue170006Ev, symObjAddr: 0xC76C, symBinAddr: 0x10000FC88, symSize: 0x44 }
  - { offsetInCU: 0x67029, offset: 0x67029, size: 0x8, addend: 0x0, symName: __ZNSt3__16vectorIPN7sc_core18sc_signal_inout_ifIjEENS_9allocatorIS4_EEE16__destroy_vectorC1B8ue170006ERS7_, symObjAddr: 0xC7B0, symBinAddr: 0x10000FCCC, symSize: 0x34 }
  - { offsetInCU: 0x67062, offset: 0x67062, size: 0x8, addend: 0x0, symName: __ZNSt3__16vectorIPN7sc_core18sc_signal_inout_ifIjEENS_9allocatorIS4_EEE16__destroy_vectorclB8ue170006Ev, symObjAddr: 0xC7E4, symBinAddr: 0x10000FD00, symSize: 0x90 }
  - { offsetInCU: 0x67088, offset: 0x67088, size: 0x8, addend: 0x0, symName: __ZNSt3__16vectorIPN7sc_core18sc_signal_inout_ifIjEENS_9allocatorIS4_EEE16__destroy_vectorC2B8ue170006ERS7_, symObjAddr: 0xC874, symBinAddr: 0x10000FD90, symSize: 0x20 }
  - { offsetInCU: 0x670C1, offset: 0x670C1, size: 0x8, addend: 0x0, symName: __ZNSt3__16vectorIPN7sc_core18sc_signal_inout_ifIjEENS_9allocatorIS4_EEE7__clearB8ue170006Ev, symObjAddr: 0xC894, symBinAddr: 0x10000FDB0, symSize: 0x28 }
  - { offsetInCU: 0x670E7, offset: 0x670E7, size: 0x8, addend: 0x0, symName: __ZNKSt3__16vectorIPN7sc_core18sc_signal_inout_ifIjEENS_9allocatorIS4_EEE17__annotate_deleteB8ue170006Ev, symObjAddr: 0xC8BC, symBinAddr: 0x10000FDD8, symSize: 0xB8 }
  - { offsetInCU: 0x6710D, offset: 0x6710D, size: 0x8, addend: 0x0, symName: __ZNSt3__116allocator_traitsINS_9allocatorIPN7sc_core18sc_signal_inout_ifIjEEEEE10deallocateB8ue170006ERS6_PS5_m, symObjAddr: 0xC974, symBinAddr: 0x10000FE90, symSize: 0x34 }
  - { offsetInCU: 0x6714F, offset: 0x6714F, size: 0x8, addend: 0x0, symName: __ZNSt3__16vectorIPN7sc_core18sc_signal_inout_ifIjEENS_9allocatorIS4_EEE7__allocB8ue170006Ev, symObjAddr: 0xC9A8, symBinAddr: 0x10000FEC4, symSize: 0x28 }
  - { offsetInCU: 0x67175, offset: 0x67175, size: 0x8, addend: 0x0, symName: __ZNKSt3__16vectorIPN7sc_core18sc_signal_inout_ifIjEENS_9allocatorIS4_EEE8capacityB8ue170006Ev, symObjAddr: 0xC9D0, symBinAddr: 0x10000FEEC, symSize: 0x40 }
  - { offsetInCU: 0x6719B, offset: 0x6719B, size: 0x8, addend: 0x0, symName: __ZNSt3__16vectorIPN7sc_core18sc_signal_inout_ifIjEENS_9allocatorIS4_EEE22__base_destruct_at_endB8ue170006EPS4_, symObjAddr: 0xCA10, symBinAddr: 0x10000FF2C, symSize: 0x8C }
  - { offsetInCU: 0x671DF, offset: 0x671DF, size: 0x8, addend: 0x0, symName: __ZNSt3__116allocator_traitsINS_9allocatorIPN7sc_core18sc_signal_inout_ifIjEEEEE7destroyB8ue170006IS5_vEEvRS6_PT_, symObjAddr: 0xCA9C, symBinAddr: 0x10000FFB8, symSize: 0x2C }
  - { offsetInCU: 0x6721C, offset: 0x6721C, size: 0x8, addend: 0x0, symName: __ZNSt3__19allocatorIPN7sc_core18sc_signal_inout_ifIjEEE7destroyB8ue170006EPS4_, symObjAddr: 0xCADC, symBinAddr: 0x10000FFF8, symSize: 0x14 }
  - { offsetInCU: 0x67250, offset: 0x67250, size: 0x8, addend: 0x0, symName: __ZNKSt3__16vectorIPN7sc_core18sc_signal_inout_ifIjEENS_9allocatorIS4_EEE31__annotate_contiguous_containerB8ue170006EPKvS9_S9_S9_, symObjAddr: 0xCAF0, symBinAddr: 0x10001000C, symSize: 0x20 }
  - { offsetInCU: 0x672A6, offset: 0x672A6, size: 0x8, addend: 0x0, symName: __ZNKSt3__16vectorIPN7sc_core18sc_signal_inout_ifIjEENS_9allocatorIS4_EEE4dataB8ue170006Ev, symObjAddr: 0xCB10, symBinAddr: 0x10001002C, symSize: 0x28 }
  - { offsetInCU: 0x672CC, offset: 0x672CC, size: 0x8, addend: 0x0, symName: __ZNKSt3__16vectorIPN7sc_core18sc_signal_inout_ifIjEENS_9allocatorIS4_EEE4sizeB8ue170006Ev, symObjAddr: 0xCB38, symBinAddr: 0x100010054, symSize: 0x28 }
  - { offsetInCU: 0x672F2, offset: 0x672F2, size: 0x8, addend: 0x0, symName: __ZNSt3__19allocatorIPN7sc_core18sc_signal_inout_ifIjEEE10deallocateB8ue170006EPS4_m, symObjAddr: 0xCB60, symBinAddr: 0x10001007C, symSize: 0x40 }
  - { offsetInCU: 0x67334, offset: 0x67334, size: 0x8, addend: 0x0, symName: __ZNSt3__117__compressed_pairIPPN7sc_core18sc_signal_inout_ifIjEENS_9allocatorIS4_EEE6secondB8ue170006Ev, symObjAddr: 0xCBA0, symBinAddr: 0x1000100BC, symSize: 0x24 }
  - { offsetInCU: 0x6735A, offset: 0x6735A, size: 0x8, addend: 0x0, symName: __ZNSt3__122__compressed_pair_elemINS_9allocatorIPN7sc_core18sc_signal_inout_ifIjEEEELi1ELb1EE5__getB8ue170006Ev, symObjAddr: 0xCBC4, symBinAddr: 0x1000100E0, symSize: 0x14 }
  - { offsetInCU: 0x67380, offset: 0x67380, size: 0x8, addend: 0x0, symName: __ZNKSt3__16vectorIPN7sc_core18sc_signal_inout_ifIjEENS_9allocatorIS4_EEE9__end_capB8ue170006Ev, symObjAddr: 0xCBD8, symBinAddr: 0x1000100F4, symSize: 0x28 }
  - { offsetInCU: 0x673A6, offset: 0x673A6, size: 0x8, addend: 0x0, symName: __ZNKSt3__117__compressed_pairIPPN7sc_core18sc_signal_inout_ifIjEENS_9allocatorIS4_EEE5firstB8ue170006Ev, symObjAddr: 0xCC00, symBinAddr: 0x10001011C, symSize: 0x24 }
  - { offsetInCU: 0x673CC, offset: 0x673CC, size: 0x8, addend: 0x0, symName: __ZNKSt3__122__compressed_pair_elemIPPN7sc_core18sc_signal_inout_ifIjEELi0ELb0EE5__getB8ue170006Ev, symObjAddr: 0xCC24, symBinAddr: 0x100010140, symSize: 0x14 }
  - { offsetInCU: 0x673F2, offset: 0x673F2, size: 0x8, addend: 0x0, symName: __ZN7sc_core7sc_portINS_18sc_signal_inout_ifIjEELi1ELNS_14sc_port_policyE0EED2Ev, symObjAddr: 0xCC38, symBinAddr: 0x100010154, symSize: 0x2C }
  - { offsetInCU: 0x6741C, offset: 0x6741C, size: 0x8, addend: 0x0, symName: __ZN7sc_core8sc_inoutIjED2Ev, symObjAddr: 0xCC64, symBinAddr: 0x100010180, symSize: 0xAC }
  - { offsetInCU: 0x67448, offset: 0x67448, size: 0x8, addend: 0x0, symName: __ZNK7sc_core8sc_inoutIjE13remove_tracesEv, symObjAddr: 0xCD10, symBinAddr: 0x10001022C, symSize: 0xF4 }
  - { offsetInCU: 0x6748E, offset: 0x6748E, size: 0x8, addend: 0x0, symName: __ZNK7sc_core9sc_port_bINS_18sc_signal_inout_ifIjEEE4sizeEv, symObjAddr: 0xCE04, symBinAddr: 0x100010320, symSize: 0x28 }
  - { offsetInCU: 0x674B4, offset: 0x674B4, size: 0x8, addend: 0x0, symName: __ZNSt3__16vectorIPN7sc_core18sc_signal_inout_ifIjEENS_9allocatorIS4_EEEixB8ue170006Em, symObjAddr: 0xCE2C, symBinAddr: 0x100010348, symSize: 0x24 }
  - { offsetInCU: 0x674EB, offset: 0x674EB, size: 0x8, addend: 0x0, symName: __ZNSt3__16vectorIPN7sc_core18sc_signal_inout_ifIjEENS_9allocatorIS4_EEE9push_backB8ue170006ERKS4_, symObjAddr: 0xCE50, symBinAddr: 0x10001036C, symSize: 0x6C }
  - { offsetInCU: 0x67522, offset: 0x67522, size: 0x8, addend: 0x0, symName: __ZNSt3__16vectorIPN7sc_core18sc_signal_inout_ifIjEENS_9allocatorIS4_EEE9__end_capB8ue170006Ev, symObjAddr: 0xCEBC, symBinAddr: 0x1000103D8, symSize: 0x28 }
  - { offsetInCU: 0x67548, offset: 0x67548, size: 0x8, addend: 0x0, symName: __ZNSt3__16vectorIPN7sc_core18sc_signal_inout_ifIjEENS_9allocatorIS4_EEE22__construct_one_at_endB8ue170006IJRKS4_EEEvDpOT_, symObjAddr: 0xCEE4, symBinAddr: 0x100010400, symSize: 0x90 }
  - { offsetInCU: 0x67597, offset: 0x67597, size: 0x8, addend: 0x0, symName: __ZNSt3__16vectorIPN7sc_core18sc_signal_inout_ifIjEENS_9allocatorIS4_EEE21__push_back_slow_pathIRKS4_EEvOT_, symObjAddr: 0xCF74, symBinAddr: 0x100010490, symSize: 0xD8 }
  - { offsetInCU: 0x675F5, offset: 0x675F5, size: 0x8, addend: 0x0, symName: __ZNSt3__117__compressed_pairIPPN7sc_core18sc_signal_inout_ifIjEENS_9allocatorIS4_EEE5firstB8ue170006Ev, symObjAddr: 0xD04C, symBinAddr: 0x100010568, symSize: 0x24 }
  - { offsetInCU: 0x6761B, offset: 0x6761B, size: 0x8, addend: 0x0, symName: __ZNSt3__122__compressed_pair_elemIPPN7sc_core18sc_signal_inout_ifIjEELi0ELb0EE5__getB8ue170006Ev, symObjAddr: 0xD070, symBinAddr: 0x10001058C, symSize: 0x14 }
  - { offsetInCU: 0x6765C, offset: 0x6765C, size: 0x8, addend: 0x0, symName: __ZNSt3__16vectorIPN7sc_core18sc_signal_inout_ifIjEENS_9allocatorIS4_EEE21_ConstructTransactionC1B8ue170006ERS7_m, symObjAddr: 0xD084, symBinAddr: 0x1000105A0, symSize: 0x3C }
  - { offsetInCU: 0x676A4, offset: 0x676A4, size: 0x8, addend: 0x0, symName: __ZNSt3__116allocator_traitsINS_9allocatorIPN7sc_core18sc_signal_inout_ifIjEEEEE9constructB8ue170006IS5_JRKS5_EvEEvRS6_PT_DpOT0_, symObjAddr: 0xD0C0, symBinAddr: 0x1000105DC, symSize: 0x34 }
  - { offsetInCU: 0x676FB, offset: 0x676FB, size: 0x8, addend: 0x0, symName: __ZNSt3__16vectorIPN7sc_core18sc_signal_inout_ifIjEENS_9allocatorIS4_EEE21_ConstructTransactionD1B8ue170006Ev, symObjAddr: 0xD0F4, symBinAddr: 0x100010610, symSize: 0x2C }
  - { offsetInCU: 0x67725, offset: 0x67725, size: 0x8, addend: 0x0, symName: __ZNSt3__16vectorIPN7sc_core18sc_signal_inout_ifIjEENS_9allocatorIS4_EEE21_ConstructTransactionC2B8ue170006ERS7_m, symObjAddr: 0xD120, symBinAddr: 0x10001063C, symSize: 0x44 }
  - { offsetInCU: 0x6776D, offset: 0x6776D, size: 0x8, addend: 0x0, symName: __ZNSt3__19allocatorIPN7sc_core18sc_signal_inout_ifIjEEE9constructB8ue170006IS4_JRKS4_EEEvPT_DpOT0_, symObjAddr: 0xD164, symBinAddr: 0x100010680, symSize: 0x28 }
  - { offsetInCU: 0x677C3, offset: 0x677C3, size: 0x8, addend: 0x0, symName: __ZNSt3__16vectorIPN7sc_core18sc_signal_inout_ifIjEENS_9allocatorIS4_EEE21_ConstructTransactionD2B8ue170006Ev, symObjAddr: 0xD18C, symBinAddr: 0x1000106A8, symSize: 0x20 }
  - { offsetInCU: 0x677ED, offset: 0x677ED, size: 0x8, addend: 0x0, symName: __ZNKSt3__16vectorIPN7sc_core18sc_signal_inout_ifIjEENS_9allocatorIS4_EEE11__recommendB8ue170006Em, symObjAddr: 0xD1AC, symBinAddr: 0x1000106C8, symSize: 0xB4 }
  - { offsetInCU: 0x67842, offset: 0x67842, size: 0x8, addend: 0x0, symName: __ZNSt3__114__split_bufferIPN7sc_core18sc_signal_inout_ifIjEERNS_9allocatorIS4_EEEC1EmmS7_, symObjAddr: 0xD260, symBinAddr: 0x10001077C, symSize: 0x44 }
  - { offsetInCU: 0x67898, offset: 0x67898, size: 0x8, addend: 0x0, symName: __ZNSt3__114__split_bufferIPN7sc_core18sc_signal_inout_ifIjEERNS_9allocatorIS4_EEED1Ev, symObjAddr: 0xD3B4, symBinAddr: 0x1000108D0, symSize: 0x2C }
  - { offsetInCU: 0x678C4, offset: 0x678C4, size: 0x8, addend: 0x0, symName: __ZNKSt3__16vectorIPN7sc_core18sc_signal_inout_ifIjEENS_9allocatorIS4_EEE8max_sizeEv, symObjAddr: 0xD3E0, symBinAddr: 0x1000108FC, symSize: 0x60 }
  - { offsetInCU: 0x678EC, offset: 0x678EC, size: 0x8, addend: 0x0, symName: __ZNKSt3__16vectorIPN7sc_core18sc_signal_inout_ifIjEENS_9allocatorIS4_EEE20__throw_length_errorB8ue170006Ev, symObjAddr: 0xD440, symBinAddr: 0x10001095C, symSize: 0x1C }
  - { offsetInCU: 0x6791D, offset: 0x6791D, size: 0x8, addend: 0x0, symName: __ZNSt3__116allocator_traitsINS_9allocatorIPN7sc_core18sc_signal_inout_ifIjEEEEE8max_sizeB8ue170006IS6_vEEmRKS6_, symObjAddr: 0xD45C, symBinAddr: 0x100010978, symSize: 0x24 }
  - { offsetInCU: 0x6794B, offset: 0x6794B, size: 0x8, addend: 0x0, symName: __ZNKSt3__16vectorIPN7sc_core18sc_signal_inout_ifIjEENS_9allocatorIS4_EEE7__allocB8ue170006Ev, symObjAddr: 0xD480, symBinAddr: 0x10001099C, symSize: 0x28 }
  - { offsetInCU: 0x67971, offset: 0x67971, size: 0x8, addend: 0x0, symName: __ZNKSt3__19allocatorIPN7sc_core18sc_signal_inout_ifIjEEE8max_sizeB8ue170006Ev, symObjAddr: 0xD4A8, symBinAddr: 0x1000109C4, symSize: 0x14 }
  - { offsetInCU: 0x67997, offset: 0x67997, size: 0x8, addend: 0x0, symName: __ZNKSt3__117__compressed_pairIPPN7sc_core18sc_signal_inout_ifIjEENS_9allocatorIS4_EEE6secondB8ue170006Ev, symObjAddr: 0xD4BC, symBinAddr: 0x1000109D8, symSize: 0x24 }
  - { offsetInCU: 0x679BD, offset: 0x679BD, size: 0x8, addend: 0x0, symName: __ZNKSt3__122__compressed_pair_elemINS_9allocatorIPN7sc_core18sc_signal_inout_ifIjEEEELi1ELb1EE5__getB8ue170006Ev, symObjAddr: 0xD4E0, symBinAddr: 0x1000109FC, symSize: 0x14 }
  - { offsetInCU: 0x679E3, offset: 0x679E3, size: 0x8, addend: 0x0, symName: __ZNSt3__114__split_bufferIPN7sc_core18sc_signal_inout_ifIjEERNS_9allocatorIS4_EEEC2EmmS7_, symObjAddr: 0xD4F4, symBinAddr: 0x100010A10, symSize: 0xD4 }
  - { offsetInCU: 0x67A57, offset: 0x67A57, size: 0x8, addend: 0x0, symName: __ZNSt3__117__compressed_pairIPPN7sc_core18sc_signal_inout_ifIjEERNS_9allocatorIS4_EEEC1B8ue170006IDnS8_EEOT_OT0_, symObjAddr: 0xD5C8, symBinAddr: 0x100010AE4, symSize: 0x3C }
  - { offsetInCU: 0x67AAF, offset: 0x67AAF, size: 0x8, addend: 0x0, symName: __ZNSt3__114__split_bufferIPN7sc_core18sc_signal_inout_ifIjEERNS_9allocatorIS4_EEE7__allocB8ue170006Ev, symObjAddr: 0xD644, symBinAddr: 0x100010B60, symSize: 0x28 }
  - { offsetInCU: 0x67AD5, offset: 0x67AD5, size: 0x8, addend: 0x0, symName: __ZNSt3__114__split_bufferIPN7sc_core18sc_signal_inout_ifIjEERNS_9allocatorIS4_EEE9__end_capB8ue170006Ev, symObjAddr: 0xD66C, symBinAddr: 0x100010B88, symSize: 0x28 }
  - { offsetInCU: 0x67AFB, offset: 0x67AFB, size: 0x8, addend: 0x0, symName: __ZNSt3__117__compressed_pairIPPN7sc_core18sc_signal_inout_ifIjEERNS_9allocatorIS4_EEEC2B8ue170006IDnS8_EEOT_OT0_, symObjAddr: 0xD694, symBinAddr: 0x100010BB0, symSize: 0x48 }
  - { offsetInCU: 0x67B53, offset: 0x67B53, size: 0x8, addend: 0x0, symName: __ZNSt3__122__compressed_pair_elemIRNS_9allocatorIPN7sc_core18sc_signal_inout_ifIjEEEELi1ELb0EEC2B8ue170006IS7_vEEOT_, symObjAddr: 0xD6DC, symBinAddr: 0x100010BF8, symSize: 0x20 }
  - { offsetInCU: 0x67B95, offset: 0x67B95, size: 0x8, addend: 0x0, symName: __ZNSt3__19allocatorIPN7sc_core18sc_signal_inout_ifIjEEE8allocateB8ue170006Em, symObjAddr: 0xD6FC, symBinAddr: 0x100010C18, symSize: 0x58 }
  - { offsetInCU: 0x67BC9, offset: 0x67BC9, size: 0x8, addend: 0x0, symName: __ZNSt3__117__compressed_pairIPPN7sc_core18sc_signal_inout_ifIjEERNS_9allocatorIS4_EEE6secondB8ue170006Ev, symObjAddr: 0xD754, symBinAddr: 0x100010C70, symSize: 0x28 }
  - { offsetInCU: 0x67BEF, offset: 0x67BEF, size: 0x8, addend: 0x0, symName: __ZNSt3__122__compressed_pair_elemIRNS_9allocatorIPN7sc_core18sc_signal_inout_ifIjEEEELi1ELb0EE5__getB8ue170006Ev, symObjAddr: 0xD77C, symBinAddr: 0x100010C98, symSize: 0x18 }
  - { offsetInCU: 0x67C15, offset: 0x67C15, size: 0x8, addend: 0x0, symName: __ZNSt3__117__compressed_pairIPPN7sc_core18sc_signal_inout_ifIjEERNS_9allocatorIS4_EEE5firstB8ue170006Ev, symObjAddr: 0xD794, symBinAddr: 0x100010CB0, symSize: 0x24 }
  - { offsetInCU: 0x67C3B, offset: 0x67C3B, size: 0x8, addend: 0x0, symName: __ZNSt3__116reverse_iteratorIPPN7sc_core18sc_signal_inout_ifIjEEEC1B8ue170006ES5_, symObjAddr: 0xD830, symBinAddr: 0x100010D4C, symSize: 0x34 }
  - { offsetInCU: 0x67C73, offset: 0x67C73, size: 0x8, addend: 0x0, symName: __ZNKSt3__116reverse_iteratorIPPN7sc_core18sc_signal_inout_ifIjEEE4baseB8ue170006Ev, symObjAddr: 0xD864, symBinAddr: 0x100010D80, symSize: 0x18 }
  - { offsetInCU: 0x67C99, offset: 0x67C99, size: 0x8, addend: 0x0, symName: __ZNKSt3__16vectorIPN7sc_core18sc_signal_inout_ifIjEENS_9allocatorIS4_EEE14__annotate_newB8ue170006Em, symObjAddr: 0xD8B8, symBinAddr: 0x100010DD4, symSize: 0xAC }
  - { offsetInCU: 0x67CEA, offset: 0x67CEA, size: 0x8, addend: 0x0, symName: __ZNKSt3__111__move_loopINS_17_ClassicAlgPolicyEEclB8ue170006INS_16reverse_iteratorIPPN7sc_core18sc_signal_inout_ifIjEEEESA_SA_EENS_4pairIT_T1_EESC_T0_SD_, symObjAddr: 0xDC54, symBinAddr: 0x100011170, symSize: 0xA0 }
  - { offsetInCU: 0x67D5B, offset: 0x67D5B, size: 0x8, addend: 0x0, symName: __ZNSt3__18_IterOpsINS_17_ClassicAlgPolicyEE11__iter_moveB8ue170006IRNS_16reverse_iteratorIPPN7sc_core18sc_signal_inout_ifIjEEEEEENS_9enable_ifIXsr12is_referenceIDTdeclsr3stdE7declvalIRT_EEEEE5valueEDTclsr3stdE4movedeclsr3stdE7declvalISE_EEEEE4typeEOSD_, symObjAddr: 0xDE88, symBinAddr: 0x1000113A4, symSize: 0x28 }
  - { offsetInCU: 0x67D87, offset: 0x67D87, size: 0x8, addend: 0x0, symName: __ZNKSt3__116reverse_iteratorIPPN7sc_core18sc_signal_inout_ifIjEEEdeB8ue170006Ev, symObjAddr: 0xDEB0, symBinAddr: 0x1000113CC, symSize: 0x28 }
  - { offsetInCU: 0x67DBB, offset: 0x67DBB, size: 0x8, addend: 0x0, symName: __ZNSt3__116reverse_iteratorIPPN7sc_core18sc_signal_inout_ifIjEEEppB8ue170006Ev, symObjAddr: 0xDED8, symBinAddr: 0x1000113F4, symSize: 0x20 }
  - { offsetInCU: 0x67DE1, offset: 0x67DE1, size: 0x8, addend: 0x0, symName: __ZNSt3__18_IterOpsINS_17_ClassicAlgPolicyEE25__validate_iter_referenceB8ue170006IRNS_16reverse_iteratorIPPN7sc_core18sc_signal_inout_ifIjEEEEEEvv, symObjAddr: 0xDEF8, symBinAddr: 0x100011414, symSize: 0x4 }
  - { offsetInCU: 0x67DFF, offset: 0x67DFF, size: 0x8, addend: 0x0, symName: __ZNSt3__118__unwrap_iter_implINS_16reverse_iteratorIPPN7sc_core18sc_signal_inout_ifIjEEEELb0EE8__unwrapB8ue170006ES7_, symObjAddr: 0xDEFC, symBinAddr: 0x100011418, symSize: 0x24 }
  - { offsetInCU: 0x67E28, offset: 0x67E28, size: 0x8, addend: 0x0, symName: __ZNSt3__14pairINS_16reverse_iteratorIPPN7sc_core18sc_signal_inout_ifIjEEEES7_EC1B8ue170006IS7_S7_LPv0EEEOT_OT0_, symObjAddr: 0xDF20, symBinAddr: 0x10001143C, symSize: 0x3C }
  - { offsetInCU: 0x67E86, offset: 0x67E86, size: 0x8, addend: 0x0, symName: __ZNSt3__14pairINS_16reverse_iteratorIPPN7sc_core18sc_signal_inout_ifIjEEEES7_EC2B8ue170006IS7_S7_LPv0EEEOT_OT0_, symObjAddr: 0xDF5C, symBinAddr: 0x100011478, symSize: 0x34 }
  - { offsetInCU: 0x67EE4, offset: 0x67EE4, size: 0x8, addend: 0x0, symName: __ZNSt3__118__unwrap_iter_implINS_16reverse_iteratorIPPN7sc_core18sc_signal_inout_ifIjEEEELb0EE8__rewrapB8ue170006ES7_S7_, symObjAddr: 0xDF90, symBinAddr: 0x1000114AC, symSize: 0x2C }
  - { offsetInCU: 0x67F12, offset: 0x67F12, size: 0x8, addend: 0x0, symName: __ZNSt3__116reverse_iteratorIPPN7sc_core18sc_signal_inout_ifIjEEEC2B8ue170006ES5_, symObjAddr: 0xDFBC, symBinAddr: 0x1000114D8, symSize: 0x28 }
  - { offsetInCU: 0x67F4A, offset: 0x67F4A, size: 0x8, addend: 0x0, symName: __ZNSt3__114__split_bufferIPN7sc_core18sc_signal_inout_ifIjEERNS_9allocatorIS4_EEED2Ev, symObjAddr: 0xDFE4, symBinAddr: 0x100011500, symSize: 0x8C }
  - { offsetInCU: 0x67F76, offset: 0x67F76, size: 0x8, addend: 0x0, symName: __ZNSt3__114__split_bufferIPN7sc_core18sc_signal_inout_ifIjEERNS_9allocatorIS4_EEE5clearB8ue170006Ev, symObjAddr: 0xE070, symBinAddr: 0x10001158C, symSize: 0x28 }
  - { offsetInCU: 0x67F9C, offset: 0x67F9C, size: 0x8, addend: 0x0, symName: __ZNKSt3__114__split_bufferIPN7sc_core18sc_signal_inout_ifIjEERNS_9allocatorIS4_EEE8capacityB8ue170006Ev, symObjAddr: 0xE098, symBinAddr: 0x1000115B4, symSize: 0x40 }
  - { offsetInCU: 0x67FC2, offset: 0x67FC2, size: 0x8, addend: 0x0, symName: __ZNSt3__114__split_bufferIPN7sc_core18sc_signal_inout_ifIjEERNS_9allocatorIS4_EEE17__destruct_at_endB8ue170006EPS4_, symObjAddr: 0xE0D8, symBinAddr: 0x1000115F4, symSize: 0x2C }
  - { offsetInCU: 0x67FF6, offset: 0x67FF6, size: 0x8, addend: 0x0, symName: __ZNSt3__114__split_bufferIPN7sc_core18sc_signal_inout_ifIjEERNS_9allocatorIS4_EEE17__destruct_at_endB8ue170006EPS4_NS_17integral_constantIbLb0EEE, symObjAddr: 0xE104, symBinAddr: 0x100011620, symSize: 0x80 }
  - { offsetInCU: 0x68037, offset: 0x68037, size: 0x8, addend: 0x0, symName: __ZNKSt3__114__split_bufferIPN7sc_core18sc_signal_inout_ifIjEERNS_9allocatorIS4_EEE9__end_capB8ue170006Ev, symObjAddr: 0xE184, symBinAddr: 0x1000116A0, symSize: 0x28 }
  - { offsetInCU: 0x6805D, offset: 0x6805D, size: 0x8, addend: 0x0, symName: __ZNKSt3__117__compressed_pairIPPN7sc_core18sc_signal_inout_ifIjEERNS_9allocatorIS4_EEE5firstB8ue170006Ev, symObjAddr: 0xE1AC, symBinAddr: 0x1000116C8, symSize: 0x24 }
  - { offsetInCU: 0x68083, offset: 0x68083, size: 0x8, addend: 0x0, symName: __ZN7sc_core8sc_inoutIjE5writeERKj, symObjAddr: 0xE1D0, symBinAddr: 0x1000116EC, symSize: 0x40 }
  - { offsetInCU: 0x680B8, offset: 0x680B8, size: 0x8, addend: 0x0, symName: __ZN7sc_core9sc_port_bINS_18sc_signal_inout_ifIjEEEptEv, symObjAddr: 0xE210, symBinAddr: 0x10001172C, symSize: 0x5C }
  - { offsetInCU: 0x680E0, offset: 0x680E0, size: 0x8, addend: 0x0, symName: __ZNKSt3__16vectorIPN7sc_core18sc_signal_inout_ifIjEENS_9allocatorIS4_EEEixB8ue170006Em, symObjAddr: 0xE26C, symBinAddr: 0x100011788, symSize: 0x24 }
  - { offsetInCU: 0x68117, offset: 0x68117, size: 0x8, addend: 0x0, symName: __ZN7sc_core9sc_module4waitEv, symObjAddr: 0xE290, symBinAddr: 0x1000117AC, symSize: 0x28 }
  - { offsetInCU: 0x6813D, offset: 0x6813D, size: 0x8, addend: 0x0, symName: __ZNK7sc_core5sc_inIbE4readEv, symObjAddr: 0xE2B8, symBinAddr: 0x1000117D4, symSize: 0x30 }
  - { offsetInCU: 0x68163, offset: 0x68163, size: 0x8, addend: 0x0, symName: __ZNK7sc_core5sc_inIN5sc_dt5sc_bvILi2EEEE4readEv, symObjAddr: 0xE2E8, symBinAddr: 0x100011804, symSize: 0x30 }
  - { offsetInCU: 0x68189, offset: 0x68189, size: 0x8, addend: 0x0, symName: __ZNK7sc_core5sc_inIjE4readEv, symObjAddr: 0xE318, symBinAddr: 0x100011834, symSize: 0x30 }
  - { offsetInCU: 0x681AF, offset: 0x681AF, size: 0x8, addend: 0x0, symName: __ZNK7sc_core5sc_inIN5sc_dt5sc_bvILi12EEEE4readEv, symObjAddr: 0xE348, symBinAddr: 0x100011864, symSize: 0x30 }
  - { offsetInCU: 0x681D5, offset: 0x681D5, size: 0x8, addend: 0x0, symName: __ZNK7sc_core9sc_object10simcontextEv, symObjAddr: 0xE378, symBinAddr: 0x100011894, symSize: 0x18 }
  - { offsetInCU: 0x681FB, offset: 0x681FB, size: 0x8, addend: 0x0, symName: __ZNK7sc_core9sc_port_bINS_15sc_signal_in_ifIbEEEptEv, symObjAddr: 0xE390, symBinAddr: 0x1000118AC, symSize: 0x24 }
  - { offsetInCU: 0x68223, offset: 0x68223, size: 0x8, addend: 0x0, symName: __ZN7sc_core9sc_port_bINS_15sc_signal_in_ifIbEEEptEv, symObjAddr: 0xE3B4, symBinAddr: 0x1000118D0, symSize: 0x5C }
  - { offsetInCU: 0x6824B, offset: 0x6824B, size: 0x8, addend: 0x0, symName: __ZNK7sc_core9sc_port_bINS_15sc_signal_in_ifIN5sc_dt5sc_bvILi2EEEEEEptEv, symObjAddr: 0xE410, symBinAddr: 0x10001192C, symSize: 0x24 }
  - { offsetInCU: 0x68273, offset: 0x68273, size: 0x8, addend: 0x0, symName: __ZN7sc_core9sc_port_bINS_15sc_signal_in_ifIN5sc_dt5sc_bvILi2EEEEEEptEv, symObjAddr: 0xE434, symBinAddr: 0x100011950, symSize: 0x5C }
  - { offsetInCU: 0x6829B, offset: 0x6829B, size: 0x8, addend: 0x0, symName: __ZNK7sc_core9sc_port_bINS_15sc_signal_in_ifIjEEEptEv, symObjAddr: 0xE490, symBinAddr: 0x1000119AC, symSize: 0x24 }
  - { offsetInCU: 0x682C3, offset: 0x682C3, size: 0x8, addend: 0x0, symName: __ZN7sc_core9sc_port_bINS_15sc_signal_in_ifIjEEEptEv, symObjAddr: 0xE4B4, symBinAddr: 0x1000119D0, symSize: 0x5C }
  - { offsetInCU: 0x682EB, offset: 0x682EB, size: 0x8, addend: 0x0, symName: __ZNK7sc_core9sc_port_bINS_15sc_signal_in_ifIN5sc_dt5sc_bvILi12EEEEEEptEv, symObjAddr: 0xE510, symBinAddr: 0x100011A2C, symSize: 0x24 }
  - { offsetInCU: 0x68313, offset: 0x68313, size: 0x8, addend: 0x0, symName: __ZN7sc_core9sc_port_bINS_15sc_signal_in_ifIN5sc_dt5sc_bvILi12EEEEEEptEv, symObjAddr: 0xE534, symBinAddr: 0x100011A50, symSize: 0x5C }
  - { offsetInCU: 0x68357, offset: 0x68357, size: 0x8, addend: 0x0, symName: __ZN7sc_core15sc_event_finder13cached_createINS_15sc_signal_in_ifIbEEEERS0_RPS0_RKNS_12sc_port_baseEMT_KFRKNS_8sc_eventEvE, symObjAddr: 0xE590, symBinAddr: 0x100011AAC, symSize: 0x100 }
  - { offsetInCU: 0x683BA, offset: 0x683BA, size: 0x8, addend: 0x0, symName: __ZN7sc_core17sc_event_finder_tINS_15sc_signal_in_ifIbEEEC1ERKNS_12sc_port_baseEMS2_KFRKNS_8sc_eventEvE, symObjAddr: 0xE690, symBinAddr: 0x100011BAC, symSize: 0x64 }
  - { offsetInCU: 0x68400, offset: 0x68400, size: 0x8, addend: 0x0, symName: __ZNK7sc_core15sc_event_finder4portEv, symObjAddr: 0xE6F4, symBinAddr: 0x100011C10, symSize: 0x18 }
  - { offsetInCU: 0x68426, offset: 0x68426, size: 0x8, addend: 0x0, symName: __ZN7sc_core17sc_event_finder_tINS_15sc_signal_in_ifIbEEEC2ERKNS_12sc_port_baseEMS2_KFRKNS_8sc_eventEvE, symObjAddr: 0xE70C, symBinAddr: 0x100011C28, symSize: 0x74 }
  - { offsetInCU: 0x6846C, offset: 0x6846C, size: 0x8, addend: 0x0, symName: __ZN7sc_core17sc_event_finder_tINS_15sc_signal_in_ifIbEEED1Ev, symObjAddr: 0xE780, symBinAddr: 0x100011C9C, symSize: 0x2C }
  - { offsetInCU: 0x68496, offset: 0x68496, size: 0x8, addend: 0x0, symName: __ZN7sc_core17sc_event_finder_tINS_15sc_signal_in_ifIbEEED0Ev, symObjAddr: 0xE7AC, symBinAddr: 0x100011CC8, symSize: 0x30 }
  - { offsetInCU: 0x684C0, offset: 0x684C0, size: 0x8, addend: 0x0, symName: __ZNK7sc_core17sc_event_finder_tINS_15sc_signal_in_ifIbEEE10find_eventEPNS_12sc_interfaceE, symObjAddr: 0xE7DC, symBinAddr: 0x100011CF8, symSize: 0x1A0 }
  - { offsetInCU: 0x68503, offset: 0x68503, size: 0x8, addend: 0x0, symName: __ZN7sc_core17sc_event_finder_tINS_15sc_signal_in_ifIbEEED2Ev, symObjAddr: 0xE97C, symBinAddr: 0x100011E98, symSize: 0x2C }
  - { offsetInCU: 0x6852D, offset: 0x6852D, size: 0x8, addend: 0x0, symName: __ZN7sc_core6sc_outIjED2Ev, symObjAddr: 0xE9A8, symBinAddr: 0x100011EC4, symSize: 0x2C }
  - { offsetInCU: 0x68557, offset: 0x68557, size: 0x8, addend: 0x0, symName: __ZN7sc_core5sc_inIN5sc_dt5sc_bvILi12EEEED2Ev, symObjAddr: 0xE9D4, symBinAddr: 0x100011EF0, symSize: 0x7C }
  - { offsetInCU: 0x68581, offset: 0x68581, size: 0x8, addend: 0x0, symName: __ZN7sc_core5sc_inIjED2Ev, symObjAddr: 0xEA50, symBinAddr: 0x100011F6C, symSize: 0x7C }
  - { offsetInCU: 0x685AB, offset: 0x685AB, size: 0x8, addend: 0x0, symName: __ZN7sc_core5sc_inIN5sc_dt5sc_bvILi2EEEED2Ev, symObjAddr: 0xEACC, symBinAddr: 0x100011FE8, symSize: 0x7C }
  - { offsetInCU: 0x685D5, offset: 0x685D5, size: 0x8, addend: 0x0, symName: __ZN13REGISTER_FILEC2EN7sc_core14sc_module_nameE, symObjAddr: 0xEB48, symBinAddr: 0x100012064, symSize: 0x3E0 }
  - { offsetInCU: 0x6863C, offset: 0x6863C, size: 0x8, addend: 0x0, symName: __ZN7sc_core5sc_inIN5sc_dt5sc_bvILi5EEEEC1Ev, symObjAddr: 0xEF28, symBinAddr: 0x100012444, symSize: 0x2C }
  - { offsetInCU: 0x68666, offset: 0x68666, size: 0x8, addend: 0x0, symName: __ZN13REGISTER_FILE9behaviourEv, symObjAddr: 0xEF54, symBinAddr: 0x100012470, symSize: 0x150 }
  - { offsetInCU: 0x686C5, offset: 0x686C5, size: 0x8, addend: 0x0, symName: __ZN7sc_core5sc_inIN5sc_dt5sc_bvILi5EEEED1Ev, symObjAddr: 0xF0A4, symBinAddr: 0x1000125C0, symSize: 0x2C }
  - { offsetInCU: 0x686EF, offset: 0x686EF, size: 0x8, addend: 0x0, symName: __ZN13REGISTER_FILED0Ev, symObjAddr: 0xF0D0, symBinAddr: 0x1000125EC, symSize: 0x30 }
  - { offsetInCU: 0x6871B, offset: 0x6871B, size: 0x8, addend: 0x0, symName: __ZThn104_N13REGISTER_FILED1Ev, symObjAddr: 0xF100, symBinAddr: 0x10001261C, symSize: 0x1C }
  - { offsetInCU: 0x68731, offset: 0x68731, size: 0x8, addend: 0x0, symName: __ZThn104_N13REGISTER_FILED0Ev, symObjAddr: 0xF11C, symBinAddr: 0x100012638, symSize: 0x18 }
  - { offsetInCU: 0x68747, offset: 0x68747, size: 0x8, addend: 0x0, symName: __ZN7sc_core5sc_inIN5sc_dt5sc_bvILi5EEEEC2Ev, symObjAddr: 0xF134, symBinAddr: 0x100012650, symSize: 0x4C }
  - { offsetInCU: 0x68771, offset: 0x68771, size: 0x8, addend: 0x0, symName: __ZN7sc_core7sc_portINS_15sc_signal_in_ifIN5sc_dt5sc_bvILi5EEEEELi1ELNS_14sc_port_policyE0EEC2Ev, symObjAddr: 0xF180, symBinAddr: 0x10001269C, symSize: 0x4C }
  - { offsetInCU: 0x6879B, offset: 0x6879B, size: 0x8, addend: 0x0, symName: __ZNK7sc_core5sc_inIN5sc_dt5sc_bvILi5EEEE4kindEv, symObjAddr: 0xF1CC, symBinAddr: 0x1000126E8, symSize: 0x18 }
  - { offsetInCU: 0x687C1, offset: 0x687C1, size: 0x8, addend: 0x0, symName: __ZN7sc_core5sc_inIN5sc_dt5sc_bvILi5EEEED0Ev, symObjAddr: 0xF1E4, symBinAddr: 0x100012700, symSize: 0x30 }
  - { offsetInCU: 0x687EB, offset: 0x687EB, size: 0x8, addend: 0x0, symName: __ZN7sc_core9sc_port_bINS_15sc_signal_in_ifIN5sc_dt5sc_bvILi5EEEEEE13get_interfaceEv, symObjAddr: 0xF214, symBinAddr: 0x100012730, symSize: 0x50 }
  - { offsetInCU: 0x68811, offset: 0x68811, size: 0x8, addend: 0x0, symName: __ZNK7sc_core9sc_port_bINS_15sc_signal_in_ifIN5sc_dt5sc_bvILi5EEEEEE13get_interfaceEv, symObjAddr: 0xF264, symBinAddr: 0x100012780, symSize: 0x50 }
  - { offsetInCU: 0x68837, offset: 0x68837, size: 0x8, addend: 0x0, symName: __ZNK7sc_core9sc_port_bINS_15sc_signal_in_ifIN5sc_dt5sc_bvILi5EEEEEE18get_interface_typeEv, symObjAddr: 0xF2B4, symBinAddr: 0x1000127D0, symSize: 0x30 }
  - { offsetInCU: 0x6885F, offset: 0x6885F, size: 0x8, addend: 0x0, symName: __ZN7sc_core5sc_inIN5sc_dt5sc_bvILi5EEEE5vbindERNS_12sc_interfaceE, symObjAddr: 0xF2E4, symBinAddr: 0x100012800, symSize: 0x2C }
  - { offsetInCU: 0x68896, offset: 0x68896, size: 0x8, addend: 0x0, symName: __ZN7sc_core5sc_inIN5sc_dt5sc_bvILi5EEEE5vbindERNS_12sc_port_baseE, symObjAddr: 0xF310, symBinAddr: 0x10001282C, symSize: 0x128 }
  - { offsetInCU: 0x688EB, offset: 0x688EB, size: 0x8, addend: 0x0, symName: __ZN7sc_core9sc_port_bINS_15sc_signal_in_ifIN5sc_dt5sc_bvILi5EEEEEE13add_interfaceEPNS_12sc_interfaceE, symObjAddr: 0xF438, symBinAddr: 0x100012954, symSize: 0x160 }
  - { offsetInCU: 0x6895E, offset: 0x6895E, size: 0x8, addend: 0x0, symName: __ZNK7sc_core9sc_port_bINS_15sc_signal_in_ifIN5sc_dt5sc_bvILi5EEEEEE15interface_countEv, symObjAddr: 0xF598, symBinAddr: 0x100012AB4, symSize: 0x24 }
  - { offsetInCU: 0x68986, offset: 0x68986, size: 0x8, addend: 0x0, symName: __ZN7sc_core5sc_inIN5sc_dt5sc_bvILi5EEEE18end_of_elaborationEv, symObjAddr: 0xF5BC, symBinAddr: 0x100012AD8, symSize: 0x134 }
  - { offsetInCU: 0x689F9, offset: 0x689F9, size: 0x8, addend: 0x0, symName: __ZNK7sc_core9sc_port_bINS_15sc_signal_in_ifIN5sc_dt5sc_bvILi5EEEEEE14make_sensitiveEPNS_17sc_thread_processEPNS_15sc_event_finderE, symObjAddr: 0xF6F0, symBinAddr: 0x100012C0C, symSize: 0x114 }
  - { offsetInCU: 0x68A99, offset: 0x68A99, size: 0x8, addend: 0x0, symName: __ZNK7sc_core9sc_port_bINS_15sc_signal_in_ifIN5sc_dt5sc_bvILi5EEEEEE14make_sensitiveEPNS_17sc_method_processEPNS_15sc_event_finderE, symObjAddr: 0xF804, symBinAddr: 0x100012D20, symSize: 0x114 }
  - { offsetInCU: 0x68B39, offset: 0x68B39, size: 0x8, addend: 0x0, symName: __ZN7sc_core5sc_inIN5sc_dt5sc_bvILi5EEEE4bindERNS_9sc_port_bINS_15sc_signal_in_ifIS3_EEEE, symObjAddr: 0xF918, symBinAddr: 0x100012E34, symSize: 0x2C }
  - { offsetInCU: 0x68B6E, offset: 0x68B6E, size: 0x8, addend: 0x0, symName: __ZN7sc_core5sc_inIN5sc_dt5sc_bvILi5EEEE4bindERKNS_15sc_signal_in_ifIS3_EE, symObjAddr: 0xF944, symBinAddr: 0x100012E60, symSize: 0x38 }
  - { offsetInCU: 0x68BA2, offset: 0x68BA2, size: 0x8, addend: 0x0, symName: __ZN7sc_core5sc_inIN5sc_dt5sc_bvILi5EEEE4bindERNS_7sc_portINS_15sc_signal_in_ifIS3_EELi1ELNS_14sc_port_policyE0EEE, symObjAddr: 0xF97C, symBinAddr: 0x100012E98, symSize: 0x2C }
  - { offsetInCU: 0x68BD6, offset: 0x68BD6, size: 0x8, addend: 0x0, symName: __ZN7sc_core5sc_inIN5sc_dt5sc_bvILi5EEEE4bindERNS_7sc_portINS_18sc_signal_inout_ifIS3_EELi1ELNS_14sc_port_policyE0EEE, symObjAddr: 0xF9A8, symBinAddr: 0x100012EC4, symSize: 0x2C }
  - { offsetInCU: 0x68C0A, offset: 0x68C0A, size: 0x8, addend: 0x0, symName: __ZN7sc_core9sc_port_bINS_15sc_signal_in_ifIN5sc_dt5sc_bvILi5EEEEEEC2EiNS_14sc_port_policyE, symObjAddr: 0xF9D4, symBinAddr: 0x100012EF0, symSize: 0x64 }
  - { offsetInCU: 0x68C52, offset: 0x68C52, size: 0x8, addend: 0x0, symName: __ZNK7sc_core7sc_portINS_15sc_signal_in_ifIN5sc_dt5sc_bvILi5EEEEELi1ELNS_14sc_port_policyE0EE4kindEv, symObjAddr: 0xFA38, symBinAddr: 0x100012F54, symSize: 0x18 }
  - { offsetInCU: 0x68C78, offset: 0x68C78, size: 0x8, addend: 0x0, symName: __ZN7sc_core7sc_portINS_15sc_signal_in_ifIN5sc_dt5sc_bvILi5EEEEELi1ELNS_14sc_port_policyE0EED1Ev, symObjAddr: 0xFA50, symBinAddr: 0x100012F6C, symSize: 0x2C }
  - { offsetInCU: 0x68CA2, offset: 0x68CA2, size: 0x8, addend: 0x0, symName: __ZN7sc_core7sc_portINS_15sc_signal_in_ifIN5sc_dt5sc_bvILi5EEEEELi1ELNS_14sc_port_policyE0EED0Ev, symObjAddr: 0xFA7C, symBinAddr: 0x100012F98, symSize: 0x30 }
  - { offsetInCU: 0x68CCC, offset: 0x68CCC, size: 0x8, addend: 0x0, symName: __ZN7sc_core9sc_port_bINS_15sc_signal_in_ifIN5sc_dt5sc_bvILi5EEEEEE5vbindERNS_12sc_interfaceE, symObjAddr: 0xFAAC, symBinAddr: 0x100012FC8, symSize: 0xBC }
  - { offsetInCU: 0x68D12, offset: 0x68D12, size: 0x8, addend: 0x0, symName: __ZN7sc_core9sc_port_bINS_15sc_signal_in_ifIN5sc_dt5sc_bvILi5EEEEEE5vbindERNS_12sc_port_baseE, symObjAddr: 0xFB68, symBinAddr: 0x100013084, symSize: 0xB0 }
  - { offsetInCU: 0x68D58, offset: 0x68D58, size: 0x8, addend: 0x0, symName: __ZN7sc_core9sc_port_bINS_15sc_signal_in_ifIN5sc_dt5sc_bvILi5EEEEEE4bindERS5_, symObjAddr: 0xFC18, symBinAddr: 0x100013134, symSize: 0x38 }
  - { offsetInCU: 0x68D8D, offset: 0x68D8D, size: 0x8, addend: 0x0, symName: __ZN7sc_core9sc_port_bINS_15sc_signal_in_ifIN5sc_dt5sc_bvILi5EEEEEE4bindERS6_, symObjAddr: 0xFC50, symBinAddr: 0x10001316C, symSize: 0x2C }
  - { offsetInCU: 0x68DC2, offset: 0x68DC2, size: 0x8, addend: 0x0, symName: __ZNSt3__16vectorIPN7sc_core15sc_signal_in_ifIN5sc_dt5sc_bvILi5EEEEENS_9allocatorIS7_EEEC1B8ue170006Ev, symObjAddr: 0xFC7C, symBinAddr: 0x100013198, symSize: 0x2C }
  - { offsetInCU: 0x68DEC, offset: 0x68DEC, size: 0x8, addend: 0x0, symName: __ZN7sc_core9sc_port_bINS_15sc_signal_in_ifIN5sc_dt5sc_bvILi5EEEEEED1Ev, symObjAddr: 0xFCA8, symBinAddr: 0x1000131C4, symSize: 0x2C }
  - { offsetInCU: 0x68E16, offset: 0x68E16, size: 0x8, addend: 0x0, symName: __ZN7sc_core9sc_port_bINS_15sc_signal_in_ifIN5sc_dt5sc_bvILi5EEEEEED0Ev, symObjAddr: 0xFCD4, symBinAddr: 0x1000131F0, symSize: 0x30 }
  - { offsetInCU: 0x68E40, offset: 0x68E40, size: 0x8, addend: 0x0, symName: __ZNSt3__16vectorIPN7sc_core15sc_signal_in_ifIN5sc_dt5sc_bvILi5EEEEENS_9allocatorIS7_EEEC2B8ue170006Ev, symObjAddr: 0xFD04, symBinAddr: 0x100013220, symSize: 0x4C }
  - { offsetInCU: 0x68E6A, offset: 0x68E6A, size: 0x8, addend: 0x0, symName: __ZNSt3__117__compressed_pairIPPN7sc_core15sc_signal_in_ifIN5sc_dt5sc_bvILi5EEEEENS_9allocatorIS7_EEEC1B8ue170006IDnNS_18__default_init_tagEEEOT_OT0_, symObjAddr: 0xFD50, symBinAddr: 0x10001326C, symSize: 0x3C }
  - { offsetInCU: 0x68EC2, offset: 0x68EC2, size: 0x8, addend: 0x0, symName: __ZNSt3__117__compressed_pairIPPN7sc_core15sc_signal_in_ifIN5sc_dt5sc_bvILi5EEEEENS_9allocatorIS7_EEEC2B8ue170006IDnNS_18__default_init_tagEEEOT_OT0_, symObjAddr: 0xFD8C, symBinAddr: 0x1000132A8, symSize: 0x40 }
  - { offsetInCU: 0x68F1A, offset: 0x68F1A, size: 0x8, addend: 0x0, symName: __ZNSt3__122__compressed_pair_elemIPPN7sc_core15sc_signal_in_ifIN5sc_dt5sc_bvILi5EEEEELi0ELb0EEC2B8ue170006IDnvEEOT_, symObjAddr: 0xFDCC, symBinAddr: 0x1000132E8, symSize: 0x1C }
  - { offsetInCU: 0x68F5C, offset: 0x68F5C, size: 0x8, addend: 0x0, symName: __ZNSt3__122__compressed_pair_elemINS_9allocatorIPN7sc_core15sc_signal_in_ifIN5sc_dt5sc_bvILi5EEEEEEELi1ELb1EEC2B8ue170006ENS_18__default_init_tagE, symObjAddr: 0xFDE8, symBinAddr: 0x100013304, symSize: 0x2C }
  - { offsetInCU: 0x68F91, offset: 0x68F91, size: 0x8, addend: 0x0, symName: __ZNSt3__19allocatorIPN7sc_core15sc_signal_in_ifIN5sc_dt5sc_bvILi5EEEEEEC2B8ue170006Ev, symObjAddr: 0xFE14, symBinAddr: 0x100013330, symSize: 0x2C }
  - { offsetInCU: 0x68FBB, offset: 0x68FBB, size: 0x8, addend: 0x0, symName: __ZNSt3__116__non_trivial_ifILb1ENS_9allocatorIPN7sc_core15sc_signal_in_ifIN5sc_dt5sc_bvILi5EEEEEEEEC2B8ue170006Ev, symObjAddr: 0xFE40, symBinAddr: 0x10001335C, symSize: 0x14 }
  - { offsetInCU: 0x68FE5, offset: 0x68FE5, size: 0x8, addend: 0x0, symName: __ZN7sc_core9sc_port_bINS_15sc_signal_in_ifIN5sc_dt5sc_bvILi5EEEEEED2Ev, symObjAddr: 0xFE54, symBinAddr: 0x100013370, symSize: 0x48 }
  - { offsetInCU: 0x6900F, offset: 0x6900F, size: 0x8, addend: 0x0, symName: __ZNSt3__16vectorIPN7sc_core15sc_signal_in_ifIN5sc_dt5sc_bvILi5EEEEENS_9allocatorIS7_EEED1B8ue170006Ev, symObjAddr: 0xFE9C, symBinAddr: 0x1000133B8, symSize: 0x2C }
  - { offsetInCU: 0x69039, offset: 0x69039, size: 0x8, addend: 0x0, symName: __ZNSt3__16vectorIPN7sc_core15sc_signal_in_ifIN5sc_dt5sc_bvILi5EEEEENS_9allocatorIS7_EEED2B8ue170006Ev, symObjAddr: 0xFEC8, symBinAddr: 0x1000133E4, symSize: 0x44 }
  - { offsetInCU: 0x69063, offset: 0x69063, size: 0x8, addend: 0x0, symName: __ZNSt3__16vectorIPN7sc_core15sc_signal_in_ifIN5sc_dt5sc_bvILi5EEEEENS_9allocatorIS7_EEE16__destroy_vectorC1B8ue170006ERSA_, symObjAddr: 0xFF0C, symBinAddr: 0x100013428, symSize: 0x34 }
  - { offsetInCU: 0x6909C, offset: 0x6909C, size: 0x8, addend: 0x0, symName: __ZNSt3__16vectorIPN7sc_core15sc_signal_in_ifIN5sc_dt5sc_bvILi5EEEEENS_9allocatorIS7_EEE16__destroy_vectorclB8ue170006Ev, symObjAddr: 0xFF40, symBinAddr: 0x10001345C, symSize: 0x90 }
  - { offsetInCU: 0x690C2, offset: 0x690C2, size: 0x8, addend: 0x0, symName: __ZNSt3__16vectorIPN7sc_core15sc_signal_in_ifIN5sc_dt5sc_bvILi5EEEEENS_9allocatorIS7_EEE16__destroy_vectorC2B8ue170006ERSA_, symObjAddr: 0xFFD0, symBinAddr: 0x1000134EC, symSize: 0x20 }
  - { offsetInCU: 0x690FB, offset: 0x690FB, size: 0x8, addend: 0x0, symName: __ZNSt3__16vectorIPN7sc_core15sc_signal_in_ifIN5sc_dt5sc_bvILi5EEEEENS_9allocatorIS7_EEE7__clearB8ue170006Ev, symObjAddr: 0xFFF0, symBinAddr: 0x10001350C, symSize: 0x28 }
  - { offsetInCU: 0x69121, offset: 0x69121, size: 0x8, addend: 0x0, symName: __ZNKSt3__16vectorIPN7sc_core15sc_signal_in_ifIN5sc_dt5sc_bvILi5EEEEENS_9allocatorIS7_EEE17__annotate_deleteB8ue170006Ev, symObjAddr: 0x10018, symBinAddr: 0x100013534, symSize: 0xB8 }
  - { offsetInCU: 0x69147, offset: 0x69147, size: 0x8, addend: 0x0, symName: __ZNSt3__116allocator_traitsINS_9allocatorIPN7sc_core15sc_signal_in_ifIN5sc_dt5sc_bvILi5EEEEEEEE10deallocateB8ue170006ERS9_PS8_m, symObjAddr: 0x100D0, symBinAddr: 0x1000135EC, symSize: 0x34 }
  - { offsetInCU: 0x69189, offset: 0x69189, size: 0x8, addend: 0x0, symName: __ZNSt3__16vectorIPN7sc_core15sc_signal_in_ifIN5sc_dt5sc_bvILi5EEEEENS_9allocatorIS7_EEE7__allocB8ue170006Ev, symObjAddr: 0x10104, symBinAddr: 0x100013620, symSize: 0x28 }
  - { offsetInCU: 0x691AF, offset: 0x691AF, size: 0x8, addend: 0x0, symName: __ZNKSt3__16vectorIPN7sc_core15sc_signal_in_ifIN5sc_dt5sc_bvILi5EEEEENS_9allocatorIS7_EEE8capacityB8ue170006Ev, symObjAddr: 0x1012C, symBinAddr: 0x100013648, symSize: 0x40 }
  - { offsetInCU: 0x691D5, offset: 0x691D5, size: 0x8, addend: 0x0, symName: __ZNSt3__16vectorIPN7sc_core15sc_signal_in_ifIN5sc_dt5sc_bvILi5EEEEENS_9allocatorIS7_EEE22__base_destruct_at_endB8ue170006EPS7_, symObjAddr: 0x1016C, symBinAddr: 0x100013688, symSize: 0x8C }
  - { offsetInCU: 0x69219, offset: 0x69219, size: 0x8, addend: 0x0, symName: __ZNSt3__116allocator_traitsINS_9allocatorIPN7sc_core15sc_signal_in_ifIN5sc_dt5sc_bvILi5EEEEEEEE7destroyB8ue170006IS8_vEEvRS9_PT_, symObjAddr: 0x101F8, symBinAddr: 0x100013714, symSize: 0x2C }
  - { offsetInCU: 0x69256, offset: 0x69256, size: 0x8, addend: 0x0, symName: __ZNSt3__19allocatorIPN7sc_core15sc_signal_in_ifIN5sc_dt5sc_bvILi5EEEEEE7destroyB8ue170006EPS7_, symObjAddr: 0x10238, symBinAddr: 0x100013754, symSize: 0x14 }
  - { offsetInCU: 0x6928A, offset: 0x6928A, size: 0x8, addend: 0x0, symName: __ZNKSt3__16vectorIPN7sc_core15sc_signal_in_ifIN5sc_dt5sc_bvILi5EEEEENS_9allocatorIS7_EEE31__annotate_contiguous_containerB8ue170006EPKvSC_SC_SC_, symObjAddr: 0x1024C, symBinAddr: 0x100013768, symSize: 0x20 }
  - { offsetInCU: 0x692E0, offset: 0x692E0, size: 0x8, addend: 0x0, symName: __ZNKSt3__16vectorIPN7sc_core15sc_signal_in_ifIN5sc_dt5sc_bvILi5EEEEENS_9allocatorIS7_EEE4dataB8ue170006Ev, symObjAddr: 0x1026C, symBinAddr: 0x100013788, symSize: 0x28 }
  - { offsetInCU: 0x69306, offset: 0x69306, size: 0x8, addend: 0x0, symName: __ZNKSt3__16vectorIPN7sc_core15sc_signal_in_ifIN5sc_dt5sc_bvILi5EEEEENS_9allocatorIS7_EEE4sizeB8ue170006Ev, symObjAddr: 0x10294, symBinAddr: 0x1000137B0, symSize: 0x28 }
  - { offsetInCU: 0x6932C, offset: 0x6932C, size: 0x8, addend: 0x0, symName: __ZNSt3__19allocatorIPN7sc_core15sc_signal_in_ifIN5sc_dt5sc_bvILi5EEEEEE10deallocateB8ue170006EPS7_m, symObjAddr: 0x102BC, symBinAddr: 0x1000137D8, symSize: 0x40 }
  - { offsetInCU: 0x6936E, offset: 0x6936E, size: 0x8, addend: 0x0, symName: __ZNSt3__117__compressed_pairIPPN7sc_core15sc_signal_in_ifIN5sc_dt5sc_bvILi5EEEEENS_9allocatorIS7_EEE6secondB8ue170006Ev, symObjAddr: 0x102FC, symBinAddr: 0x100013818, symSize: 0x24 }
  - { offsetInCU: 0x69394, offset: 0x69394, size: 0x8, addend: 0x0, symName: __ZNSt3__122__compressed_pair_elemINS_9allocatorIPN7sc_core15sc_signal_in_ifIN5sc_dt5sc_bvILi5EEEEEEELi1ELb1EE5__getB8ue170006Ev, symObjAddr: 0x10320, symBinAddr: 0x10001383C, symSize: 0x14 }
  - { offsetInCU: 0x693BA, offset: 0x693BA, size: 0x8, addend: 0x0, symName: __ZNKSt3__16vectorIPN7sc_core15sc_signal_in_ifIN5sc_dt5sc_bvILi5EEEEENS_9allocatorIS7_EEE9__end_capB8ue170006Ev, symObjAddr: 0x10334, symBinAddr: 0x100013850, symSize: 0x28 }
  - { offsetInCU: 0x693E0, offset: 0x693E0, size: 0x8, addend: 0x0, symName: __ZNKSt3__117__compressed_pairIPPN7sc_core15sc_signal_in_ifIN5sc_dt5sc_bvILi5EEEEENS_9allocatorIS7_EEE5firstB8ue170006Ev, symObjAddr: 0x1035C, symBinAddr: 0x100013878, symSize: 0x24 }
  - { offsetInCU: 0x69406, offset: 0x69406, size: 0x8, addend: 0x0, symName: __ZNKSt3__122__compressed_pair_elemIPPN7sc_core15sc_signal_in_ifIN5sc_dt5sc_bvILi5EEEEELi0ELb0EE5__getB8ue170006Ev, symObjAddr: 0x10380, symBinAddr: 0x10001389C, symSize: 0x14 }
  - { offsetInCU: 0x6942C, offset: 0x6942C, size: 0x8, addend: 0x0, symName: __ZN7sc_core7sc_portINS_15sc_signal_in_ifIN5sc_dt5sc_bvILi5EEEEELi1ELNS_14sc_port_policyE0EED2Ev, symObjAddr: 0x10394, symBinAddr: 0x1000138B0, symSize: 0x2C }
  - { offsetInCU: 0x69456, offset: 0x69456, size: 0x8, addend: 0x0, symName: __ZNK7sc_core9sc_port_bINS_15sc_signal_in_ifIN5sc_dt5sc_bvILi5EEEEEE4sizeEv, symObjAddr: 0x103C0, symBinAddr: 0x1000138DC, symSize: 0x28 }
  - { offsetInCU: 0x6947C, offset: 0x6947C, size: 0x8, addend: 0x0, symName: __ZNSt3__16vectorIPN7sc_core15sc_signal_in_ifIN5sc_dt5sc_bvILi5EEEEENS_9allocatorIS7_EEEixB8ue170006Em, symObjAddr: 0x103E8, symBinAddr: 0x100013904, symSize: 0x24 }
  - { offsetInCU: 0x694B3, offset: 0x694B3, size: 0x8, addend: 0x0, symName: __ZNSt3__16vectorIPN7sc_core15sc_signal_in_ifIN5sc_dt5sc_bvILi5EEEEENS_9allocatorIS7_EEE9push_backB8ue170006ERKS7_, symObjAddr: 0x1040C, symBinAddr: 0x100013928, symSize: 0x6C }
  - { offsetInCU: 0x694EA, offset: 0x694EA, size: 0x8, addend: 0x0, symName: __ZNSt3__16vectorIPN7sc_core15sc_signal_in_ifIN5sc_dt5sc_bvILi5EEEEENS_9allocatorIS7_EEE9__end_capB8ue170006Ev, symObjAddr: 0x10478, symBinAddr: 0x100013994, symSize: 0x28 }
  - { offsetInCU: 0x69510, offset: 0x69510, size: 0x8, addend: 0x0, symName: __ZNSt3__16vectorIPN7sc_core15sc_signal_in_ifIN5sc_dt5sc_bvILi5EEEEENS_9allocatorIS7_EEE22__construct_one_at_endB8ue170006IJRKS7_EEEvDpOT_, symObjAddr: 0x104A0, symBinAddr: 0x1000139BC, symSize: 0x90 }
  - { offsetInCU: 0x6955F, offset: 0x6955F, size: 0x8, addend: 0x0, symName: __ZNSt3__16vectorIPN7sc_core15sc_signal_in_ifIN5sc_dt5sc_bvILi5EEEEENS_9allocatorIS7_EEE21__push_back_slow_pathIRKS7_EEvOT_, symObjAddr: 0x10530, symBinAddr: 0x100013A4C, symSize: 0xD8 }
  - { offsetInCU: 0x695BD, offset: 0x695BD, size: 0x8, addend: 0x0, symName: __ZNSt3__117__compressed_pairIPPN7sc_core15sc_signal_in_ifIN5sc_dt5sc_bvILi5EEEEENS_9allocatorIS7_EEE5firstB8ue170006Ev, symObjAddr: 0x10608, symBinAddr: 0x100013B24, symSize: 0x24 }
  - { offsetInCU: 0x695E3, offset: 0x695E3, size: 0x8, addend: 0x0, symName: __ZNSt3__122__compressed_pair_elemIPPN7sc_core15sc_signal_in_ifIN5sc_dt5sc_bvILi5EEEEELi0ELb0EE5__getB8ue170006Ev, symObjAddr: 0x1062C, symBinAddr: 0x100013B48, symSize: 0x14 }
  - { offsetInCU: 0x69624, offset: 0x69624, size: 0x8, addend: 0x0, symName: __ZNSt3__16vectorIPN7sc_core15sc_signal_in_ifIN5sc_dt5sc_bvILi5EEEEENS_9allocatorIS7_EEE21_ConstructTransactionC1B8ue170006ERSA_m, symObjAddr: 0x10640, symBinAddr: 0x100013B5C, symSize: 0x3C }
  - { offsetInCU: 0x6966C, offset: 0x6966C, size: 0x8, addend: 0x0, symName: __ZNSt3__116allocator_traitsINS_9allocatorIPN7sc_core15sc_signal_in_ifIN5sc_dt5sc_bvILi5EEEEEEEE9constructB8ue170006IS8_JRKS8_EvEEvRS9_PT_DpOT0_, symObjAddr: 0x1067C, symBinAddr: 0x100013B98, symSize: 0x34 }
  - { offsetInCU: 0x696C3, offset: 0x696C3, size: 0x8, addend: 0x0, symName: __ZNSt3__16vectorIPN7sc_core15sc_signal_in_ifIN5sc_dt5sc_bvILi5EEEEENS_9allocatorIS7_EEE21_ConstructTransactionD1B8ue170006Ev, symObjAddr: 0x106B0, symBinAddr: 0x100013BCC, symSize: 0x2C }
  - { offsetInCU: 0x696ED, offset: 0x696ED, size: 0x8, addend: 0x0, symName: __ZNSt3__16vectorIPN7sc_core15sc_signal_in_ifIN5sc_dt5sc_bvILi5EEEEENS_9allocatorIS7_EEE21_ConstructTransactionC2B8ue170006ERSA_m, symObjAddr: 0x106DC, symBinAddr: 0x100013BF8, symSize: 0x44 }
  - { offsetInCU: 0x69735, offset: 0x69735, size: 0x8, addend: 0x0, symName: __ZNSt3__19allocatorIPN7sc_core15sc_signal_in_ifIN5sc_dt5sc_bvILi5EEEEEE9constructB8ue170006IS7_JRKS7_EEEvPT_DpOT0_, symObjAddr: 0x10720, symBinAddr: 0x100013C3C, symSize: 0x28 }
  - { offsetInCU: 0x6978B, offset: 0x6978B, size: 0x8, addend: 0x0, symName: __ZNSt3__16vectorIPN7sc_core15sc_signal_in_ifIN5sc_dt5sc_bvILi5EEEEENS_9allocatorIS7_EEE21_ConstructTransactionD2B8ue170006Ev, symObjAddr: 0x10748, symBinAddr: 0x100013C64, symSize: 0x20 }
  - { offsetInCU: 0x697B5, offset: 0x697B5, size: 0x8, addend: 0x0, symName: __ZNKSt3__16vectorIPN7sc_core15sc_signal_in_ifIN5sc_dt5sc_bvILi5EEEEENS_9allocatorIS7_EEE11__recommendB8ue170006Em, symObjAddr: 0x10768, symBinAddr: 0x100013C84, symSize: 0xB4 }
  - { offsetInCU: 0x6980A, offset: 0x6980A, size: 0x8, addend: 0x0, symName: __ZNSt3__114__split_bufferIPN7sc_core15sc_signal_in_ifIN5sc_dt5sc_bvILi5EEEEERNS_9allocatorIS7_EEEC1EmmSA_, symObjAddr: 0x1081C, symBinAddr: 0x100013D38, symSize: 0x44 }
  - { offsetInCU: 0x69860, offset: 0x69860, size: 0x8, addend: 0x0, symName: __ZNSt3__114__split_bufferIPN7sc_core15sc_signal_in_ifIN5sc_dt5sc_bvILi5EEEEERNS_9allocatorIS7_EEED1Ev, symObjAddr: 0x10970, symBinAddr: 0x100013E8C, symSize: 0x2C }
  - { offsetInCU: 0x6988C, offset: 0x6988C, size: 0x8, addend: 0x0, symName: __ZNKSt3__16vectorIPN7sc_core15sc_signal_in_ifIN5sc_dt5sc_bvILi5EEEEENS_9allocatorIS7_EEE8max_sizeEv, symObjAddr: 0x1099C, symBinAddr: 0x100013EB8, symSize: 0x60 }
  - { offsetInCU: 0x698B4, offset: 0x698B4, size: 0x8, addend: 0x0, symName: __ZNKSt3__16vectorIPN7sc_core15sc_signal_in_ifIN5sc_dt5sc_bvILi5EEEEENS_9allocatorIS7_EEE20__throw_length_errorB8ue170006Ev, symObjAddr: 0x109FC, symBinAddr: 0x100013F18, symSize: 0x1C }
  - { offsetInCU: 0x698E5, offset: 0x698E5, size: 0x8, addend: 0x0, symName: __ZNSt3__116allocator_traitsINS_9allocatorIPN7sc_core15sc_signal_in_ifIN5sc_dt5sc_bvILi5EEEEEEEE8max_sizeB8ue170006IS9_vEEmRKS9_, symObjAddr: 0x10A18, symBinAddr: 0x100013F34, symSize: 0x24 }
  - { offsetInCU: 0x69913, offset: 0x69913, size: 0x8, addend: 0x0, symName: __ZNKSt3__16vectorIPN7sc_core15sc_signal_in_ifIN5sc_dt5sc_bvILi5EEEEENS_9allocatorIS7_EEE7__allocB8ue170006Ev, symObjAddr: 0x10A3C, symBinAddr: 0x100013F58, symSize: 0x28 }
  - { offsetInCU: 0x69939, offset: 0x69939, size: 0x8, addend: 0x0, symName: __ZNKSt3__19allocatorIPN7sc_core15sc_signal_in_ifIN5sc_dt5sc_bvILi5EEEEEE8max_sizeB8ue170006Ev, symObjAddr: 0x10A64, symBinAddr: 0x100013F80, symSize: 0x14 }
  - { offsetInCU: 0x6995F, offset: 0x6995F, size: 0x8, addend: 0x0, symName: __ZNKSt3__117__compressed_pairIPPN7sc_core15sc_signal_in_ifIN5sc_dt5sc_bvILi5EEEEENS_9allocatorIS7_EEE6secondB8ue170006Ev, symObjAddr: 0x10A78, symBinAddr: 0x100013F94, symSize: 0x24 }
  - { offsetInCU: 0x69985, offset: 0x69985, size: 0x8, addend: 0x0, symName: __ZNKSt3__122__compressed_pair_elemINS_9allocatorIPN7sc_core15sc_signal_in_ifIN5sc_dt5sc_bvILi5EEEEEEELi1ELb1EE5__getB8ue170006Ev, symObjAddr: 0x10A9C, symBinAddr: 0x100013FB8, symSize: 0x14 }
  - { offsetInCU: 0x699AB, offset: 0x699AB, size: 0x8, addend: 0x0, symName: __ZNSt3__114__split_bufferIPN7sc_core15sc_signal_in_ifIN5sc_dt5sc_bvILi5EEEEERNS_9allocatorIS7_EEEC2EmmSA_, symObjAddr: 0x10AB0, symBinAddr: 0x100013FCC, symSize: 0xD4 }
  - { offsetInCU: 0x69A1F, offset: 0x69A1F, size: 0x8, addend: 0x0, symName: __ZNSt3__117__compressed_pairIPPN7sc_core15sc_signal_in_ifIN5sc_dt5sc_bvILi5EEEEERNS_9allocatorIS7_EEEC1B8ue170006IDnSB_EEOT_OT0_, symObjAddr: 0x10B84, symBinAddr: 0x1000140A0, symSize: 0x3C }
  - { offsetInCU: 0x69A77, offset: 0x69A77, size: 0x8, addend: 0x0, symName: __ZNSt3__114__split_bufferIPN7sc_core15sc_signal_in_ifIN5sc_dt5sc_bvILi5EEEEERNS_9allocatorIS7_EEE7__allocB8ue170006Ev, symObjAddr: 0x10C00, symBinAddr: 0x10001411C, symSize: 0x28 }
  - { offsetInCU: 0x69A9D, offset: 0x69A9D, size: 0x8, addend: 0x0, symName: __ZNSt3__114__split_bufferIPN7sc_core15sc_signal_in_ifIN5sc_dt5sc_bvILi5EEEEERNS_9allocatorIS7_EEE9__end_capB8ue170006Ev, symObjAddr: 0x10C28, symBinAddr: 0x100014144, symSize: 0x28 }
  - { offsetInCU: 0x69AC3, offset: 0x69AC3, size: 0x8, addend: 0x0, symName: __ZNSt3__117__compressed_pairIPPN7sc_core15sc_signal_in_ifIN5sc_dt5sc_bvILi5EEEEERNS_9allocatorIS7_EEEC2B8ue170006IDnSB_EEOT_OT0_, symObjAddr: 0x10C50, symBinAddr: 0x10001416C, symSize: 0x48 }
  - { offsetInCU: 0x69B1B, offset: 0x69B1B, size: 0x8, addend: 0x0, symName: __ZNSt3__122__compressed_pair_elemIRNS_9allocatorIPN7sc_core15sc_signal_in_ifIN5sc_dt5sc_bvILi5EEEEEEELi1ELb0EEC2B8ue170006ISA_vEEOT_, symObjAddr: 0x10C98, symBinAddr: 0x1000141B4, symSize: 0x20 }
  - { offsetInCU: 0x69B5D, offset: 0x69B5D, size: 0x8, addend: 0x0, symName: __ZNSt3__19allocatorIPN7sc_core15sc_signal_in_ifIN5sc_dt5sc_bvILi5EEEEEE8allocateB8ue170006Em, symObjAddr: 0x10CB8, symBinAddr: 0x1000141D4, symSize: 0x58 }
  - { offsetInCU: 0x69B91, offset: 0x69B91, size: 0x8, addend: 0x0, symName: __ZNSt3__117__compressed_pairIPPN7sc_core15sc_signal_in_ifIN5sc_dt5sc_bvILi5EEEEERNS_9allocatorIS7_EEE6secondB8ue170006Ev, symObjAddr: 0x10D10, symBinAddr: 0x10001422C, symSize: 0x28 }
  - { offsetInCU: 0x69BB7, offset: 0x69BB7, size: 0x8, addend: 0x0, symName: __ZNSt3__122__compressed_pair_elemIRNS_9allocatorIPN7sc_core15sc_signal_in_ifIN5sc_dt5sc_bvILi5EEEEEEELi1ELb0EE5__getB8ue170006Ev, symObjAddr: 0x10D38, symBinAddr: 0x100014254, symSize: 0x18 }
  - { offsetInCU: 0x69BDD, offset: 0x69BDD, size: 0x8, addend: 0x0, symName: __ZNSt3__117__compressed_pairIPPN7sc_core15sc_signal_in_ifIN5sc_dt5sc_bvILi5EEEEERNS_9allocatorIS7_EEE5firstB8ue170006Ev, symObjAddr: 0x10D50, symBinAddr: 0x10001426C, symSize: 0x24 }
  - { offsetInCU: 0x69C03, offset: 0x69C03, size: 0x8, addend: 0x0, symName: __ZNSt3__116reverse_iteratorIPPN7sc_core15sc_signal_in_ifIN5sc_dt5sc_bvILi5EEEEEEC1B8ue170006ES8_, symObjAddr: 0x10DEC, symBinAddr: 0x100014308, symSize: 0x34 }
  - { offsetInCU: 0x69C3B, offset: 0x69C3B, size: 0x8, addend: 0x0, symName: __ZNKSt3__116reverse_iteratorIPPN7sc_core15sc_signal_in_ifIN5sc_dt5sc_bvILi5EEEEEE4baseB8ue170006Ev, symObjAddr: 0x10E20, symBinAddr: 0x10001433C, symSize: 0x18 }
  - { offsetInCU: 0x69C61, offset: 0x69C61, size: 0x8, addend: 0x0, symName: __ZNKSt3__16vectorIPN7sc_core15sc_signal_in_ifIN5sc_dt5sc_bvILi5EEEEENS_9allocatorIS7_EEE14__annotate_newB8ue170006Em, symObjAddr: 0x10E74, symBinAddr: 0x100014390, symSize: 0xAC }
  - { offsetInCU: 0x69CB2, offset: 0x69CB2, size: 0x8, addend: 0x0, symName: __ZNKSt3__111__move_loopINS_17_ClassicAlgPolicyEEclB8ue170006INS_16reverse_iteratorIPPN7sc_core15sc_signal_in_ifIN5sc_dt5sc_bvILi5EEEEEEESD_SD_EENS_4pairIT_T1_EESF_T0_SG_, symObjAddr: 0x11210, symBinAddr: 0x10001472C, symSize: 0xA0 }
  - { offsetInCU: 0x69D23, offset: 0x69D23, size: 0x8, addend: 0x0, symName: __ZNSt3__18_IterOpsINS_17_ClassicAlgPolicyEE11__iter_moveB8ue170006IRNS_16reverse_iteratorIPPN7sc_core15sc_signal_in_ifIN5sc_dt5sc_bvILi5EEEEEEEEENS_9enable_ifIXsr12is_referenceIDTdeclsr3stdE7declvalIRT_EEEEE5valueEDTclsr3stdE4movedeclsr3stdE7declvalISH_EEEEE4typeEOSG_, symObjAddr: 0x11444, symBinAddr: 0x100014960, symSize: 0x28 }
  - { offsetInCU: 0x69D4F, offset: 0x69D4F, size: 0x8, addend: 0x0, symName: __ZNKSt3__116reverse_iteratorIPPN7sc_core15sc_signal_in_ifIN5sc_dt5sc_bvILi5EEEEEEdeB8ue170006Ev, symObjAddr: 0x1146C, symBinAddr: 0x100014988, symSize: 0x28 }
  - { offsetInCU: 0x69D83, offset: 0x69D83, size: 0x8, addend: 0x0, symName: __ZNSt3__116reverse_iteratorIPPN7sc_core15sc_signal_in_ifIN5sc_dt5sc_bvILi5EEEEEEppB8ue170006Ev, symObjAddr: 0x11494, symBinAddr: 0x1000149B0, symSize: 0x20 }
  - { offsetInCU: 0x69DA9, offset: 0x69DA9, size: 0x8, addend: 0x0, symName: __ZNSt3__18_IterOpsINS_17_ClassicAlgPolicyEE25__validate_iter_referenceB8ue170006IRNS_16reverse_iteratorIPPN7sc_core15sc_signal_in_ifIN5sc_dt5sc_bvILi5EEEEEEEEEvv, symObjAddr: 0x114B4, symBinAddr: 0x1000149D0, symSize: 0x4 }
  - { offsetInCU: 0x69DC7, offset: 0x69DC7, size: 0x8, addend: 0x0, symName: __ZNSt3__118__unwrap_iter_implINS_16reverse_iteratorIPPN7sc_core15sc_signal_in_ifIN5sc_dt5sc_bvILi5EEEEEEELb0EE8__unwrapB8ue170006ESA_, symObjAddr: 0x114B8, symBinAddr: 0x1000149D4, symSize: 0x24 }
  - { offsetInCU: 0x69DF0, offset: 0x69DF0, size: 0x8, addend: 0x0, symName: __ZNSt3__14pairINS_16reverse_iteratorIPPN7sc_core15sc_signal_in_ifIN5sc_dt5sc_bvILi5EEEEEEESA_EC1B8ue170006ISA_SA_LPv0EEEOT_OT0_, symObjAddr: 0x114DC, symBinAddr: 0x1000149F8, symSize: 0x3C }
  - { offsetInCU: 0x69E4E, offset: 0x69E4E, size: 0x8, addend: 0x0, symName: __ZNSt3__14pairINS_16reverse_iteratorIPPN7sc_core15sc_signal_in_ifIN5sc_dt5sc_bvILi5EEEEEEESA_EC2B8ue170006ISA_SA_LPv0EEEOT_OT0_, symObjAddr: 0x11518, symBinAddr: 0x100014A34, symSize: 0x34 }
  - { offsetInCU: 0x69EAC, offset: 0x69EAC, size: 0x8, addend: 0x0, symName: __ZNSt3__118__unwrap_iter_implINS_16reverse_iteratorIPPN7sc_core15sc_signal_in_ifIN5sc_dt5sc_bvILi5EEEEEEELb0EE8__rewrapB8ue170006ESA_SA_, symObjAddr: 0x1154C, symBinAddr: 0x100014A68, symSize: 0x2C }
  - { offsetInCU: 0x69EDA, offset: 0x69EDA, size: 0x8, addend: 0x0, symName: __ZNSt3__116reverse_iteratorIPPN7sc_core15sc_signal_in_ifIN5sc_dt5sc_bvILi5EEEEEEC2B8ue170006ES8_, symObjAddr: 0x11578, symBinAddr: 0x100014A94, symSize: 0x28 }
  - { offsetInCU: 0x69F12, offset: 0x69F12, size: 0x8, addend: 0x0, symName: __ZNSt3__114__split_bufferIPN7sc_core15sc_signal_in_ifIN5sc_dt5sc_bvILi5EEEEERNS_9allocatorIS7_EEED2Ev, symObjAddr: 0x115A0, symBinAddr: 0x100014ABC, symSize: 0x8C }
  - { offsetInCU: 0x69F3E, offset: 0x69F3E, size: 0x8, addend: 0x0, symName: __ZNSt3__114__split_bufferIPN7sc_core15sc_signal_in_ifIN5sc_dt5sc_bvILi5EEEEERNS_9allocatorIS7_EEE5clearB8ue170006Ev, symObjAddr: 0x1162C, symBinAddr: 0x100014B48, symSize: 0x28 }
  - { offsetInCU: 0x69F64, offset: 0x69F64, size: 0x8, addend: 0x0, symName: __ZNKSt3__114__split_bufferIPN7sc_core15sc_signal_in_ifIN5sc_dt5sc_bvILi5EEEEERNS_9allocatorIS7_EEE8capacityB8ue170006Ev, symObjAddr: 0x11654, symBinAddr: 0x100014B70, symSize: 0x40 }
  - { offsetInCU: 0x69F8A, offset: 0x69F8A, size: 0x8, addend: 0x0, symName: __ZNSt3__114__split_bufferIPN7sc_core15sc_signal_in_ifIN5sc_dt5sc_bvILi5EEEEERNS_9allocatorIS7_EEE17__destruct_at_endB8ue170006EPS7_, symObjAddr: 0x11694, symBinAddr: 0x100014BB0, symSize: 0x2C }
  - { offsetInCU: 0x69FBE, offset: 0x69FBE, size: 0x8, addend: 0x0, symName: __ZNSt3__114__split_bufferIPN7sc_core15sc_signal_in_ifIN5sc_dt5sc_bvILi5EEEEERNS_9allocatorIS7_EEE17__destruct_at_endB8ue170006EPS7_NS_17integral_constantIbLb0EEE, symObjAddr: 0x116C0, symBinAddr: 0x100014BDC, symSize: 0x80 }
  - { offsetInCU: 0x69FFF, offset: 0x69FFF, size: 0x8, addend: 0x0, symName: __ZNKSt3__114__split_bufferIPN7sc_core15sc_signal_in_ifIN5sc_dt5sc_bvILi5EEEEERNS_9allocatorIS7_EEE9__end_capB8ue170006Ev, symObjAddr: 0x11740, symBinAddr: 0x100014C5C, symSize: 0x28 }
  - { offsetInCU: 0x6A025, offset: 0x6A025, size: 0x8, addend: 0x0, symName: __ZNKSt3__117__compressed_pairIPPN7sc_core15sc_signal_in_ifIN5sc_dt5sc_bvILi5EEEEERNS_9allocatorIS7_EEE5firstB8ue170006Ev, symObjAddr: 0x11768, symBinAddr: 0x100014C84, symSize: 0x24 }
  - { offsetInCU: 0x6A04B, offset: 0x6A04B, size: 0x8, addend: 0x0, symName: __ZNK7sc_core5sc_inIN5sc_dt5sc_bvILi5EEEE13remove_tracesEv, symObjAddr: 0x1178C, symBinAddr: 0x100014CA8, symSize: 0xF4 }
  - { offsetInCU: 0x6A091, offset: 0x6A091, size: 0x8, addend: 0x0, symName: __ZNKSt3__16vectorIPN7sc_core15sc_signal_in_ifIN5sc_dt5sc_bvILi5EEEEENS_9allocatorIS7_EEEixB8ue170006Em, symObjAddr: 0x11880, symBinAddr: 0x100014D9C, symSize: 0x24 }
  - { offsetInCU: 0x6A0C8, offset: 0x6A0C8, size: 0x8, addend: 0x0, symName: __ZNK7sc_core5sc_inIN5sc_dt5sc_bvILi5EEEE4readEv, symObjAddr: 0x118A4, symBinAddr: 0x100014DC0, symSize: 0x30 }
  - { offsetInCU: 0x6A0EE, offset: 0x6A0EE, size: 0x8, addend: 0x0, symName: __ZNK7sc_core9sc_port_bINS_15sc_signal_in_ifIN5sc_dt5sc_bvILi5EEEEEEptEv, symObjAddr: 0x118D4, symBinAddr: 0x100014DF0, symSize: 0x24 }
  - { offsetInCU: 0x6A116, offset: 0x6A116, size: 0x8, addend: 0x0, symName: __ZN7sc_core9sc_port_bINS_15sc_signal_in_ifIN5sc_dt5sc_bvILi5EEEEEEptEv, symObjAddr: 0x118F8, symBinAddr: 0x100014E14, symSize: 0x5C }
  - { offsetInCU: 0x6A13E, offset: 0x6A13E, size: 0x8, addend: 0x0, symName: __ZN7sc_core5sc_inIN5sc_dt5sc_bvILi5EEEED2Ev, symObjAddr: 0x11954, symBinAddr: 0x100014E70, symSize: 0x7C }
  - { offsetInCU: 0x6A168, offset: 0x6A168, size: 0x8, addend: 0x0, symName: __ZN3ALUC2EN7sc_core14sc_module_nameE, symObjAddr: 0x119D0, symBinAddr: 0x100014EEC, symSize: 0x314 }
  - { offsetInCU: 0x6A1B2, offset: 0x6A1B2, size: 0x8, addend: 0x0, symName: __ZN7sc_core5sc_inIN5sc_dt5sc_bvILi3EEEEC1Ev, symObjAddr: 0x11CE4, symBinAddr: 0x100015200, symSize: 0x2C }
  - { offsetInCU: 0x6A1DC, offset: 0x6A1DC, size: 0x8, addend: 0x0, symName: __ZN7sc_core6sc_outIbEC1Ev, symObjAddr: 0x11D10, symBinAddr: 0x10001522C, symSize: 0x2C }
  - { offsetInCU: 0x6A206, offset: 0x6A206, size: 0x8, addend: 0x0, symName: __ZN3ALU9behaviourEv, symObjAddr: 0x11D3C, symBinAddr: 0x100015258, symSize: 0x28C }
  - { offsetInCU: 0x6A281, offset: 0x6A281, size: 0x8, addend: 0x0, symName: __ZN7sc_core6sc_outIbED1Ev, symObjAddr: 0x11FE4, symBinAddr: 0x100015500, symSize: 0x2C }
  - { offsetInCU: 0x6A2AB, offset: 0x6A2AB, size: 0x8, addend: 0x0, symName: __ZN7sc_core5sc_inIN5sc_dt5sc_bvILi3EEEED1Ev, symObjAddr: 0x12010, symBinAddr: 0x10001552C, symSize: 0x2C }
  - { offsetInCU: 0x6A2D5, offset: 0x6A2D5, size: 0x8, addend: 0x0, symName: __ZN3ALUD0Ev, symObjAddr: 0x1203C, symBinAddr: 0x100015558, symSize: 0x30 }
  - { offsetInCU: 0x6A301, offset: 0x6A301, size: 0x8, addend: 0x0, symName: __ZThn104_N3ALUD1Ev, symObjAddr: 0x1206C, symBinAddr: 0x100015588, symSize: 0x1C }
  - { offsetInCU: 0x6A317, offset: 0x6A317, size: 0x8, addend: 0x0, symName: __ZThn104_N3ALUD0Ev, symObjAddr: 0x12088, symBinAddr: 0x1000155A4, symSize: 0x18 }
  - { offsetInCU: 0x6A32D, offset: 0x6A32D, size: 0x8, addend: 0x0, symName: __ZN7sc_core5sc_inIN5sc_dt5sc_bvILi3EEEEC2Ev, symObjAddr: 0x120A0, symBinAddr: 0x1000155BC, symSize: 0x4C }
  - { offsetInCU: 0x6A357, offset: 0x6A357, size: 0x8, addend: 0x0, symName: __ZN7sc_core7sc_portINS_15sc_signal_in_ifIN5sc_dt5sc_bvILi3EEEEELi1ELNS_14sc_port_policyE0EEC2Ev, symObjAddr: 0x120EC, symBinAddr: 0x100015608, symSize: 0x4C }
  - { offsetInCU: 0x6A381, offset: 0x6A381, size: 0x8, addend: 0x0, symName: __ZNK7sc_core5sc_inIN5sc_dt5sc_bvILi3EEEE4kindEv, symObjAddr: 0x12138, symBinAddr: 0x100015654, symSize: 0x18 }
  - { offsetInCU: 0x6A3A7, offset: 0x6A3A7, size: 0x8, addend: 0x0, symName: __ZN7sc_core5sc_inIN5sc_dt5sc_bvILi3EEEED0Ev, symObjAddr: 0x12150, symBinAddr: 0x10001566C, symSize: 0x30 }
  - { offsetInCU: 0x6A3D1, offset: 0x6A3D1, size: 0x8, addend: 0x0, symName: __ZN7sc_core9sc_port_bINS_15sc_signal_in_ifIN5sc_dt5sc_bvILi3EEEEEE13get_interfaceEv, symObjAddr: 0x12180, symBinAddr: 0x10001569C, symSize: 0x50 }
  - { offsetInCU: 0x6A3F7, offset: 0x6A3F7, size: 0x8, addend: 0x0, symName: __ZNK7sc_core9sc_port_bINS_15sc_signal_in_ifIN5sc_dt5sc_bvILi3EEEEEE13get_interfaceEv, symObjAddr: 0x121D0, symBinAddr: 0x1000156EC, symSize: 0x50 }
  - { offsetInCU: 0x6A41D, offset: 0x6A41D, size: 0x8, addend: 0x0, symName: __ZNK7sc_core9sc_port_bINS_15sc_signal_in_ifIN5sc_dt5sc_bvILi3EEEEEE18get_interface_typeEv, symObjAddr: 0x12220, symBinAddr: 0x10001573C, symSize: 0x30 }
  - { offsetInCU: 0x6A445, offset: 0x6A445, size: 0x8, addend: 0x0, symName: __ZN7sc_core5sc_inIN5sc_dt5sc_bvILi3EEEE5vbindERNS_12sc_interfaceE, symObjAddr: 0x12250, symBinAddr: 0x10001576C, symSize: 0x2C }
  - { offsetInCU: 0x6A47C, offset: 0x6A47C, size: 0x8, addend: 0x0, symName: __ZN7sc_core5sc_inIN5sc_dt5sc_bvILi3EEEE5vbindERNS_12sc_port_baseE, symObjAddr: 0x1227C, symBinAddr: 0x100015798, symSize: 0x128 }
  - { offsetInCU: 0x6A4D1, offset: 0x6A4D1, size: 0x8, addend: 0x0, symName: __ZN7sc_core9sc_port_bINS_15sc_signal_in_ifIN5sc_dt5sc_bvILi3EEEEEE13add_interfaceEPNS_12sc_interfaceE, symObjAddr: 0x123A4, symBinAddr: 0x1000158C0, symSize: 0x160 }
  - { offsetInCU: 0x6A544, offset: 0x6A544, size: 0x8, addend: 0x0, symName: __ZNK7sc_core9sc_port_bINS_15sc_signal_in_ifIN5sc_dt5sc_bvILi3EEEEEE15interface_countEv, symObjAddr: 0x12504, symBinAddr: 0x100015A20, symSize: 0x24 }
  - { offsetInCU: 0x6A56C, offset: 0x6A56C, size: 0x8, addend: 0x0, symName: __ZN7sc_core5sc_inIN5sc_dt5sc_bvILi3EEEE18end_of_elaborationEv, symObjAddr: 0x12528, symBinAddr: 0x100015A44, symSize: 0x134 }
  - { offsetInCU: 0x6A5DF, offset: 0x6A5DF, size: 0x8, addend: 0x0, symName: __ZNK7sc_core9sc_port_bINS_15sc_signal_in_ifIN5sc_dt5sc_bvILi3EEEEEE14make_sensitiveEPNS_17sc_thread_processEPNS_15sc_event_finderE, symObjAddr: 0x1265C, symBinAddr: 0x100015B78, symSize: 0x114 }
  - { offsetInCU: 0x6A67F, offset: 0x6A67F, size: 0x8, addend: 0x0, symName: __ZNK7sc_core9sc_port_bINS_15sc_signal_in_ifIN5sc_dt5sc_bvILi3EEEEEE14make_sensitiveEPNS_17sc_method_processEPNS_15sc_event_finderE, symObjAddr: 0x12770, symBinAddr: 0x100015C8C, symSize: 0x114 }
  - { offsetInCU: 0x6A71F, offset: 0x6A71F, size: 0x8, addend: 0x0, symName: __ZN7sc_core5sc_inIN5sc_dt5sc_bvILi3EEEE4bindERNS_9sc_port_bINS_15sc_signal_in_ifIS3_EEEE, symObjAddr: 0x12884, symBinAddr: 0x100015DA0, symSize: 0x2C }
  - { offsetInCU: 0x6A754, offset: 0x6A754, size: 0x8, addend: 0x0, symName: __ZN7sc_core5sc_inIN5sc_dt5sc_bvILi3EEEE4bindERKNS_15sc_signal_in_ifIS3_EE, symObjAddr: 0x128B0, symBinAddr: 0x100015DCC, symSize: 0x38 }
  - { offsetInCU: 0x6A788, offset: 0x6A788, size: 0x8, addend: 0x0, symName: __ZN7sc_core5sc_inIN5sc_dt5sc_bvILi3EEEE4bindERNS_7sc_portINS_15sc_signal_in_ifIS3_EELi1ELNS_14sc_port_policyE0EEE, symObjAddr: 0x128E8, symBinAddr: 0x100015E04, symSize: 0x2C }
  - { offsetInCU: 0x6A7BC, offset: 0x6A7BC, size: 0x8, addend: 0x0, symName: __ZN7sc_core5sc_inIN5sc_dt5sc_bvILi3EEEE4bindERNS_7sc_portINS_18sc_signal_inout_ifIS3_EELi1ELNS_14sc_port_policyE0EEE, symObjAddr: 0x12914, symBinAddr: 0x100015E30, symSize: 0x2C }
  - { offsetInCU: 0x6A7F0, offset: 0x6A7F0, size: 0x8, addend: 0x0, symName: __ZN7sc_core9sc_port_bINS_15sc_signal_in_ifIN5sc_dt5sc_bvILi3EEEEEEC2EiNS_14sc_port_policyE, symObjAddr: 0x12940, symBinAddr: 0x100015E5C, symSize: 0x64 }
  - { offsetInCU: 0x6A838, offset: 0x6A838, size: 0x8, addend: 0x0, symName: __ZNK7sc_core7sc_portINS_15sc_signal_in_ifIN5sc_dt5sc_bvILi3EEEEELi1ELNS_14sc_port_policyE0EE4kindEv, symObjAddr: 0x129A4, symBinAddr: 0x100015EC0, symSize: 0x18 }
  - { offsetInCU: 0x6A85E, offset: 0x6A85E, size: 0x8, addend: 0x0, symName: __ZN7sc_core7sc_portINS_15sc_signal_in_ifIN5sc_dt5sc_bvILi3EEEEELi1ELNS_14sc_port_policyE0EED1Ev, symObjAddr: 0x129BC, symBinAddr: 0x100015ED8, symSize: 0x2C }
  - { offsetInCU: 0x6A888, offset: 0x6A888, size: 0x8, addend: 0x0, symName: __ZN7sc_core7sc_portINS_15sc_signal_in_ifIN5sc_dt5sc_bvILi3EEEEELi1ELNS_14sc_port_policyE0EED0Ev, symObjAddr: 0x129E8, symBinAddr: 0x100015F04, symSize: 0x30 }
  - { offsetInCU: 0x6A8B2, offset: 0x6A8B2, size: 0x8, addend: 0x0, symName: __ZN7sc_core9sc_port_bINS_15sc_signal_in_ifIN5sc_dt5sc_bvILi3EEEEEE5vbindERNS_12sc_interfaceE, symObjAddr: 0x12A18, symBinAddr: 0x100015F34, symSize: 0xBC }
  - { offsetInCU: 0x6A8F8, offset: 0x6A8F8, size: 0x8, addend: 0x0, symName: __ZN7sc_core9sc_port_bINS_15sc_signal_in_ifIN5sc_dt5sc_bvILi3EEEEEE5vbindERNS_12sc_port_baseE, symObjAddr: 0x12AD4, symBinAddr: 0x100015FF0, symSize: 0xB0 }
  - { offsetInCU: 0x6A93E, offset: 0x6A93E, size: 0x8, addend: 0x0, symName: __ZN7sc_core9sc_port_bINS_15sc_signal_in_ifIN5sc_dt5sc_bvILi3EEEEEE4bindERS5_, symObjAddr: 0x12B84, symBinAddr: 0x1000160A0, symSize: 0x38 }
  - { offsetInCU: 0x6A973, offset: 0x6A973, size: 0x8, addend: 0x0, symName: __ZN7sc_core9sc_port_bINS_15sc_signal_in_ifIN5sc_dt5sc_bvILi3EEEEEE4bindERS6_, symObjAddr: 0x12BBC, symBinAddr: 0x1000160D8, symSize: 0x2C }
  - { offsetInCU: 0x6A9A8, offset: 0x6A9A8, size: 0x8, addend: 0x0, symName: __ZNSt3__16vectorIPN7sc_core15sc_signal_in_ifIN5sc_dt5sc_bvILi3EEEEENS_9allocatorIS7_EEEC1B8ue170006Ev, symObjAddr: 0x12BE8, symBinAddr: 0x100016104, symSize: 0x2C }
  - { offsetInCU: 0x6A9D2, offset: 0x6A9D2, size: 0x8, addend: 0x0, symName: __ZN7sc_core9sc_port_bINS_15sc_signal_in_ifIN5sc_dt5sc_bvILi3EEEEEED1Ev, symObjAddr: 0x12C14, symBinAddr: 0x100016130, symSize: 0x2C }
  - { offsetInCU: 0x6A9FC, offset: 0x6A9FC, size: 0x8, addend: 0x0, symName: __ZN7sc_core9sc_port_bINS_15sc_signal_in_ifIN5sc_dt5sc_bvILi3EEEEEED0Ev, symObjAddr: 0x12C40, symBinAddr: 0x10001615C, symSize: 0x30 }
  - { offsetInCU: 0x6AA26, offset: 0x6AA26, size: 0x8, addend: 0x0, symName: __ZNSt3__16vectorIPN7sc_core15sc_signal_in_ifIN5sc_dt5sc_bvILi3EEEEENS_9allocatorIS7_EEEC2B8ue170006Ev, symObjAddr: 0x12C70, symBinAddr: 0x10001618C, symSize: 0x4C }
  - { offsetInCU: 0x6AA50, offset: 0x6AA50, size: 0x8, addend: 0x0, symName: __ZNSt3__117__compressed_pairIPPN7sc_core15sc_signal_in_ifIN5sc_dt5sc_bvILi3EEEEENS_9allocatorIS7_EEEC1B8ue170006IDnNS_18__default_init_tagEEEOT_OT0_, symObjAddr: 0x12CBC, symBinAddr: 0x1000161D8, symSize: 0x3C }
  - { offsetInCU: 0x6AAA8, offset: 0x6AAA8, size: 0x8, addend: 0x0, symName: __ZNSt3__117__compressed_pairIPPN7sc_core15sc_signal_in_ifIN5sc_dt5sc_bvILi3EEEEENS_9allocatorIS7_EEEC2B8ue170006IDnNS_18__default_init_tagEEEOT_OT0_, symObjAddr: 0x12CF8, symBinAddr: 0x100016214, symSize: 0x40 }
  - { offsetInCU: 0x6AB00, offset: 0x6AB00, size: 0x8, addend: 0x0, symName: __ZNSt3__122__compressed_pair_elemIPPN7sc_core15sc_signal_in_ifIN5sc_dt5sc_bvILi3EEEEELi0ELb0EEC2B8ue170006IDnvEEOT_, symObjAddr: 0x12D38, symBinAddr: 0x100016254, symSize: 0x1C }
  - { offsetInCU: 0x6AB42, offset: 0x6AB42, size: 0x8, addend: 0x0, symName: __ZNSt3__122__compressed_pair_elemINS_9allocatorIPN7sc_core15sc_signal_in_ifIN5sc_dt5sc_bvILi3EEEEEEELi1ELb1EEC2B8ue170006ENS_18__default_init_tagE, symObjAddr: 0x12D54, symBinAddr: 0x100016270, symSize: 0x2C }
  - { offsetInCU: 0x6AB77, offset: 0x6AB77, size: 0x8, addend: 0x0, symName: __ZNSt3__19allocatorIPN7sc_core15sc_signal_in_ifIN5sc_dt5sc_bvILi3EEEEEEC2B8ue170006Ev, symObjAddr: 0x12D80, symBinAddr: 0x10001629C, symSize: 0x2C }
  - { offsetInCU: 0x6ABA1, offset: 0x6ABA1, size: 0x8, addend: 0x0, symName: __ZNSt3__116__non_trivial_ifILb1ENS_9allocatorIPN7sc_core15sc_signal_in_ifIN5sc_dt5sc_bvILi3EEEEEEEEC2B8ue170006Ev, symObjAddr: 0x12DAC, symBinAddr: 0x1000162C8, symSize: 0x14 }
  - { offsetInCU: 0x6ABCB, offset: 0x6ABCB, size: 0x8, addend: 0x0, symName: __ZN7sc_core9sc_port_bINS_15sc_signal_in_ifIN5sc_dt5sc_bvILi3EEEEEED2Ev, symObjAddr: 0x12DC0, symBinAddr: 0x1000162DC, symSize: 0x48 }
  - { offsetInCU: 0x6ABF5, offset: 0x6ABF5, size: 0x8, addend: 0x0, symName: __ZNSt3__16vectorIPN7sc_core15sc_signal_in_ifIN5sc_dt5sc_bvILi3EEEEENS_9allocatorIS7_EEED1B8ue170006Ev, symObjAddr: 0x12E08, symBinAddr: 0x100016324, symSize: 0x2C }
  - { offsetInCU: 0x6AC1F, offset: 0x6AC1F, size: 0x8, addend: 0x0, symName: __ZNSt3__16vectorIPN7sc_core15sc_signal_in_ifIN5sc_dt5sc_bvILi3EEEEENS_9allocatorIS7_EEED2B8ue170006Ev, symObjAddr: 0x12E34, symBinAddr: 0x100016350, symSize: 0x44 }
  - { offsetInCU: 0x6AC49, offset: 0x6AC49, size: 0x8, addend: 0x0, symName: __ZNSt3__16vectorIPN7sc_core15sc_signal_in_ifIN5sc_dt5sc_bvILi3EEEEENS_9allocatorIS7_EEE16__destroy_vectorC1B8ue170006ERSA_, symObjAddr: 0x12E78, symBinAddr: 0x100016394, symSize: 0x34 }
  - { offsetInCU: 0x6AC82, offset: 0x6AC82, size: 0x8, addend: 0x0, symName: __ZNSt3__16vectorIPN7sc_core15sc_signal_in_ifIN5sc_dt5sc_bvILi3EEEEENS_9allocatorIS7_EEE16__destroy_vectorclB8ue170006Ev, symObjAddr: 0x12EAC, symBinAddr: 0x1000163C8, symSize: 0x90 }
  - { offsetInCU: 0x6ACA8, offset: 0x6ACA8, size: 0x8, addend: 0x0, symName: __ZNSt3__16vectorIPN7sc_core15sc_signal_in_ifIN5sc_dt5sc_bvILi3EEEEENS_9allocatorIS7_EEE16__destroy_vectorC2B8ue170006ERSA_, symObjAddr: 0x12F3C, symBinAddr: 0x100016458, symSize: 0x20 }
  - { offsetInCU: 0x6ACE1, offset: 0x6ACE1, size: 0x8, addend: 0x0, symName: __ZNSt3__16vectorIPN7sc_core15sc_signal_in_ifIN5sc_dt5sc_bvILi3EEEEENS_9allocatorIS7_EEE7__clearB8ue170006Ev, symObjAddr: 0x12F5C, symBinAddr: 0x100016478, symSize: 0x28 }
  - { offsetInCU: 0x6AD07, offset: 0x6AD07, size: 0x8, addend: 0x0, symName: __ZNKSt3__16vectorIPN7sc_core15sc_signal_in_ifIN5sc_dt5sc_bvILi3EEEEENS_9allocatorIS7_EEE17__annotate_deleteB8ue170006Ev, symObjAddr: 0x12F84, symBinAddr: 0x1000164A0, symSize: 0xB8 }
  - { offsetInCU: 0x6AD2D, offset: 0x6AD2D, size: 0x8, addend: 0x0, symName: __ZNSt3__116allocator_traitsINS_9allocatorIPN7sc_core15sc_signal_in_ifIN5sc_dt5sc_bvILi3EEEEEEEE10deallocateB8ue170006ERS9_PS8_m, symObjAddr: 0x1303C, symBinAddr: 0x100016558, symSize: 0x34 }
  - { offsetInCU: 0x6AD6F, offset: 0x6AD6F, size: 0x8, addend: 0x0, symName: __ZNSt3__16vectorIPN7sc_core15sc_signal_in_ifIN5sc_dt5sc_bvILi3EEEEENS_9allocatorIS7_EEE7__allocB8ue170006Ev, symObjAddr: 0x13070, symBinAddr: 0x10001658C, symSize: 0x28 }
  - { offsetInCU: 0x6AD95, offset: 0x6AD95, size: 0x8, addend: 0x0, symName: __ZNKSt3__16vectorIPN7sc_core15sc_signal_in_ifIN5sc_dt5sc_bvILi3EEEEENS_9allocatorIS7_EEE8capacityB8ue170006Ev, symObjAddr: 0x13098, symBinAddr: 0x1000165B4, symSize: 0x40 }
  - { offsetInCU: 0x6ADBB, offset: 0x6ADBB, size: 0x8, addend: 0x0, symName: __ZNSt3__16vectorIPN7sc_core15sc_signal_in_ifIN5sc_dt5sc_bvILi3EEEEENS_9allocatorIS7_EEE22__base_destruct_at_endB8ue170006EPS7_, symObjAddr: 0x130D8, symBinAddr: 0x1000165F4, symSize: 0x8C }
  - { offsetInCU: 0x6ADFF, offset: 0x6ADFF, size: 0x8, addend: 0x0, symName: __ZNSt3__116allocator_traitsINS_9allocatorIPN7sc_core15sc_signal_in_ifIN5sc_dt5sc_bvILi3EEEEEEEE7destroyB8ue170006IS8_vEEvRS9_PT_, symObjAddr: 0x13164, symBinAddr: 0x100016680, symSize: 0x2C }
  - { offsetInCU: 0x6AE3C, offset: 0x6AE3C, size: 0x8, addend: 0x0, symName: __ZNSt3__19allocatorIPN7sc_core15sc_signal_in_ifIN5sc_dt5sc_bvILi3EEEEEE7destroyB8ue170006EPS7_, symObjAddr: 0x131A4, symBinAddr: 0x1000166C0, symSize: 0x14 }
  - { offsetInCU: 0x6AE70, offset: 0x6AE70, size: 0x8, addend: 0x0, symName: __ZNKSt3__16vectorIPN7sc_core15sc_signal_in_ifIN5sc_dt5sc_bvILi3EEEEENS_9allocatorIS7_EEE31__annotate_contiguous_containerB8ue170006EPKvSC_SC_SC_, symObjAddr: 0x131B8, symBinAddr: 0x1000166D4, symSize: 0x20 }
  - { offsetInCU: 0x6AEC6, offset: 0x6AEC6, size: 0x8, addend: 0x0, symName: __ZNKSt3__16vectorIPN7sc_core15sc_signal_in_ifIN5sc_dt5sc_bvILi3EEEEENS_9allocatorIS7_EEE4dataB8ue170006Ev, symObjAddr: 0x131D8, symBinAddr: 0x1000166F4, symSize: 0x28 }
  - { offsetInCU: 0x6AEEC, offset: 0x6AEEC, size: 0x8, addend: 0x0, symName: __ZNKSt3__16vectorIPN7sc_core15sc_signal_in_ifIN5sc_dt5sc_bvILi3EEEEENS_9allocatorIS7_EEE4sizeB8ue170006Ev, symObjAddr: 0x13200, symBinAddr: 0x10001671C, symSize: 0x28 }
  - { offsetInCU: 0x6AF12, offset: 0x6AF12, size: 0x8, addend: 0x0, symName: __ZNSt3__19allocatorIPN7sc_core15sc_signal_in_ifIN5sc_dt5sc_bvILi3EEEEEE10deallocateB8ue170006EPS7_m, symObjAddr: 0x13228, symBinAddr: 0x100016744, symSize: 0x40 }
  - { offsetInCU: 0x6AF54, offset: 0x6AF54, size: 0x8, addend: 0x0, symName: __ZNSt3__117__compressed_pairIPPN7sc_core15sc_signal_in_ifIN5sc_dt5sc_bvILi3EEEEENS_9allocatorIS7_EEE6secondB8ue170006Ev, symObjAddr: 0x13268, symBinAddr: 0x100016784, symSize: 0x24 }
  - { offsetInCU: 0x6AF7A, offset: 0x6AF7A, size: 0x8, addend: 0x0, symName: __ZNSt3__122__compressed_pair_elemINS_9allocatorIPN7sc_core15sc_signal_in_ifIN5sc_dt5sc_bvILi3EEEEEEELi1ELb1EE5__getB8ue170006Ev, symObjAddr: 0x1328C, symBinAddr: 0x1000167A8, symSize: 0x14 }
  - { offsetInCU: 0x6AFA0, offset: 0x6AFA0, size: 0x8, addend: 0x0, symName: __ZNKSt3__16vectorIPN7sc_core15sc_signal_in_ifIN5sc_dt5sc_bvILi3EEEEENS_9allocatorIS7_EEE9__end_capB8ue170006Ev, symObjAddr: 0x132A0, symBinAddr: 0x1000167BC, symSize: 0x28 }
  - { offsetInCU: 0x6AFC6, offset: 0x6AFC6, size: 0x8, addend: 0x0, symName: __ZNKSt3__117__compressed_pairIPPN7sc_core15sc_signal_in_ifIN5sc_dt5sc_bvILi3EEEEENS_9allocatorIS7_EEE5firstB8ue170006Ev, symObjAddr: 0x132C8, symBinAddr: 0x1000167E4, symSize: 0x24 }
  - { offsetInCU: 0x6AFEC, offset: 0x6AFEC, size: 0x8, addend: 0x0, symName: __ZNKSt3__122__compressed_pair_elemIPPN7sc_core15sc_signal_in_ifIN5sc_dt5sc_bvILi3EEEEELi0ELb0EE5__getB8ue170006Ev, symObjAddr: 0x132EC, symBinAddr: 0x100016808, symSize: 0x14 }
  - { offsetInCU: 0x6B012, offset: 0x6B012, size: 0x8, addend: 0x0, symName: __ZN7sc_core7sc_portINS_15sc_signal_in_ifIN5sc_dt5sc_bvILi3EEEEELi1ELNS_14sc_port_policyE0EED2Ev, symObjAddr: 0x13300, symBinAddr: 0x10001681C, symSize: 0x2C }
  - { offsetInCU: 0x6B03C, offset: 0x6B03C, size: 0x8, addend: 0x0, symName: __ZNK7sc_core9sc_port_bINS_15sc_signal_in_ifIN5sc_dt5sc_bvILi3EEEEEE4sizeEv, symObjAddr: 0x1332C, symBinAddr: 0x100016848, symSize: 0x28 }
  - { offsetInCU: 0x6B062, offset: 0x6B062, size: 0x8, addend: 0x0, symName: __ZNSt3__16vectorIPN7sc_core15sc_signal_in_ifIN5sc_dt5sc_bvILi3EEEEENS_9allocatorIS7_EEEixB8ue170006Em, symObjAddr: 0x13354, symBinAddr: 0x100016870, symSize: 0x24 }
  - { offsetInCU: 0x6B099, offset: 0x6B099, size: 0x8, addend: 0x0, symName: __ZNSt3__16vectorIPN7sc_core15sc_signal_in_ifIN5sc_dt5sc_bvILi3EEEEENS_9allocatorIS7_EEE9push_backB8ue170006ERKS7_, symObjAddr: 0x13378, symBinAddr: 0x100016894, symSize: 0x6C }
  - { offsetInCU: 0x6B0D0, offset: 0x6B0D0, size: 0x8, addend: 0x0, symName: __ZNSt3__16vectorIPN7sc_core15sc_signal_in_ifIN5sc_dt5sc_bvILi3EEEEENS_9allocatorIS7_EEE9__end_capB8ue170006Ev, symObjAddr: 0x133E4, symBinAddr: 0x100016900, symSize: 0x28 }
  - { offsetInCU: 0x6B0F6, offset: 0x6B0F6, size: 0x8, addend: 0x0, symName: __ZNSt3__16vectorIPN7sc_core15sc_signal_in_ifIN5sc_dt5sc_bvILi3EEEEENS_9allocatorIS7_EEE22__construct_one_at_endB8ue170006IJRKS7_EEEvDpOT_, symObjAddr: 0x1340C, symBinAddr: 0x100016928, symSize: 0x90 }
  - { offsetInCU: 0x6B145, offset: 0x6B145, size: 0x8, addend: 0x0, symName: __ZNSt3__16vectorIPN7sc_core15sc_signal_in_ifIN5sc_dt5sc_bvILi3EEEEENS_9allocatorIS7_EEE21__push_back_slow_pathIRKS7_EEvOT_, symObjAddr: 0x1349C, symBinAddr: 0x1000169B8, symSize: 0xD8 }
  - { offsetInCU: 0x6B1A3, offset: 0x6B1A3, size: 0x8, addend: 0x0, symName: __ZNSt3__117__compressed_pairIPPN7sc_core15sc_signal_in_ifIN5sc_dt5sc_bvILi3EEEEENS_9allocatorIS7_EEE5firstB8ue170006Ev, symObjAddr: 0x13574, symBinAddr: 0x100016A90, symSize: 0x24 }
  - { offsetInCU: 0x6B1C9, offset: 0x6B1C9, size: 0x8, addend: 0x0, symName: __ZNSt3__122__compressed_pair_elemIPPN7sc_core15sc_signal_in_ifIN5sc_dt5sc_bvILi3EEEEELi0ELb0EE5__getB8ue170006Ev, symObjAddr: 0x13598, symBinAddr: 0x100016AB4, symSize: 0x14 }
  - { offsetInCU: 0x6B20A, offset: 0x6B20A, size: 0x8, addend: 0x0, symName: __ZNSt3__16vectorIPN7sc_core15sc_signal_in_ifIN5sc_dt5sc_bvILi3EEEEENS_9allocatorIS7_EEE21_ConstructTransactionC1B8ue170006ERSA_m, symObjAddr: 0x135AC, symBinAddr: 0x100016AC8, symSize: 0x3C }
  - { offsetInCU: 0x6B252, offset: 0x6B252, size: 0x8, addend: 0x0, symName: __ZNSt3__116allocator_traitsINS_9allocatorIPN7sc_core15sc_signal_in_ifIN5sc_dt5sc_bvILi3EEEEEEEE9constructB8ue170006IS8_JRKS8_EvEEvRS9_PT_DpOT0_, symObjAddr: 0x135E8, symBinAddr: 0x100016B04, symSize: 0x34 }
  - { offsetInCU: 0x6B2A9, offset: 0x6B2A9, size: 0x8, addend: 0x0, symName: __ZNSt3__16vectorIPN7sc_core15sc_signal_in_ifIN5sc_dt5sc_bvILi3EEEEENS_9allocatorIS7_EEE21_ConstructTransactionD1B8ue170006Ev, symObjAddr: 0x1361C, symBinAddr: 0x100016B38, symSize: 0x2C }
  - { offsetInCU: 0x6B2D3, offset: 0x6B2D3, size: 0x8, addend: 0x0, symName: __ZNSt3__16vectorIPN7sc_core15sc_signal_in_ifIN5sc_dt5sc_bvILi3EEEEENS_9allocatorIS7_EEE21_ConstructTransactionC2B8ue170006ERSA_m, symObjAddr: 0x13648, symBinAddr: 0x100016B64, symSize: 0x44 }
  - { offsetInCU: 0x6B31B, offset: 0x6B31B, size: 0x8, addend: 0x0, symName: __ZNSt3__19allocatorIPN7sc_core15sc_signal_in_ifIN5sc_dt5sc_bvILi3EEEEEE9constructB8ue170006IS7_JRKS7_EEEvPT_DpOT0_, symObjAddr: 0x1368C, symBinAddr: 0x100016BA8, symSize: 0x28 }
  - { offsetInCU: 0x6B371, offset: 0x6B371, size: 0x8, addend: 0x0, symName: __ZNSt3__16vectorIPN7sc_core15sc_signal_in_ifIN5sc_dt5sc_bvILi3EEEEENS_9allocatorIS7_EEE21_ConstructTransactionD2B8ue170006Ev, symObjAddr: 0x136B4, symBinAddr: 0x100016BD0, symSize: 0x20 }
  - { offsetInCU: 0x6B39B, offset: 0x6B39B, size: 0x8, addend: 0x0, symName: __ZNKSt3__16vectorIPN7sc_core15sc_signal_in_ifIN5sc_dt5sc_bvILi3EEEEENS_9allocatorIS7_EEE11__recommendB8ue170006Em, symObjAddr: 0x136D4, symBinAddr: 0x100016BF0, symSize: 0xB4 }
  - { offsetInCU: 0x6B3F0, offset: 0x6B3F0, size: 0x8, addend: 0x0, symName: __ZNSt3__114__split_bufferIPN7sc_core15sc_signal_in_ifIN5sc_dt5sc_bvILi3EEEEERNS_9allocatorIS7_EEEC1EmmSA_, symObjAddr: 0x13788, symBinAddr: 0x100016CA4, symSize: 0x44 }
  - { offsetInCU: 0x6B446, offset: 0x6B446, size: 0x8, addend: 0x0, symName: __ZNSt3__114__split_bufferIPN7sc_core15sc_signal_in_ifIN5sc_dt5sc_bvILi3EEEEERNS_9allocatorIS7_EEED1Ev, symObjAddr: 0x138DC, symBinAddr: 0x100016DF8, symSize: 0x2C }
  - { offsetInCU: 0x6B472, offset: 0x6B472, size: 0x8, addend: 0x0, symName: __ZNKSt3__16vectorIPN7sc_core15sc_signal_in_ifIN5sc_dt5sc_bvILi3EEEEENS_9allocatorIS7_EEE8max_sizeEv, symObjAddr: 0x13908, symBinAddr: 0x100016E24, symSize: 0x60 }
  - { offsetInCU: 0x6B49A, offset: 0x6B49A, size: 0x8, addend: 0x0, symName: __ZNKSt3__16vectorIPN7sc_core15sc_signal_in_ifIN5sc_dt5sc_bvILi3EEEEENS_9allocatorIS7_EEE20__throw_length_errorB8ue170006Ev, symObjAddr: 0x13968, symBinAddr: 0x100016E84, symSize: 0x1C }
  - { offsetInCU: 0x6B4CB, offset: 0x6B4CB, size: 0x8, addend: 0x0, symName: __ZNSt3__116allocator_traitsINS_9allocatorIPN7sc_core15sc_signal_in_ifIN5sc_dt5sc_bvILi3EEEEEEEE8max_sizeB8ue170006IS9_vEEmRKS9_, symObjAddr: 0x13984, symBinAddr: 0x100016EA0, symSize: 0x24 }
  - { offsetInCU: 0x6B4F9, offset: 0x6B4F9, size: 0x8, addend: 0x0, symName: __ZNKSt3__16vectorIPN7sc_core15sc_signal_in_ifIN5sc_dt5sc_bvILi3EEEEENS_9allocatorIS7_EEE7__allocB8ue170006Ev, symObjAddr: 0x139A8, symBinAddr: 0x100016EC4, symSize: 0x28 }
  - { offsetInCU: 0x6B51F, offset: 0x6B51F, size: 0x8, addend: 0x0, symName: __ZNKSt3__19allocatorIPN7sc_core15sc_signal_in_ifIN5sc_dt5sc_bvILi3EEEEEE8max_sizeB8ue170006Ev, symObjAddr: 0x139D0, symBinAddr: 0x100016EEC, symSize: 0x14 }
  - { offsetInCU: 0x6B545, offset: 0x6B545, size: 0x8, addend: 0x0, symName: __ZNKSt3__117__compressed_pairIPPN7sc_core15sc_signal_in_ifIN5sc_dt5sc_bvILi3EEEEENS_9allocatorIS7_EEE6secondB8ue170006Ev, symObjAddr: 0x139E4, symBinAddr: 0x100016F00, symSize: 0x24 }
  - { offsetInCU: 0x6B56B, offset: 0x6B56B, size: 0x8, addend: 0x0, symName: __ZNKSt3__122__compressed_pair_elemINS_9allocatorIPN7sc_core15sc_signal_in_ifIN5sc_dt5sc_bvILi3EEEEEEELi1ELb1EE5__getB8ue170006Ev, symObjAddr: 0x13A08, symBinAddr: 0x100016F24, symSize: 0x14 }
  - { offsetInCU: 0x6B591, offset: 0x6B591, size: 0x8, addend: 0x0, symName: __ZNSt3__114__split_bufferIPN7sc_core15sc_signal_in_ifIN5sc_dt5sc_bvILi3EEEEERNS_9allocatorIS7_EEEC2EmmSA_, symObjAddr: 0x13A1C, symBinAddr: 0x100016F38, symSize: 0xD4 }
  - { offsetInCU: 0x6B605, offset: 0x6B605, size: 0x8, addend: 0x0, symName: __ZNSt3__117__compressed_pairIPPN7sc_core15sc_signal_in_ifIN5sc_dt5sc_bvILi3EEEEERNS_9allocatorIS7_EEEC1B8ue170006IDnSB_EEOT_OT0_, symObjAddr: 0x13AF0, symBinAddr: 0x10001700C, symSize: 0x3C }
  - { offsetInCU: 0x6B65D, offset: 0x6B65D, size: 0x8, addend: 0x0, symName: __ZNSt3__114__split_bufferIPN7sc_core15sc_signal_in_ifIN5sc_dt5sc_bvILi3EEEEERNS_9allocatorIS7_EEE7__allocB8ue170006Ev, symObjAddr: 0x13B6C, symBinAddr: 0x100017088, symSize: 0x28 }
  - { offsetInCU: 0x6B683, offset: 0x6B683, size: 0x8, addend: 0x0, symName: __ZNSt3__114__split_bufferIPN7sc_core15sc_signal_in_ifIN5sc_dt5sc_bvILi3EEEEERNS_9allocatorIS7_EEE9__end_capB8ue170006Ev, symObjAddr: 0x13B94, symBinAddr: 0x1000170B0, symSize: 0x28 }
  - { offsetInCU: 0x6B6A9, offset: 0x6B6A9, size: 0x8, addend: 0x0, symName: __ZNSt3__117__compressed_pairIPPN7sc_core15sc_signal_in_ifIN5sc_dt5sc_bvILi3EEEEERNS_9allocatorIS7_EEEC2B8ue170006IDnSB_EEOT_OT0_, symObjAddr: 0x13BBC, symBinAddr: 0x1000170D8, symSize: 0x48 }
  - { offsetInCU: 0x6B701, offset: 0x6B701, size: 0x8, addend: 0x0, symName: __ZNSt3__122__compressed_pair_elemIRNS_9allocatorIPN7sc_core15sc_signal_in_ifIN5sc_dt5sc_bvILi3EEEEEEELi1ELb0EEC2B8ue170006ISA_vEEOT_, symObjAddr: 0x13C04, symBinAddr: 0x100017120, symSize: 0x20 }
  - { offsetInCU: 0x6B743, offset: 0x6B743, size: 0x8, addend: 0x0, symName: __ZNSt3__19allocatorIPN7sc_core15sc_signal_in_ifIN5sc_dt5sc_bvILi3EEEEEE8allocateB8ue170006Em, symObjAddr: 0x13C24, symBinAddr: 0x100017140, symSize: 0x58 }
  - { offsetInCU: 0x6B777, offset: 0x6B777, size: 0x8, addend: 0x0, symName: __ZNSt3__117__compressed_pairIPPN7sc_core15sc_signal_in_ifIN5sc_dt5sc_bvILi3EEEEERNS_9allocatorIS7_EEE6secondB8ue170006Ev, symObjAddr: 0x13C7C, symBinAddr: 0x100017198, symSize: 0x28 }
  - { offsetInCU: 0x6B79D, offset: 0x6B79D, size: 0x8, addend: 0x0, symName: __ZNSt3__122__compressed_pair_elemIRNS_9allocatorIPN7sc_core15sc_signal_in_ifIN5sc_dt5sc_bvILi3EEEEEEELi1ELb0EE5__getB8ue170006Ev, symObjAddr: 0x13CA4, symBinAddr: 0x1000171C0, symSize: 0x18 }
  - { offsetInCU: 0x6B7C3, offset: 0x6B7C3, size: 0x8, addend: 0x0, symName: __ZNSt3__117__compressed_pairIPPN7sc_core15sc_signal_in_ifIN5sc_dt5sc_bvILi3EEEEERNS_9allocatorIS7_EEE5firstB8ue170006Ev, symObjAddr: 0x13CBC, symBinAddr: 0x1000171D8, symSize: 0x24 }
  - { offsetInCU: 0x6B7E9, offset: 0x6B7E9, size: 0x8, addend: 0x0, symName: __ZNSt3__116reverse_iteratorIPPN7sc_core15sc_signal_in_ifIN5sc_dt5sc_bvILi3EEEEEEC1B8ue170006ES8_, symObjAddr: 0x13D58, symBinAddr: 0x100017274, symSize: 0x34 }
  - { offsetInCU: 0x6B821, offset: 0x6B821, size: 0x8, addend: 0x0, symName: __ZNKSt3__116reverse_iteratorIPPN7sc_core15sc_signal_in_ifIN5sc_dt5sc_bvILi3EEEEEE4baseB8ue170006Ev, symObjAddr: 0x13D8C, symBinAddr: 0x1000172A8, symSize: 0x18 }
  - { offsetInCU: 0x6B847, offset: 0x6B847, size: 0x8, addend: 0x0, symName: __ZNKSt3__16vectorIPN7sc_core15sc_signal_in_ifIN5sc_dt5sc_bvILi3EEEEENS_9allocatorIS7_EEE14__annotate_newB8ue170006Em, symObjAddr: 0x13DE0, symBinAddr: 0x1000172FC, symSize: 0xAC }
  - { offsetInCU: 0x6B898, offset: 0x6B898, size: 0x8, addend: 0x0, symName: __ZNKSt3__111__move_loopINS_17_ClassicAlgPolicyEEclB8ue170006INS_16reverse_iteratorIPPN7sc_core15sc_signal_in_ifIN5sc_dt5sc_bvILi3EEEEEEESD_SD_EENS_4pairIT_T1_EESF_T0_SG_, symObjAddr: 0x1417C, symBinAddr: 0x100017698, symSize: 0xA0 }
  - { offsetInCU: 0x6B909, offset: 0x6B909, size: 0x8, addend: 0x0, symName: __ZNSt3__18_IterOpsINS_17_ClassicAlgPolicyEE11__iter_moveB8ue170006IRNS_16reverse_iteratorIPPN7sc_core15sc_signal_in_ifIN5sc_dt5sc_bvILi3EEEEEEEEENS_9enable_ifIXsr12is_referenceIDTdeclsr3stdE7declvalIRT_EEEEE5valueEDTclsr3stdE4movedeclsr3stdE7declvalISH_EEEEE4typeEOSG_, symObjAddr: 0x143B0, symBinAddr: 0x1000178CC, symSize: 0x28 }
  - { offsetInCU: 0x6B935, offset: 0x6B935, size: 0x8, addend: 0x0, symName: __ZNKSt3__116reverse_iteratorIPPN7sc_core15sc_signal_in_ifIN5sc_dt5sc_bvILi3EEEEEEdeB8ue170006Ev, symObjAddr: 0x143D8, symBinAddr: 0x1000178F4, symSize: 0x28 }
  - { offsetInCU: 0x6B969, offset: 0x6B969, size: 0x8, addend: 0x0, symName: __ZNSt3__116reverse_iteratorIPPN7sc_core15sc_signal_in_ifIN5sc_dt5sc_bvILi3EEEEEEppB8ue170006Ev, symObjAddr: 0x14400, symBinAddr: 0x10001791C, symSize: 0x20 }
  - { offsetInCU: 0x6B98F, offset: 0x6B98F, size: 0x8, addend: 0x0, symName: __ZNSt3__18_IterOpsINS_17_ClassicAlgPolicyEE25__validate_iter_referenceB8ue170006IRNS_16reverse_iteratorIPPN7sc_core15sc_signal_in_ifIN5sc_dt5sc_bvILi3EEEEEEEEEvv, symObjAddr: 0x14420, symBinAddr: 0x10001793C, symSize: 0x4 }
  - { offsetInCU: 0x6B9AD, offset: 0x6B9AD, size: 0x8, addend: 0x0, symName: __ZNSt3__118__unwrap_iter_implINS_16reverse_iteratorIPPN7sc_core15sc_signal_in_ifIN5sc_dt5sc_bvILi3EEEEEEELb0EE8__unwrapB8ue170006ESA_, symObjAddr: 0x14424, symBinAddr: 0x100017940, symSize: 0x24 }
  - { offsetInCU: 0x6B9D6, offset: 0x6B9D6, size: 0x8, addend: 0x0, symName: __ZNSt3__14pairINS_16reverse_iteratorIPPN7sc_core15sc_signal_in_ifIN5sc_dt5sc_bvILi3EEEEEEESA_EC1B8ue170006ISA_SA_LPv0EEEOT_OT0_, symObjAddr: 0x14448, symBinAddr: 0x100017964, symSize: 0x3C }
  - { offsetInCU: 0x6BA34, offset: 0x6BA34, size: 0x8, addend: 0x0, symName: __ZNSt3__14pairINS_16reverse_iteratorIPPN7sc_core15sc_signal_in_ifIN5sc_dt5sc_bvILi3EEEEEEESA_EC2B8ue170006ISA_SA_LPv0EEEOT_OT0_, symObjAddr: 0x14484, symBinAddr: 0x1000179A0, symSize: 0x34 }
  - { offsetInCU: 0x6BA92, offset: 0x6BA92, size: 0x8, addend: 0x0, symName: __ZNSt3__118__unwrap_iter_implINS_16reverse_iteratorIPPN7sc_core15sc_signal_in_ifIN5sc_dt5sc_bvILi3EEEEEEELb0EE8__rewrapB8ue170006ESA_SA_, symObjAddr: 0x144B8, symBinAddr: 0x1000179D4, symSize: 0x2C }
  - { offsetInCU: 0x6BAC0, offset: 0x6BAC0, size: 0x8, addend: 0x0, symName: __ZNSt3__116reverse_iteratorIPPN7sc_core15sc_signal_in_ifIN5sc_dt5sc_bvILi3EEEEEEC2B8ue170006ES8_, symObjAddr: 0x144E4, symBinAddr: 0x100017A00, symSize: 0x28 }
  - { offsetInCU: 0x6BAF8, offset: 0x6BAF8, size: 0x8, addend: 0x0, symName: __ZNSt3__114__split_bufferIPN7sc_core15sc_signal_in_ifIN5sc_dt5sc_bvILi3EEEEERNS_9allocatorIS7_EEED2Ev, symObjAddr: 0x1450C, symBinAddr: 0x100017A28, symSize: 0x8C }
  - { offsetInCU: 0x6BB24, offset: 0x6BB24, size: 0x8, addend: 0x0, symName: __ZNSt3__114__split_bufferIPN7sc_core15sc_signal_in_ifIN5sc_dt5sc_bvILi3EEEEERNS_9allocatorIS7_EEE5clearB8ue170006Ev, symObjAddr: 0x14598, symBinAddr: 0x100017AB4, symSize: 0x28 }
  - { offsetInCU: 0x6BB4A, offset: 0x6BB4A, size: 0x8, addend: 0x0, symName: __ZNKSt3__114__split_bufferIPN7sc_core15sc_signal_in_ifIN5sc_dt5sc_bvILi3EEEEERNS_9allocatorIS7_EEE8capacityB8ue170006Ev, symObjAddr: 0x145C0, symBinAddr: 0x100017ADC, symSize: 0x40 }
  - { offsetInCU: 0x6BB70, offset: 0x6BB70, size: 0x8, addend: 0x0, symName: __ZNSt3__114__split_bufferIPN7sc_core15sc_signal_in_ifIN5sc_dt5sc_bvILi3EEEEERNS_9allocatorIS7_EEE17__destruct_at_endB8ue170006EPS7_, symObjAddr: 0x14600, symBinAddr: 0x100017B1C, symSize: 0x2C }
  - { offsetInCU: 0x6BBA4, offset: 0x6BBA4, size: 0x8, addend: 0x0, symName: __ZNSt3__114__split_bufferIPN7sc_core15sc_signal_in_ifIN5sc_dt5sc_bvILi3EEEEERNS_9allocatorIS7_EEE17__destruct_at_endB8ue170006EPS7_NS_17integral_constantIbLb0EEE, symObjAddr: 0x1462C, symBinAddr: 0x100017B48, symSize: 0x80 }
  - { offsetInCU: 0x6BBE5, offset: 0x6BBE5, size: 0x8, addend: 0x0, symName: __ZNKSt3__114__split_bufferIPN7sc_core15sc_signal_in_ifIN5sc_dt5sc_bvILi3EEEEERNS_9allocatorIS7_EEE9__end_capB8ue170006Ev, symObjAddr: 0x146AC, symBinAddr: 0x100017BC8, symSize: 0x28 }
  - { offsetInCU: 0x6BC0B, offset: 0x6BC0B, size: 0x8, addend: 0x0, symName: __ZNKSt3__117__compressed_pairIPPN7sc_core15sc_signal_in_ifIN5sc_dt5sc_bvILi3EEEEERNS_9allocatorIS7_EEE5firstB8ue170006Ev, symObjAddr: 0x146D4, symBinAddr: 0x100017BF0, symSize: 0x24 }
  - { offsetInCU: 0x6BC31, offset: 0x6BC31, size: 0x8, addend: 0x0, symName: __ZNK7sc_core5sc_inIN5sc_dt5sc_bvILi3EEEE13remove_tracesEv, symObjAddr: 0x146F8, symBinAddr: 0x100017C14, symSize: 0xF4 }
  - { offsetInCU: 0x6BC77, offset: 0x6BC77, size: 0x8, addend: 0x0, symName: __ZNKSt3__16vectorIPN7sc_core15sc_signal_in_ifIN5sc_dt5sc_bvILi3EEEEENS_9allocatorIS7_EEEixB8ue170006Em, symObjAddr: 0x147EC, symBinAddr: 0x100017D08, symSize: 0x24 }
  - { offsetInCU: 0x6BCAE, offset: 0x6BCAE, size: 0x8, addend: 0x0, symName: __ZN7sc_core6sc_outIbEC2Ev, symObjAddr: 0x14810, symBinAddr: 0x100017D2C, symSize: 0x44 }
  - { offsetInCU: 0x6BCD8, offset: 0x6BCD8, size: 0x8, addend: 0x0, symName: __ZN7sc_core8sc_inoutIbEC2Ev, symObjAddr: 0x14854, symBinAddr: 0x100017D70, symSize: 0x58 }
  - { offsetInCU: 0x6BD02, offset: 0x6BD02, size: 0x8, addend: 0x0, symName: __ZNK7sc_core6sc_outIbE4kindEv, symObjAddr: 0x148AC, symBinAddr: 0x100017DC8, symSize: 0x18 }
  - { offsetInCU: 0x6BD28, offset: 0x6BD28, size: 0x8, addend: 0x0, symName: __ZN7sc_core6sc_outIbED0Ev, symObjAddr: 0x148C4, symBinAddr: 0x100017DE0, symSize: 0x30 }
  - { offsetInCU: 0x6BD52, offset: 0x6BD52, size: 0x8, addend: 0x0, symName: __ZN7sc_core9sc_port_bINS_18sc_signal_inout_ifIbEEE13get_interfaceEv, symObjAddr: 0x148F4, symBinAddr: 0x100017E10, symSize: 0x50 }
  - { offsetInCU: 0x6BD78, offset: 0x6BD78, size: 0x8, addend: 0x0, symName: __ZNK7sc_core9sc_port_bINS_18sc_signal_inout_ifIbEEE13get_interfaceEv, symObjAddr: 0x14944, symBinAddr: 0x100017E60, symSize: 0x50 }
  - { offsetInCU: 0x6BD9E, offset: 0x6BD9E, size: 0x8, addend: 0x0, symName: __ZNK7sc_core9sc_port_bINS_18sc_signal_inout_ifIbEEE18get_interface_typeEv, symObjAddr: 0x14994, symBinAddr: 0x100017EB0, symSize: 0x30 }
  - { offsetInCU: 0x6BDC6, offset: 0x6BDC6, size: 0x8, addend: 0x0, symName: __ZN7sc_core9sc_port_bINS_18sc_signal_inout_ifIbEEE5vbindERNS_12sc_interfaceE, symObjAddr: 0x149C4, symBinAddr: 0x100017EE0, symSize: 0xBC }
  - { offsetInCU: 0x6BE0C, offset: 0x6BE0C, size: 0x8, addend: 0x0, symName: __ZN7sc_core9sc_port_bINS_18sc_signal_inout_ifIbEEE5vbindERNS_12sc_port_baseE, symObjAddr: 0x14A80, symBinAddr: 0x100017F9C, symSize: 0xB0 }
  - { offsetInCU: 0x6BE52, offset: 0x6BE52, size: 0x8, addend: 0x0, symName: __ZN7sc_core9sc_port_bINS_18sc_signal_inout_ifIbEEE13add_interfaceEPNS_12sc_interfaceE, symObjAddr: 0x14B30, symBinAddr: 0x10001804C, symSize: 0x160 }
  - { offsetInCU: 0x6BEC5, offset: 0x6BEC5, size: 0x8, addend: 0x0, symName: __ZNK7sc_core9sc_port_bINS_18sc_signal_inout_ifIbEEE15interface_countEv, symObjAddr: 0x14C90, symBinAddr: 0x1000181AC, symSize: 0x24 }
  - { offsetInCU: 0x6BEED, offset: 0x6BEED, size: 0x8, addend: 0x0, symName: __ZNK7sc_core9sc_port_bINS_18sc_signal_inout_ifIbEEE14make_sensitiveEPNS_17sc_thread_processEPNS_15sc_event_finderE, symObjAddr: 0x14CB4, symBinAddr: 0x1000181D0, symSize: 0x114 }
  - { offsetInCU: 0x6BF8D, offset: 0x6BF8D, size: 0x8, addend: 0x0, symName: __ZNK7sc_core9sc_port_bINS_18sc_signal_inout_ifIbEEE14make_sensitiveEPNS_17sc_method_processEPNS_15sc_event_finderE, symObjAddr: 0x14DC8, symBinAddr: 0x1000182E4, symSize: 0x114 }
  - { offsetInCU: 0x6C02D, offset: 0x6C02D, size: 0x8, addend: 0x0, symName: __ZN7sc_core9sc_port_bINS_18sc_signal_inout_ifIbEEE4bindERS3_, symObjAddr: 0x14EDC, symBinAddr: 0x1000183F8, symSize: 0x2C }
  - { offsetInCU: 0x6C062, offset: 0x6C062, size: 0x8, addend: 0x0, symName: __ZNK7sc_core9sc_port_bINS_18sc_signal_inout_ifIbEEE4sizeEv, symObjAddr: 0x14F08, symBinAddr: 0x100018424, symSize: 0x28 }
  - { offsetInCU: 0x6C088, offset: 0x6C088, size: 0x8, addend: 0x0, symName: __ZNSt3__16vectorIPN7sc_core18sc_signal_inout_ifIbEENS_9allocatorIS4_EEEixB8ue170006Em, symObjAddr: 0x14F30, symBinAddr: 0x10001844C, symSize: 0x24 }
  - { offsetInCU: 0x6C0BF, offset: 0x6C0BF, size: 0x8, addend: 0x0, symName: __ZNSt3__16vectorIPN7sc_core18sc_signal_inout_ifIbEENS_9allocatorIS4_EEE9push_backB8ue170006ERKS4_, symObjAddr: 0x14F54, symBinAddr: 0x100018470, symSize: 0x6C }
  - { offsetInCU: 0x6C0F6, offset: 0x6C0F6, size: 0x8, addend: 0x0, symName: __ZNKSt3__16vectorIPN7sc_core18sc_signal_inout_ifIbEENS_9allocatorIS4_EEE4sizeB8ue170006Ev, symObjAddr: 0x14FC0, symBinAddr: 0x1000184DC, symSize: 0x28 }
  - { offsetInCU: 0x6C11C, offset: 0x6C11C, size: 0x8, addend: 0x0, symName: __ZNSt3__16vectorIPN7sc_core18sc_signal_inout_ifIbEENS_9allocatorIS4_EEE9__end_capB8ue170006Ev, symObjAddr: 0x14FE8, symBinAddr: 0x100018504, symSize: 0x28 }
  - { offsetInCU: 0x6C142, offset: 0x6C142, size: 0x8, addend: 0x0, symName: __ZNSt3__16vectorIPN7sc_core18sc_signal_inout_ifIbEENS_9allocatorIS4_EEE22__construct_one_at_endB8ue170006IJRKS4_EEEvDpOT_, symObjAddr: 0x15010, symBinAddr: 0x10001852C, symSize: 0x90 }
  - { offsetInCU: 0x6C191, offset: 0x6C191, size: 0x8, addend: 0x0, symName: __ZNSt3__16vectorIPN7sc_core18sc_signal_inout_ifIbEENS_9allocatorIS4_EEE21__push_back_slow_pathIRKS4_EEvOT_, symObjAddr: 0x150A0, symBinAddr: 0x1000185BC, symSize: 0xD8 }
  - { offsetInCU: 0x6C1EF, offset: 0x6C1EF, size: 0x8, addend: 0x0, symName: __ZNSt3__117__compressed_pairIPPN7sc_core18sc_signal_inout_ifIbEENS_9allocatorIS4_EEE5firstB8ue170006Ev, symObjAddr: 0x15178, symBinAddr: 0x100018694, symSize: 0x24 }
  - { offsetInCU: 0x6C215, offset: 0x6C215, size: 0x8, addend: 0x0, symName: __ZNSt3__122__compressed_pair_elemIPPN7sc_core18sc_signal_inout_ifIbEELi0ELb0EE5__getB8ue170006Ev, symObjAddr: 0x1519C, symBinAddr: 0x1000186B8, symSize: 0x14 }
  - { offsetInCU: 0x6C256, offset: 0x6C256, size: 0x8, addend: 0x0, symName: __ZNSt3__16vectorIPN7sc_core18sc_signal_inout_ifIbEENS_9allocatorIS4_EEE21_ConstructTransactionC1B8ue170006ERS7_m, symObjAddr: 0x151B0, symBinAddr: 0x1000186CC, symSize: 0x3C }
  - { offsetInCU: 0x6C29E, offset: 0x6C29E, size: 0x8, addend: 0x0, symName: __ZNSt3__116allocator_traitsINS_9allocatorIPN7sc_core18sc_signal_inout_ifIbEEEEE9constructB8ue170006IS5_JRKS5_EvEEvRS6_PT_DpOT0_, symObjAddr: 0x151EC, symBinAddr: 0x100018708, symSize: 0x34 }
  - { offsetInCU: 0x6C2F5, offset: 0x6C2F5, size: 0x8, addend: 0x0, symName: __ZNSt3__16vectorIPN7sc_core18sc_signal_inout_ifIbEENS_9allocatorIS4_EEE7__allocB8ue170006Ev, symObjAddr: 0x15220, symBinAddr: 0x10001873C, symSize: 0x28 }
  - { offsetInCU: 0x6C31B, offset: 0x6C31B, size: 0x8, addend: 0x0, symName: __ZNSt3__16vectorIPN7sc_core18sc_signal_inout_ifIbEENS_9allocatorIS4_EEE21_ConstructTransactionD1B8ue170006Ev, symObjAddr: 0x1525C, symBinAddr: 0x100018778, symSize: 0x2C }
  - { offsetInCU: 0x6C345, offset: 0x6C345, size: 0x8, addend: 0x0, symName: __ZNSt3__16vectorIPN7sc_core18sc_signal_inout_ifIbEENS_9allocatorIS4_EEE21_ConstructTransactionC2B8ue170006ERS7_m, symObjAddr: 0x15288, symBinAddr: 0x1000187A4, symSize: 0x44 }
  - { offsetInCU: 0x6C38D, offset: 0x6C38D, size: 0x8, addend: 0x0, symName: __ZNSt3__19allocatorIPN7sc_core18sc_signal_inout_ifIbEEE9constructB8ue170006IS4_JRKS4_EEEvPT_DpOT0_, symObjAddr: 0x152CC, symBinAddr: 0x1000187E8, symSize: 0x28 }
  - { offsetInCU: 0x6C3E3, offset: 0x6C3E3, size: 0x8, addend: 0x0, symName: __ZNSt3__117__compressed_pairIPPN7sc_core18sc_signal_inout_ifIbEENS_9allocatorIS4_EEE6secondB8ue170006Ev, symObjAddr: 0x152F4, symBinAddr: 0x100018810, symSize: 0x24 }
  - { offsetInCU: 0x6C409, offset: 0x6C409, size: 0x8, addend: 0x0, symName: __ZNSt3__122__compressed_pair_elemINS_9allocatorIPN7sc_core18sc_signal_inout_ifIbEEEELi1ELb1EE5__getB8ue170006Ev, symObjAddr: 0x15318, symBinAddr: 0x100018834, symSize: 0x14 }
  - { offsetInCU: 0x6C42F, offset: 0x6C42F, size: 0x8, addend: 0x0, symName: __ZNSt3__16vectorIPN7sc_core18sc_signal_inout_ifIbEENS_9allocatorIS4_EEE21_ConstructTransactionD2B8ue170006Ev, symObjAddr: 0x1532C, symBinAddr: 0x100018848, symSize: 0x20 }
  - { offsetInCU: 0x6C459, offset: 0x6C459, size: 0x8, addend: 0x0, symName: __ZNKSt3__16vectorIPN7sc_core18sc_signal_inout_ifIbEENS_9allocatorIS4_EEE11__recommendB8ue170006Em, symObjAddr: 0x1534C, symBinAddr: 0x100018868, symSize: 0xB4 }
  - { offsetInCU: 0x6C4AE, offset: 0x6C4AE, size: 0x8, addend: 0x0, symName: __ZNSt3__114__split_bufferIPN7sc_core18sc_signal_inout_ifIbEERNS_9allocatorIS4_EEEC1EmmS7_, symObjAddr: 0x15400, symBinAddr: 0x10001891C, symSize: 0x44 }
  - { offsetInCU: 0x6C504, offset: 0x6C504, size: 0x8, addend: 0x0, symName: __ZNSt3__114__split_bufferIPN7sc_core18sc_signal_inout_ifIbEERNS_9allocatorIS4_EEED1Ev, symObjAddr: 0x15554, symBinAddr: 0x100018A70, symSize: 0x2C }
  - { offsetInCU: 0x6C530, offset: 0x6C530, size: 0x8, addend: 0x0, symName: __ZNKSt3__16vectorIPN7sc_core18sc_signal_inout_ifIbEENS_9allocatorIS4_EEE8max_sizeEv, symObjAddr: 0x15580, symBinAddr: 0x100018A9C, symSize: 0x60 }
  - { offsetInCU: 0x6C558, offset: 0x6C558, size: 0x8, addend: 0x0, symName: __ZNKSt3__16vectorIPN7sc_core18sc_signal_inout_ifIbEENS_9allocatorIS4_EEE20__throw_length_errorB8ue170006Ev, symObjAddr: 0x155E0, symBinAddr: 0x100018AFC, symSize: 0x1C }
  - { offsetInCU: 0x6C57E, offset: 0x6C57E, size: 0x8, addend: 0x0, symName: __ZNKSt3__16vectorIPN7sc_core18sc_signal_inout_ifIbEENS_9allocatorIS4_EEE8capacityB8ue170006Ev, symObjAddr: 0x155FC, symBinAddr: 0x100018B18, symSize: 0x40 }
  - { offsetInCU: 0x6C5AF, offset: 0x6C5AF, size: 0x8, addend: 0x0, symName: __ZNSt3__116allocator_traitsINS_9allocatorIPN7sc_core18sc_signal_inout_ifIbEEEEE8max_sizeB8ue170006IS6_vEEmRKS6_, symObjAddr: 0x1563C, symBinAddr: 0x100018B58, symSize: 0x24 }
  - { offsetInCU: 0x6C5DD, offset: 0x6C5DD, size: 0x8, addend: 0x0, symName: __ZNKSt3__16vectorIPN7sc_core18sc_signal_inout_ifIbEENS_9allocatorIS4_EEE7__allocB8ue170006Ev, symObjAddr: 0x15660, symBinAddr: 0x100018B7C, symSize: 0x28 }
  - { offsetInCU: 0x6C603, offset: 0x6C603, size: 0x8, addend: 0x0, symName: __ZNKSt3__19allocatorIPN7sc_core18sc_signal_inout_ifIbEEE8max_sizeB8ue170006Ev, symObjAddr: 0x15688, symBinAddr: 0x100018BA4, symSize: 0x14 }
  - { offsetInCU: 0x6C629, offset: 0x6C629, size: 0x8, addend: 0x0, symName: __ZNKSt3__117__compressed_pairIPPN7sc_core18sc_signal_inout_ifIbEENS_9allocatorIS4_EEE6secondB8ue170006Ev, symObjAddr: 0x1569C, symBinAddr: 0x100018BB8, symSize: 0x24 }
  - { offsetInCU: 0x6C64F, offset: 0x6C64F, size: 0x8, addend: 0x0, symName: __ZNKSt3__122__compressed_pair_elemINS_9allocatorIPN7sc_core18sc_signal_inout_ifIbEEEELi1ELb1EE5__getB8ue170006Ev, symObjAddr: 0x156C0, symBinAddr: 0x100018BDC, symSize: 0x14 }
  - { offsetInCU: 0x6C675, offset: 0x6C675, size: 0x8, addend: 0x0, symName: __ZNKSt3__16vectorIPN7sc_core18sc_signal_inout_ifIbEENS_9allocatorIS4_EEE9__end_capB8ue170006Ev, symObjAddr: 0x156D4, symBinAddr: 0x100018BF0, symSize: 0x28 }
  - { offsetInCU: 0x6C69B, offset: 0x6C69B, size: 0x8, addend: 0x0, symName: __ZNKSt3__117__compressed_pairIPPN7sc_core18sc_signal_inout_ifIbEENS_9allocatorIS4_EEE5firstB8ue170006Ev, symObjAddr: 0x156FC, symBinAddr: 0x100018C18, symSize: 0x24 }
  - { offsetInCU: 0x6C6C1, offset: 0x6C6C1, size: 0x8, addend: 0x0, symName: __ZNKSt3__122__compressed_pair_elemIPPN7sc_core18sc_signal_inout_ifIbEELi0ELb0EE5__getB8ue170006Ev, symObjAddr: 0x15720, symBinAddr: 0x100018C3C, symSize: 0x14 }
  - { offsetInCU: 0x6C6E7, offset: 0x6C6E7, size: 0x8, addend: 0x0, symName: __ZNSt3__114__split_bufferIPN7sc_core18sc_signal_inout_ifIbEERNS_9allocatorIS4_EEEC2EmmS7_, symObjAddr: 0x15734, symBinAddr: 0x100018C50, symSize: 0xD4 }
  - { offsetInCU: 0x6C75B, offset: 0x6C75B, size: 0x8, addend: 0x0, symName: __ZNSt3__117__compressed_pairIPPN7sc_core18sc_signal_inout_ifIbEERNS_9allocatorIS4_EEEC1B8ue170006IDnS8_EEOT_OT0_, symObjAddr: 0x15808, symBinAddr: 0x100018D24, symSize: 0x3C }
  - { offsetInCU: 0x6C7B3, offset: 0x6C7B3, size: 0x8, addend: 0x0, symName: __ZNSt3__114__split_bufferIPN7sc_core18sc_signal_inout_ifIbEERNS_9allocatorIS4_EEE7__allocB8ue170006Ev, symObjAddr: 0x15884, symBinAddr: 0x100018DA0, symSize: 0x28 }
  - { offsetInCU: 0x6C7D9, offset: 0x6C7D9, size: 0x8, addend: 0x0, symName: __ZNSt3__114__split_bufferIPN7sc_core18sc_signal_inout_ifIbEERNS_9allocatorIS4_EEE9__end_capB8ue170006Ev, symObjAddr: 0x158AC, symBinAddr: 0x100018DC8, symSize: 0x28 }
  - { offsetInCU: 0x6C7FF, offset: 0x6C7FF, size: 0x8, addend: 0x0, symName: __ZNSt3__117__compressed_pairIPPN7sc_core18sc_signal_inout_ifIbEERNS_9allocatorIS4_EEEC2B8ue170006IDnS8_EEOT_OT0_, symObjAddr: 0x158D4, symBinAddr: 0x100018DF0, symSize: 0x48 }
  - { offsetInCU: 0x6C857, offset: 0x6C857, size: 0x8, addend: 0x0, symName: __ZNSt3__122__compressed_pair_elemIPPN7sc_core18sc_signal_inout_ifIbEELi0ELb0EEC2B8ue170006IDnvEEOT_, symObjAddr: 0x1591C, symBinAddr: 0x100018E38, symSize: 0x1C }
  - { offsetInCU: 0x6C899, offset: 0x6C899, size: 0x8, addend: 0x0, symName: __ZNSt3__122__compressed_pair_elemIRNS_9allocatorIPN7sc_core18sc_signal_inout_ifIbEEEELi1ELb0EEC2B8ue170006IS7_vEEOT_, symObjAddr: 0x15938, symBinAddr: 0x100018E54, symSize: 0x20 }
  - { offsetInCU: 0x6C8DB, offset: 0x6C8DB, size: 0x8, addend: 0x0, symName: __ZNSt3__19allocatorIPN7sc_core18sc_signal_inout_ifIbEEE8allocateB8ue170006Em, symObjAddr: 0x15958, symBinAddr: 0x100018E74, symSize: 0x58 }
  - { offsetInCU: 0x6C90F, offset: 0x6C90F, size: 0x8, addend: 0x0, symName: __ZNSt3__117__compressed_pairIPPN7sc_core18sc_signal_inout_ifIbEERNS_9allocatorIS4_EEE6secondB8ue170006Ev, symObjAddr: 0x159B0, symBinAddr: 0x100018ECC, symSize: 0x28 }
  - { offsetInCU: 0x6C935, offset: 0x6C935, size: 0x8, addend: 0x0, symName: __ZNSt3__122__compressed_pair_elemIRNS_9allocatorIPN7sc_core18sc_signal_inout_ifIbEEEELi1ELb0EE5__getB8ue170006Ev, symObjAddr: 0x159D8, symBinAddr: 0x100018EF4, symSize: 0x18 }
  - { offsetInCU: 0x6C95B, offset: 0x6C95B, size: 0x8, addend: 0x0, symName: __ZNSt3__117__compressed_pairIPPN7sc_core18sc_signal_inout_ifIbEERNS_9allocatorIS4_EEE5firstB8ue170006Ev, symObjAddr: 0x159F0, symBinAddr: 0x100018F0C, symSize: 0x24 }
  - { offsetInCU: 0x6C981, offset: 0x6C981, size: 0x8, addend: 0x0, symName: __ZNKSt3__16vectorIPN7sc_core18sc_signal_inout_ifIbEENS_9allocatorIS4_EEE17__annotate_deleteB8ue170006Ev, symObjAddr: 0x15A14, symBinAddr: 0x100018F30, symSize: 0xB8 }
  - { offsetInCU: 0x6C9A7, offset: 0x6C9A7, size: 0x8, addend: 0x0, symName: __ZNSt3__116reverse_iteratorIPPN7sc_core18sc_signal_inout_ifIbEEEC1B8ue170006ES5_, symObjAddr: 0x15B44, symBinAddr: 0x100019060, symSize: 0x34 }
  - { offsetInCU: 0x6C9DF, offset: 0x6C9DF, size: 0x8, addend: 0x0, symName: __ZNKSt3__116reverse_iteratorIPPN7sc_core18sc_signal_inout_ifIbEEE4baseB8ue170006Ev, symObjAddr: 0x15B78, symBinAddr: 0x100019094, symSize: 0x18 }
  - { offsetInCU: 0x6CA05, offset: 0x6CA05, size: 0x8, addend: 0x0, symName: __ZNKSt3__16vectorIPN7sc_core18sc_signal_inout_ifIbEENS_9allocatorIS4_EEE14__annotate_newB8ue170006Em, symObjAddr: 0x15BCC, symBinAddr: 0x1000190E8, symSize: 0xAC }
  - { offsetInCU: 0x6CA3A, offset: 0x6CA3A, size: 0x8, addend: 0x0, symName: __ZNKSt3__16vectorIPN7sc_core18sc_signal_inout_ifIbEENS_9allocatorIS4_EEE31__annotate_contiguous_containerB8ue170006EPKvS9_S9_S9_, symObjAddr: 0x15C78, symBinAddr: 0x100019194, symSize: 0x20 }
  - { offsetInCU: 0x6CA90, offset: 0x6CA90, size: 0x8, addend: 0x0, symName: __ZNKSt3__16vectorIPN7sc_core18sc_signal_inout_ifIbEENS_9allocatorIS4_EEE4dataB8ue170006Ev, symObjAddr: 0x15C98, symBinAddr: 0x1000191B4, symSize: 0x28 }
  - { offsetInCU: 0x6CAD2, offset: 0x6CAD2, size: 0x8, addend: 0x0, symName: __ZNKSt3__111__move_loopINS_17_ClassicAlgPolicyEEclB8ue170006INS_16reverse_iteratorIPPN7sc_core18sc_signal_inout_ifIbEEEESA_SA_EENS_4pairIT_T1_EESC_T0_SD_, symObjAddr: 0x15FB0, symBinAddr: 0x1000194CC, symSize: 0xA0 }
  - { offsetInCU: 0x6CB43, offset: 0x6CB43, size: 0x8, addend: 0x0, symName: __ZNSt3__18_IterOpsINS_17_ClassicAlgPolicyEE11__iter_moveB8ue170006IRNS_16reverse_iteratorIPPN7sc_core18sc_signal_inout_ifIbEEEEEENS_9enable_ifIXsr12is_referenceIDTdeclsr3stdE7declvalIRT_EEEEE5valueEDTclsr3stdE4movedeclsr3stdE7declvalISE_EEEEE4typeEOSD_, symObjAddr: 0x161E4, symBinAddr: 0x100019700, symSize: 0x28 }
  - { offsetInCU: 0x6CB6F, offset: 0x6CB6F, size: 0x8, addend: 0x0, symName: __ZNKSt3__116reverse_iteratorIPPN7sc_core18sc_signal_inout_ifIbEEEdeB8ue170006Ev, symObjAddr: 0x1620C, symBinAddr: 0x100019728, symSize: 0x28 }
  - { offsetInCU: 0x6CBA3, offset: 0x6CBA3, size: 0x8, addend: 0x0, symName: __ZNSt3__116reverse_iteratorIPPN7sc_core18sc_signal_inout_ifIbEEEppB8ue170006Ev, symObjAddr: 0x16234, symBinAddr: 0x100019750, symSize: 0x20 }
  - { offsetInCU: 0x6CBC9, offset: 0x6CBC9, size: 0x8, addend: 0x0, symName: __ZNSt3__18_IterOpsINS_17_ClassicAlgPolicyEE25__validate_iter_referenceB8ue170006IRNS_16reverse_iteratorIPPN7sc_core18sc_signal_inout_ifIbEEEEEEvv, symObjAddr: 0x16254, symBinAddr: 0x100019770, symSize: 0x4 }
  - { offsetInCU: 0x6CBE7, offset: 0x6CBE7, size: 0x8, addend: 0x0, symName: __ZNSt3__118__unwrap_iter_implINS_16reverse_iteratorIPPN7sc_core18sc_signal_inout_ifIbEEEELb0EE8__unwrapB8ue170006ES7_, symObjAddr: 0x16258, symBinAddr: 0x100019774, symSize: 0x24 }
  - { offsetInCU: 0x6CC10, offset: 0x6CC10, size: 0x8, addend: 0x0, symName: __ZNSt3__14pairINS_16reverse_iteratorIPPN7sc_core18sc_signal_inout_ifIbEEEES7_EC1B8ue170006IS7_S7_LPv0EEEOT_OT0_, symObjAddr: 0x1627C, symBinAddr: 0x100019798, symSize: 0x3C }
  - { offsetInCU: 0x6CC6E, offset: 0x6CC6E, size: 0x8, addend: 0x0, symName: __ZNSt3__14pairINS_16reverse_iteratorIPPN7sc_core18sc_signal_inout_ifIbEEEES7_EC2B8ue170006IS7_S7_LPv0EEEOT_OT0_, symObjAddr: 0x162B8, symBinAddr: 0x1000197D4, symSize: 0x34 }
  - { offsetInCU: 0x6CCCC, offset: 0x6CCCC, size: 0x8, addend: 0x0, symName: __ZNSt3__118__unwrap_iter_implINS_16reverse_iteratorIPPN7sc_core18sc_signal_inout_ifIbEEEELb0EE8__rewrapB8ue170006ES7_S7_, symObjAddr: 0x162EC, symBinAddr: 0x100019808, symSize: 0x2C }
  - { offsetInCU: 0x6CCFA, offset: 0x6CCFA, size: 0x8, addend: 0x0, symName: __ZNSt3__116reverse_iteratorIPPN7sc_core18sc_signal_inout_ifIbEEEC2B8ue170006ES5_, symObjAddr: 0x16318, symBinAddr: 0x100019834, symSize: 0x28 }
  - { offsetInCU: 0x6CD32, offset: 0x6CD32, size: 0x8, addend: 0x0, symName: __ZNSt3__114__split_bufferIPN7sc_core18sc_signal_inout_ifIbEERNS_9allocatorIS4_EEED2Ev, symObjAddr: 0x16340, symBinAddr: 0x10001985C, symSize: 0x8C }
  - { offsetInCU: 0x6CD5E, offset: 0x6CD5E, size: 0x8, addend: 0x0, symName: __ZNSt3__114__split_bufferIPN7sc_core18sc_signal_inout_ifIbEERNS_9allocatorIS4_EEE5clearB8ue170006Ev, symObjAddr: 0x163CC, symBinAddr: 0x1000198E8, symSize: 0x28 }
  - { offsetInCU: 0x6CD84, offset: 0x6CD84, size: 0x8, addend: 0x0, symName: __ZNSt3__116allocator_traitsINS_9allocatorIPN7sc_core18sc_signal_inout_ifIbEEEEE10deallocateB8ue170006ERS6_PS5_m, symObjAddr: 0x163F4, symBinAddr: 0x100019910, symSize: 0x34 }
  - { offsetInCU: 0x6CDC6, offset: 0x6CDC6, size: 0x8, addend: 0x0, symName: __ZNKSt3__114__split_bufferIPN7sc_core18sc_signal_inout_ifIbEERNS_9allocatorIS4_EEE8capacityB8ue170006Ev, symObjAddr: 0x16428, symBinAddr: 0x100019944, symSize: 0x40 }
  - { offsetInCU: 0x6CDEC, offset: 0x6CDEC, size: 0x8, addend: 0x0, symName: __ZNSt3__114__split_bufferIPN7sc_core18sc_signal_inout_ifIbEERNS_9allocatorIS4_EEE17__destruct_at_endB8ue170006EPS4_, symObjAddr: 0x16468, symBinAddr: 0x100019984, symSize: 0x2C }
  - { offsetInCU: 0x6CE20, offset: 0x6CE20, size: 0x8, addend: 0x0, symName: __ZNSt3__114__split_bufferIPN7sc_core18sc_signal_inout_ifIbEERNS_9allocatorIS4_EEE17__destruct_at_endB8ue170006EPS4_NS_17integral_constantIbLb0EEE, symObjAddr: 0x16494, symBinAddr: 0x1000199B0, symSize: 0x80 }
  - { offsetInCU: 0x6CE61, offset: 0x6CE61, size: 0x8, addend: 0x0, symName: __ZNSt3__116allocator_traitsINS_9allocatorIPN7sc_core18sc_signal_inout_ifIbEEEEE7destroyB8ue170006IS5_vEEvRS6_PT_, symObjAddr: 0x16514, symBinAddr: 0x100019A30, symSize: 0x2C }
  - { offsetInCU: 0x6CE9E, offset: 0x6CE9E, size: 0x8, addend: 0x0, symName: __ZNSt3__19allocatorIPN7sc_core18sc_signal_inout_ifIbEEE7destroyB8ue170006EPS4_, symObjAddr: 0x16540, symBinAddr: 0x100019A5C, symSize: 0x14 }
  - { offsetInCU: 0x6CED2, offset: 0x6CED2, size: 0x8, addend: 0x0, symName: __ZNSt3__19allocatorIPN7sc_core18sc_signal_inout_ifIbEEE10deallocateB8ue170006EPS4_m, symObjAddr: 0x16554, symBinAddr: 0x100019A70, symSize: 0x40 }
  - { offsetInCU: 0x6CF14, offset: 0x6CF14, size: 0x8, addend: 0x0, symName: __ZNKSt3__114__split_bufferIPN7sc_core18sc_signal_inout_ifIbEERNS_9allocatorIS4_EEE9__end_capB8ue170006Ev, symObjAddr: 0x16594, symBinAddr: 0x100019AB0, symSize: 0x28 }
  - { offsetInCU: 0x6CF3A, offset: 0x6CF3A, size: 0x8, addend: 0x0, symName: __ZNKSt3__117__compressed_pairIPPN7sc_core18sc_signal_inout_ifIbEERNS_9allocatorIS4_EEE5firstB8ue170006Ev, symObjAddr: 0x165BC, symBinAddr: 0x100019AD8, symSize: 0x24 }
  - { offsetInCU: 0x6CF60, offset: 0x6CF60, size: 0x8, addend: 0x0, symName: __ZNKSt3__16vectorIPN7sc_core18sc_signal_inout_ifIbEENS_9allocatorIS4_EEEixB8ue170006Em, symObjAddr: 0x165E0, symBinAddr: 0x100019AFC, symSize: 0x24 }
  - { offsetInCU: 0x6CF97, offset: 0x6CF97, size: 0x8, addend: 0x0, symName: __ZNK7sc_core5sc_inIN5sc_dt5sc_bvILi3EEEE4readEv, symObjAddr: 0x16604, symBinAddr: 0x100019B20, symSize: 0x30 }
  - { offsetInCU: 0x6CFBD, offset: 0x6CFBD, size: 0x8, addend: 0x0, symName: __ZN7sc_core8sc_inoutIbE5writeERKb, symObjAddr: 0x16634, symBinAddr: 0x100019B50, symSize: 0x40 }
  - { offsetInCU: 0x6CFF2, offset: 0x6CFF2, size: 0x8, addend: 0x0, symName: __ZNK7sc_core9sc_port_bINS_15sc_signal_in_ifIN5sc_dt5sc_bvILi3EEEEEEptEv, symObjAddr: 0x16674, symBinAddr: 0x100019B90, symSize: 0x24 }
  - { offsetInCU: 0x6D01A, offset: 0x6D01A, size: 0x8, addend: 0x0, symName: __ZN7sc_core9sc_port_bINS_15sc_signal_in_ifIN5sc_dt5sc_bvILi3EEEEEEptEv, symObjAddr: 0x16698, symBinAddr: 0x100019BB4, symSize: 0x5C }
  - { offsetInCU: 0x6D042, offset: 0x6D042, size: 0x8, addend: 0x0, symName: __ZN7sc_core9sc_port_bINS_18sc_signal_inout_ifIbEEEptEv, symObjAddr: 0x166F4, symBinAddr: 0x100019C10, symSize: 0x5C }
  - { offsetInCU: 0x6D06A, offset: 0x6D06A, size: 0x8, addend: 0x0, symName: __ZN7sc_core6sc_outIbED2Ev, symObjAddr: 0x16750, symBinAddr: 0x100019C6C, symSize: 0x2C }
  - { offsetInCU: 0x6D094, offset: 0x6D094, size: 0x8, addend: 0x0, symName: __ZN7sc_core5sc_inIN5sc_dt5sc_bvILi3EEEED2Ev, symObjAddr: 0x1677C, symBinAddr: 0x100019C98, symSize: 0x7C }
  - { offsetInCU: 0x6D0BE, offset: 0x6D0BE, size: 0x8, addend: 0x0, symName: __ZN16SecureMemoryUnitC2EN7sc_core14sc_module_nameEhjjjj, symObjAddr: 0x167F8, symBinAddr: 0x100019D14, symSize: 0x458 }
  - { offsetInCU: 0x6D152, offset: 0x6D152, size: 0x8, addend: 0x0, symName: __ZN7sc_core5sc_inIbEC1EPKc, symObjAddr: 0x16C50, symBinAddr: 0x10001A16C, symSize: 0x34 }
  - { offsetInCU: 0x6D18B, offset: 0x6D18B, size: 0x8, addend: 0x0, symName: __ZN7sc_core5sc_inIjEC1EPKc, symObjAddr: 0x16C84, symBinAddr: 0x10001A1A0, symSize: 0x34 }
  - { offsetInCU: 0x6D1C3, offset: 0x6D1C3, size: 0x8, addend: 0x0, symName: __ZNSt3__13mapIjhNS_4lessIjEENS_9allocatorINS_4pairIKjhEEEEEC1B8ue170006Ev, symObjAddr: 0x16CB8, symBinAddr: 0x10001A1D4, symSize: 0x2C }
  - { offsetInCU: 0x6D1ED, offset: 0x6D1ED, size: 0x8, addend: 0x0, symName: __ZNSt3__13mapIjbNS_4lessIjEENS_9allocatorINS_4pairIKjbEEEEEC1B8ue170006Ev, symObjAddr: 0x16CE4, symBinAddr: 0x10001A200, symSize: 0x2C }
  - { offsetInCU: 0x6D217, offset: 0x6D217, size: 0x8, addend: 0x0, symName: __ZN16SecureMemoryUnit8generateEjRj, symObjAddr: 0x16D10, symBinAddr: 0x10001A22C, symSize: 0x4C }
  - { offsetInCU: 0x6D259, offset: 0x6D259, size: 0x8, addend: 0x0, symName: __ZN7sc_core6sc_outIjEC1EPKc, symObjAddr: 0x16D5C, symBinAddr: 0x10001A278, symSize: 0x34 }
  - { offsetInCU: 0x6D292, offset: 0x6D292, size: 0x8, addend: 0x0, symName: __ZN7sc_core6sc_outIbEC1EPKc, symObjAddr: 0x16D90, symBinAddr: 0x10001A2AC, symSize: 0x34 }
  - { offsetInCU: 0x6D2CB, offset: 0x6D2CB, size: 0x8, addend: 0x0, symName: __ZN16SecureMemoryUnit7processEv, symObjAddr: 0x16DC4, symBinAddr: 0x10001A2E0, symSize: 0x64C }
  - { offsetInCU: 0x6D58B, offset: 0x6D58B, size: 0x8, addend: 0x0, symName: __ZNSt3__13mapIjbNS_4lessIjEENS_9allocatorINS_4pairIKjbEEEEED1B8ue170006Ev, symObjAddr: 0x17410, symBinAddr: 0x10001A92C, symSize: 0x2C }
  - { offsetInCU: 0x6D5B5, offset: 0x6D5B5, size: 0x8, addend: 0x0, symName: __ZNSt3__13mapIjhNS_4lessIjEENS_9allocatorINS_4pairIKjhEEEEED1B8ue170006Ev, symObjAddr: 0x1743C, symBinAddr: 0x10001A958, symSize: 0x2C }
  - { offsetInCU: 0x6D5DF, offset: 0x6D5DF, size: 0x8, addend: 0x0, symName: __ZN16SecureMemoryUnitD0Ev, symObjAddr: 0x17468, symBinAddr: 0x10001A984, symSize: 0x30 }
  - { offsetInCU: 0x6D60B, offset: 0x6D60B, size: 0x8, addend: 0x0, symName: __ZThn104_N16SecureMemoryUnitD1Ev, symObjAddr: 0x17498, symBinAddr: 0x10001A9B4, symSize: 0x1C }
  - { offsetInCU: 0x6D621, offset: 0x6D621, size: 0x8, addend: 0x0, symName: __ZThn104_N16SecureMemoryUnitD0Ev, symObjAddr: 0x174B4, symBinAddr: 0x10001A9D0, symSize: 0x18 }
  - { offsetInCU: 0x6D637, offset: 0x6D637, size: 0x8, addend: 0x0, symName: __ZN7sc_core5sc_inIbEC2EPKc, symObjAddr: 0x174CC, symBinAddr: 0x10001A9E8, symSize: 0x5C }
  - { offsetInCU: 0x6D670, offset: 0x6D670, size: 0x8, addend: 0x0, symName: __ZN7sc_core5sc_inIjEC2EPKc, symObjAddr: 0x17528, symBinAddr: 0x10001AA44, symSize: 0x54 }
  - { offsetInCU: 0x6D6A8, offset: 0x6D6A8, size: 0x8, addend: 0x0, symName: __ZN7sc_core7sc_portINS_15sc_signal_in_ifIjEELi1ELNS_14sc_port_policyE0EEC2EPKc, symObjAddr: 0x1757C, symBinAddr: 0x10001AA98, symSize: 0x54 }
  - { offsetInCU: 0x6D6E1, offset: 0x6D6E1, size: 0x8, addend: 0x0, symName: __ZN7sc_core9sc_port_bINS_15sc_signal_in_ifIjEEEC2EPKciNS_14sc_port_policyE, symObjAddr: 0x175D0, symBinAddr: 0x10001AAEC, symSize: 0x6C }
  - { offsetInCU: 0x6D738, offset: 0x6D738, size: 0x8, addend: 0x0, symName: __ZNSt3__13mapIjhNS_4lessIjEENS_9allocatorINS_4pairIKjhEEEEEC2B8ue170006Ev, symObjAddr: 0x1763C, symBinAddr: 0x10001AB58, symSize: 0x40 }
  - { offsetInCU: 0x6D762, offset: 0x6D762, size: 0x8, addend: 0x0, symName: __ZNSt3__119__map_value_compareIjNS_12__value_typeIjhEENS_4lessIjEELb1EEC1B8ue170006ES4_, symObjAddr: 0x1767C, symBinAddr: 0x10001AB98, symSize: 0x2C }
  - { offsetInCU: 0x6D79B, offset: 0x6D79B, size: 0x8, addend: 0x0, symName: __ZNSt3__16__treeINS_12__value_typeIjhEENS_19__map_value_compareIjS2_NS_4lessIjEELb1EEENS_9allocatorIS2_EEEC1ERKS6_, symObjAddr: 0x176A8, symBinAddr: 0x10001ABC4, symSize: 0x34 }
  - { offsetInCU: 0x6D7D6, offset: 0x6D7D6, size: 0x8, addend: 0x0, symName: __ZNSt3__119__map_value_compareIjNS_12__value_typeIjhEENS_4lessIjEELb1EEC2B8ue170006ES4_, symObjAddr: 0x176DC, symBinAddr: 0x10001ABF8, symSize: 0x14 }
  - { offsetInCU: 0x6D80F, offset: 0x6D80F, size: 0x8, addend: 0x0, symName: __ZNSt3__16__treeINS_12__value_typeIjhEENS_19__map_value_compareIjS2_NS_4lessIjEELb1EEENS_9allocatorIS2_EEEC2ERKS6_, symObjAddr: 0x176F0, symBinAddr: 0x10001AC0C, symSize: 0x7C }
  - { offsetInCU: 0x6D84A, offset: 0x6D84A, size: 0x8, addend: 0x0, symName: __ZNSt3__117__compressed_pairINS_15__tree_end_nodeIPNS_16__tree_node_baseIPvEEEENS_9allocatorINS_11__tree_nodeINS_12__value_typeIjhEES3_EEEEEC1B8ue170006ILb1EvEEv, symObjAddr: 0x1776C, symBinAddr: 0x10001AC88, symSize: 0x2C }
  - { offsetInCU: 0x6D885, offset: 0x6D885, size: 0x8, addend: 0x0, symName: __ZNSt3__117__compressed_pairImNS_19__map_value_compareIjNS_12__value_typeIjhEENS_4lessIjEELb1EEEEC1B8ue170006IiRKS6_EEOT_OT0_, symObjAddr: 0x17798, symBinAddr: 0x10001ACB4, symSize: 0x3C }
  - { offsetInCU: 0x6D8DD, offset: 0x6D8DD, size: 0x8, addend: 0x0, symName: __ZNSt3__16__treeINS_12__value_typeIjhEENS_19__map_value_compareIjS2_NS_4lessIjEELb1EEENS_9allocatorIS2_EEE10__end_nodeB8ue170006Ev, symObjAddr: 0x177D4, symBinAddr: 0x10001ACF0, symSize: 0x2C }
  - { offsetInCU: 0x6D903, offset: 0x6D903, size: 0x8, addend: 0x0, symName: __ZNSt3__16__treeINS_12__value_typeIjhEENS_19__map_value_compareIjS2_NS_4lessIjEELb1EEENS_9allocatorIS2_EEE12__begin_nodeB8ue170006Ev, symObjAddr: 0x17800, symBinAddr: 0x10001AD1C, symSize: 0x14 }
  - { offsetInCU: 0x6D929, offset: 0x6D929, size: 0x8, addend: 0x0, symName: __ZNSt3__117__compressed_pairINS_15__tree_end_nodeIPNS_16__tree_node_baseIPvEEEENS_9allocatorINS_11__tree_nodeINS_12__value_typeIjhEES3_EEEEEC2B8ue170006ILb1EvEEv, symObjAddr: 0x17814, symBinAddr: 0x10001AD30, symSize: 0x34 }
  - { offsetInCU: 0x6D95E, offset: 0x6D95E, size: 0x8, addend: 0x0, symName: __ZNSt3__122__compressed_pair_elemINS_15__tree_end_nodeIPNS_16__tree_node_baseIPvEEEELi0ELb0EEC2B8ue170006ENS_16__value_init_tagE, symObjAddr: 0x17848, symBinAddr: 0x10001AD64, symSize: 0x2C }
  - { offsetInCU: 0x6D993, offset: 0x6D993, size: 0x8, addend: 0x0, symName: __ZNSt3__122__compressed_pair_elemINS_9allocatorINS_11__tree_nodeINS_12__value_typeIjhEEPvEEEELi1ELb1EEC2B8ue170006ENS_16__value_init_tagE, symObjAddr: 0x17874, symBinAddr: 0x10001AD90, symSize: 0x2C }
  - { offsetInCU: 0x6D9C8, offset: 0x6D9C8, size: 0x8, addend: 0x0, symName: __ZNSt3__115__tree_end_nodeIPNS_16__tree_node_baseIPvEEEC1B8ue170006Ev, symObjAddr: 0x178A0, symBinAddr: 0x10001ADBC, symSize: 0x2C }
  - { offsetInCU: 0x6D9F2, offset: 0x6D9F2, size: 0x8, addend: 0x0, symName: __ZNSt3__115__tree_end_nodeIPNS_16__tree_node_baseIPvEEEC2B8ue170006Ev, symObjAddr: 0x178CC, symBinAddr: 0x10001ADE8, symSize: 0x18 }
  - { offsetInCU: 0x6DA1C, offset: 0x6DA1C, size: 0x8, addend: 0x0, symName: __ZNSt3__19allocatorINS_11__tree_nodeINS_12__value_typeIjhEEPvEEEC2B8ue170006Ev, symObjAddr: 0x178E4, symBinAddr: 0x10001AE00, symSize: 0x2C }
  - { offsetInCU: 0x6DA46, offset: 0x6DA46, size: 0x8, addend: 0x0, symName: __ZNSt3__116__non_trivial_ifILb1ENS_9allocatorINS_11__tree_nodeINS_12__value_typeIjhEEPvEEEEEC2B8ue170006Ev, symObjAddr: 0x17910, symBinAddr: 0x10001AE2C, symSize: 0x14 }
  - { offsetInCU: 0x6DA70, offset: 0x6DA70, size: 0x8, addend: 0x0, symName: __ZNSt3__117__compressed_pairImNS_19__map_value_compareIjNS_12__value_typeIjhEENS_4lessIjEELb1EEEEC2B8ue170006IiRKS6_EEOT_OT0_, symObjAddr: 0x17924, symBinAddr: 0x10001AE40, symSize: 0x44 }
  - { offsetInCU: 0x6DAC8, offset: 0x6DAC8, size: 0x8, addend: 0x0, symName: __ZNSt3__122__compressed_pair_elemImLi0ELb0EEC2B8ue170006IivEEOT_, symObjAddr: 0x17968, symBinAddr: 0x10001AE84, symSize: 0x24 }
  - { offsetInCU: 0x6DB0A, offset: 0x6DB0A, size: 0x8, addend: 0x0, symName: __ZNSt3__122__compressed_pair_elemINS_19__map_value_compareIjNS_12__value_typeIjhEENS_4lessIjEELb1EEELi1ELb1EEC2B8ue170006IRKS6_vEEOT_, symObjAddr: 0x1798C, symBinAddr: 0x10001AEA8, symSize: 0x18 }
  - { offsetInCU: 0x6DB4C, offset: 0x6DB4C, size: 0x8, addend: 0x0, symName: __ZNSt3__114pointer_traitsIPNS_15__tree_end_nodeIPNS_16__tree_node_baseIPvEEEEE10pointer_toB8ue170006ERS6_, symObjAddr: 0x179A4, symBinAddr: 0x10001AEC0, symSize: 0x14 }
  - { offsetInCU: 0x6DB6F, offset: 0x6DB6F, size: 0x8, addend: 0x0, symName: __ZNSt3__117__compressed_pairINS_15__tree_end_nodeIPNS_16__tree_node_baseIPvEEEENS_9allocatorINS_11__tree_nodeINS_12__value_typeIjhEES3_EEEEE5firstB8ue170006Ev, symObjAddr: 0x179B8, symBinAddr: 0x10001AED4, symSize: 0x24 }
  - { offsetInCU: 0x6DB95, offset: 0x6DB95, size: 0x8, addend: 0x0, symName: __ZNSt3__122__compressed_pair_elemINS_15__tree_end_nodeIPNS_16__tree_node_baseIPvEEEELi0ELb0EE5__getB8ue170006Ev, symObjAddr: 0x179DC, symBinAddr: 0x10001AEF8, symSize: 0x14 }
  - { offsetInCU: 0x6DBBB, offset: 0x6DBBB, size: 0x8, addend: 0x0, symName: __ZNSt3__13mapIjbNS_4lessIjEENS_9allocatorINS_4pairIKjbEEEEEC2B8ue170006Ev, symObjAddr: 0x179F0, symBinAddr: 0x10001AF0C, symSize: 0x40 }
  - { offsetInCU: 0x6DBE5, offset: 0x6DBE5, size: 0x8, addend: 0x0, symName: __ZNSt3__119__map_value_compareIjNS_12__value_typeIjbEENS_4lessIjEELb1EEC1B8ue170006ES4_, symObjAddr: 0x17A30, symBinAddr: 0x10001AF4C, symSize: 0x2C }
  - { offsetInCU: 0x6DC1E, offset: 0x6DC1E, size: 0x8, addend: 0x0, symName: __ZNSt3__16__treeINS_12__value_typeIjbEENS_19__map_value_compareIjS2_NS_4lessIjEELb1EEENS_9allocatorIS2_EEEC1ERKS6_, symObjAddr: 0x17A5C, symBinAddr: 0x10001AF78, symSize: 0x34 }
  - { offsetInCU: 0x6DC59, offset: 0x6DC59, size: 0x8, addend: 0x0, symName: __ZNSt3__119__map_value_compareIjNS_12__value_typeIjbEENS_4lessIjEELb1EEC2B8ue170006ES4_, symObjAddr: 0x17A90, symBinAddr: 0x10001AFAC, symSize: 0x14 }
  - { offsetInCU: 0x6DC92, offset: 0x6DC92, size: 0x8, addend: 0x0, symName: __ZNSt3__16__treeINS_12__value_typeIjbEENS_19__map_value_compareIjS2_NS_4lessIjEELb1EEENS_9allocatorIS2_EEEC2ERKS6_, symObjAddr: 0x17AA4, symBinAddr: 0x10001AFC0, symSize: 0x7C }
  - { offsetInCU: 0x6DCCD, offset: 0x6DCCD, size: 0x8, addend: 0x0, symName: __ZNSt3__117__compressed_pairINS_15__tree_end_nodeIPNS_16__tree_node_baseIPvEEEENS_9allocatorINS_11__tree_nodeINS_12__value_typeIjbEES3_EEEEEC1B8ue170006ILb1EvEEv, symObjAddr: 0x17B20, symBinAddr: 0x10001B03C, symSize: 0x2C }
  - { offsetInCU: 0x6DD02, offset: 0x6DD02, size: 0x8, addend: 0x0, symName: __ZNSt3__117__compressed_pairImNS_19__map_value_compareIjNS_12__value_typeIjbEENS_4lessIjEELb1EEEEC1B8ue170006IiRKS6_EEOT_OT0_, symObjAddr: 0x17B4C, symBinAddr: 0x10001B068, symSize: 0x3C }
  - { offsetInCU: 0x6DD5A, offset: 0x6DD5A, size: 0x8, addend: 0x0, symName: __ZNSt3__16__treeINS_12__value_typeIjbEENS_19__map_value_compareIjS2_NS_4lessIjEELb1EEENS_9allocatorIS2_EEE10__end_nodeB8ue170006Ev, symObjAddr: 0x17B88, symBinAddr: 0x10001B0A4, symSize: 0x2C }
  - { offsetInCU: 0x6DD80, offset: 0x6DD80, size: 0x8, addend: 0x0, symName: __ZNSt3__16__treeINS_12__value_typeIjbEENS_19__map_value_compareIjS2_NS_4lessIjEELb1EEENS_9allocatorIS2_EEE12__begin_nodeB8ue170006Ev, symObjAddr: 0x17BB4, symBinAddr: 0x10001B0D0, symSize: 0x14 }
  - { offsetInCU: 0x6DDA6, offset: 0x6DDA6, size: 0x8, addend: 0x0, symName: __ZNSt3__117__compressed_pairINS_15__tree_end_nodeIPNS_16__tree_node_baseIPvEEEENS_9allocatorINS_11__tree_nodeINS_12__value_typeIjbEES3_EEEEEC2B8ue170006ILb1EvEEv, symObjAddr: 0x17BC8, symBinAddr: 0x10001B0E4, symSize: 0x34 }
  - { offsetInCU: 0x6DDDB, offset: 0x6DDDB, size: 0x8, addend: 0x0, symName: __ZNSt3__122__compressed_pair_elemINS_9allocatorINS_11__tree_nodeINS_12__value_typeIjbEEPvEEEELi1ELb1EEC2B8ue170006ENS_16__value_init_tagE, symObjAddr: 0x17BFC, symBinAddr: 0x10001B118, symSize: 0x2C }
  - { offsetInCU: 0x6DE10, offset: 0x6DE10, size: 0x8, addend: 0x0, symName: __ZNSt3__19allocatorINS_11__tree_nodeINS_12__value_typeIjbEEPvEEEC2B8ue170006Ev, symObjAddr: 0x17C28, symBinAddr: 0x10001B144, symSize: 0x2C }
  - { offsetInCU: 0x6DE3A, offset: 0x6DE3A, size: 0x8, addend: 0x0, symName: __ZNSt3__116__non_trivial_ifILb1ENS_9allocatorINS_11__tree_nodeINS_12__value_typeIjbEEPvEEEEEC2B8ue170006Ev, symObjAddr: 0x17C54, symBinAddr: 0x10001B170, symSize: 0x14 }
  - { offsetInCU: 0x6DE64, offset: 0x6DE64, size: 0x8, addend: 0x0, symName: __ZNSt3__117__compressed_pairImNS_19__map_value_compareIjNS_12__value_typeIjbEENS_4lessIjEELb1EEEEC2B8ue170006IiRKS6_EEOT_OT0_, symObjAddr: 0x17C68, symBinAddr: 0x10001B184, symSize: 0x44 }
  - { offsetInCU: 0x6DEBC, offset: 0x6DEBC, size: 0x8, addend: 0x0, symName: __ZNSt3__122__compressed_pair_elemINS_19__map_value_compareIjNS_12__value_typeIjbEENS_4lessIjEELb1EEELi1ELb1EEC2B8ue170006IRKS6_vEEOT_, symObjAddr: 0x17CAC, symBinAddr: 0x10001B1C8, symSize: 0x18 }
  - { offsetInCU: 0x6DEFE, offset: 0x6DEFE, size: 0x8, addend: 0x0, symName: __ZNSt3__117__compressed_pairINS_15__tree_end_nodeIPNS_16__tree_node_baseIPvEEEENS_9allocatorINS_11__tree_nodeINS_12__value_typeIjbEES3_EEEEE5firstB8ue170006Ev, symObjAddr: 0x17CC4, symBinAddr: 0x10001B1E0, symSize: 0x24 }
  - { offsetInCU: 0x6DF24, offset: 0x6DF24, size: 0x8, addend: 0x0, symName: __ZN7sc_core6sc_outIjEC2EPKc, symObjAddr: 0x17CE8, symBinAddr: 0x10001B204, symSize: 0x4C }
  - { offsetInCU: 0x6DF5D, offset: 0x6DF5D, size: 0x8, addend: 0x0, symName: __ZN7sc_core8sc_inoutIjEC2EPKc, symObjAddr: 0x17D34, symBinAddr: 0x10001B250, symSize: 0x58 }
  - { offsetInCU: 0x6DF96, offset: 0x6DF96, size: 0x8, addend: 0x0, symName: __ZN7sc_core7sc_portINS_18sc_signal_inout_ifIjEELi1ELNS_14sc_port_policyE0EEC2EPKc, symObjAddr: 0x17D8C, symBinAddr: 0x10001B2A8, symSize: 0x54 }
  - { offsetInCU: 0x6DFCF, offset: 0x6DFCF, size: 0x8, addend: 0x0, symName: __ZN7sc_core9sc_port_bINS_18sc_signal_inout_ifIjEEEC2EPKciNS_14sc_port_policyE, symObjAddr: 0x17DE0, symBinAddr: 0x10001B2FC, symSize: 0x6C }
  - { offsetInCU: 0x6E026, offset: 0x6E026, size: 0x8, addend: 0x0, symName: __ZN7sc_core6sc_outIbEC2EPKc, symObjAddr: 0x17E4C, symBinAddr: 0x10001B368, symSize: 0x4C }
  - { offsetInCU: 0x6E05F, offset: 0x6E05F, size: 0x8, addend: 0x0, symName: __ZN7sc_core8sc_inoutIbEC2EPKc, symObjAddr: 0x17E98, symBinAddr: 0x10001B3B4, symSize: 0x60 }
  - { offsetInCU: 0x6E098, offset: 0x6E098, size: 0x8, addend: 0x0, symName: __ZN16SecureMemoryUnit8scrambleEjjRjS0_S0_S0_, symObjAddr: 0x17EF8, symBinAddr: 0x10001B414, symSize: 0x88 }
  - { offsetInCU: 0x6E112, offset: 0x6E112, size: 0x8, addend: 0x0, symName: __ZN16SecureMemoryUnit7encryptEjj, symObjAddr: 0x17F80, symBinAddr: 0x10001B49C, symSize: 0x30 }
  - { offsetInCU: 0x6E162, offset: 0x6E162, size: 0x8, addend: 0x0, symName: __ZN16SecureMemoryUnit16calculate_parityEh, symObjAddr: 0x17FB0, symBinAddr: 0x10001B4CC, symSize: 0x6C }
  - { offsetInCU: 0x6E1C1, offset: 0x6E1C1, size: 0x8, addend: 0x0, symName: __ZNSt3__13mapIjbNS_4lessIjEENS_9allocatorINS_4pairIKjbEEEEEixERS5_, symObjAddr: 0x1801C, symBinAddr: 0x10001B538, symSize: 0x80 }
  - { offsetInCU: 0x6E1F8, offset: 0x6E1F8, size: 0x8, addend: 0x0, symName: __ZN16SecureMemoryUnit12write_memoryEjh, symObjAddr: 0x1809C, symBinAddr: 0x10001B5B8, symSize: 0x48 }
  - { offsetInCU: 0x6E23A, offset: 0x6E23A, size: 0x8, addend: 0x0, symName: __ZN16SecureMemoryUnit11read_memoryEj, symObjAddr: 0x180E4, symBinAddr: 0x10001B600, symSize: 0x38 }
  - { offsetInCU: 0x6E26E, offset: 0x6E26E, size: 0x8, addend: 0x0, symName: __ZNSt3__13mapIjbNS_4lessIjEENS_9allocatorINS_4pairIKjbEEEEE4findB8ue170006ERS5_, symObjAddr: 0x1814C, symBinAddr: 0x10001B668, symSize: 0x40 }
  - { offsetInCU: 0x6E2A3, offset: 0x6E2A3, size: 0x8, addend: 0x0, symName: __ZNSt3__13mapIjbNS_4lessIjEENS_9allocatorINS_4pairIKjbEEEEE3endB8ue170006Ev, symObjAddr: 0x1818C, symBinAddr: 0x10001B6A8, symSize: 0x38 }
  - { offsetInCU: 0x6E2E0, offset: 0x6E2E0, size: 0x8, addend: 0x0, symName: __ZNSt3__16__treeINS_12__value_typeIjbEENS_19__map_value_compareIjS2_NS_4lessIjEELb1EEENS_9allocatorIS2_EEE25__emplace_unique_key_argsIjJRKNS_21piecewise_construct_tENS_5tupleIJRKjEEENSE_IJEEEEEENS_4pairINS_15__tree_iteratorIS2_PNS_11__tree_nodeIS2_PvEElEEbEERKT_DpOT0_, symObjAddr: 0x181C4, symBinAddr: 0x10001B6E0, symSize: 0x100 }
  - { offsetInCU: 0x6E3B6, offset: 0x6E3B6, size: 0x8, addend: 0x0, symName: __ZNKSt3__115__tree_iteratorINS_12__value_typeIjbEEPNS_11__tree_nodeIS2_PvEElEptB8ue170006Ev, symObjAddr: 0x182F4, symBinAddr: 0x10001B810, symSize: 0x2C }
  - { offsetInCU: 0x6E3DC, offset: 0x6E3DC, size: 0x8, addend: 0x0, symName: __ZNSt3__112__value_typeIjbE11__get_valueB8ue170006Ev, symObjAddr: 0x18320, symBinAddr: 0x10001B83C, symSize: 0x14 }
  - { offsetInCU: 0x6E402, offset: 0x6E402, size: 0x8, addend: 0x0, symName: __ZNSt3__16__treeINS_12__value_typeIjbEENS_19__map_value_compareIjS2_NS_4lessIjEELb1EEENS_9allocatorIS2_EEE12__find_equalIjEERPNS_16__tree_node_baseIPvEERPNS_15__tree_end_nodeISE_EERKT_, symObjAddr: 0x18334, symBinAddr: 0x10001B850, symSize: 0x184 }
  - { offsetInCU: 0x6E46F, offset: 0x6E46F, size: 0x8, addend: 0x0, symName: __ZNSt3__16__treeINS_12__value_typeIjbEENS_19__map_value_compareIjS2_NS_4lessIjEELb1EEENS_9allocatorIS2_EEE16__construct_nodeIJRKNS_21piecewise_construct_tENS_5tupleIJRKjEEENSE_IJEEEEEENS_10unique_ptrINS_11__tree_nodeIS2_PvEENS_22__tree_node_destructorINS7_ISM_EEEEEEDpOT_, symObjAddr: 0x184B8, symBinAddr: 0x10001B9D4, symSize: 0x120 }
  - { offsetInCU: 0x6E4F8, offset: 0x6E4F8, size: 0x8, addend: 0x0, symName: __ZNSt3__16__treeINS_12__value_typeIjbEENS_19__map_value_compareIjS2_NS_4lessIjEELb1EEENS_9allocatorIS2_EEE16__insert_node_atEPNS_15__tree_end_nodeIPNS_16__tree_node_baseIPvEEEERSE_SE_, symObjAddr: 0x185D8, symBinAddr: 0x10001BAF4, symSize: 0xCC }
  - { offsetInCU: 0x6E54D, offset: 0x6E54D, size: 0x8, addend: 0x0, symName: __ZNKSt3__110unique_ptrINS_11__tree_nodeINS_12__value_typeIjbEEPvEENS_22__tree_node_destructorINS_9allocatorIS5_EEEEE3getB8ue170006Ev, symObjAddr: 0x186A4, symBinAddr: 0x10001BBC0, symSize: 0x28 }
  - { offsetInCU: 0x6E573, offset: 0x6E573, size: 0x8, addend: 0x0, symName: __ZNSt3__110unique_ptrINS_11__tree_nodeINS_12__value_typeIjbEEPvEENS_22__tree_node_destructorINS_9allocatorIS5_EEEEE7releaseB8ue170006Ev, symObjAddr: 0x186CC, symBinAddr: 0x10001BBE8, symSize: 0x44 }
  - { offsetInCU: 0x6E5A8, offset: 0x6E5A8, size: 0x8, addend: 0x0, symName: __ZNSt3__110unique_ptrINS_11__tree_nodeINS_12__value_typeIjbEEPvEENS_22__tree_node_destructorINS_9allocatorIS5_EEEEED1B8ue170006Ev, symObjAddr: 0x18710, symBinAddr: 0x10001BC2C, symSize: 0x2C }
  - { offsetInCU: 0x6E5D2, offset: 0x6E5D2, size: 0x8, addend: 0x0, symName: __ZNSt3__115__tree_iteratorINS_12__value_typeIjbEEPNS_11__tree_nodeIS2_PvEElEC1B8ue170006ES6_, symObjAddr: 0x1873C, symBinAddr: 0x10001BC58, symSize: 0x34 }
  - { offsetInCU: 0x6E611, offset: 0x6E611, size: 0x8, addend: 0x0, symName: __ZNSt3__14pairINS_15__tree_iteratorINS_12__value_typeIjbEEPNS_11__tree_nodeIS3_PvEElEEbEC1B8ue170006IS8_RbLS5_0EEEOT_OT0_, symObjAddr: 0x18770, symBinAddr: 0x10001BC8C, symSize: 0x3C }
  - { offsetInCU: 0x6E66F, offset: 0x6E66F, size: 0x8, addend: 0x0, symName: __ZNKSt3__16__treeINS_12__value_typeIjbEENS_19__map_value_compareIjS2_NS_4lessIjEELb1EEENS_9allocatorIS2_EEE6__rootB8ue170006Ev, symObjAddr: 0x187AC, symBinAddr: 0x10001BCC8, symSize: 0x28 }
  - { offsetInCU: 0x6E695, offset: 0x6E695, size: 0x8, addend: 0x0, symName: __ZNKSt3__16__treeINS_12__value_typeIjbEENS_19__map_value_compareIjS2_NS_4lessIjEELb1EEENS_9allocatorIS2_EEE10__root_ptrB8ue170006Ev, symObjAddr: 0x187D4, symBinAddr: 0x10001BCF0, symSize: 0x24 }
  - { offsetInCU: 0x6E6BB, offset: 0x6E6BB, size: 0x8, addend: 0x0, symName: __ZNSt3__16__treeINS_12__value_typeIjbEENS_19__map_value_compareIjS2_NS_4lessIjEELb1EEENS_9allocatorIS2_EEE10value_compB8ue170006Ev, symObjAddr: 0x187F8, symBinAddr: 0x10001BD14, symSize: 0x28 }
  - { offsetInCU: 0x6E6E1, offset: 0x6E6E1, size: 0x8, addend: 0x0, symName: __ZNKSt3__119__map_value_compareIjNS_12__value_typeIjbEENS_4lessIjEELb1EEclB8ue170006ERKjRKS2_, symObjAddr: 0x18820, symBinAddr: 0x10001BD3C, symSize: 0x50 }
  - { offsetInCU: 0x6E725, offset: 0x6E725, size: 0x8, addend: 0x0, symName: __ZNKSt3__119__map_value_compareIjNS_12__value_typeIjbEENS_4lessIjEELb1EEclB8ue170006ERKS2_RKj, symObjAddr: 0x18870, symBinAddr: 0x10001BD8C, symSize: 0x48 }
  - { offsetInCU: 0x6E769, offset: 0x6E769, size: 0x8, addend: 0x0, symName: __ZNKSt3__16__treeINS_12__value_typeIjbEENS_19__map_value_compareIjS2_NS_4lessIjEELb1EEENS_9allocatorIS2_EEE10__end_nodeB8ue170006Ev, symObjAddr: 0x188B8, symBinAddr: 0x10001BDD4, symSize: 0x2C }
  - { offsetInCU: 0x6E78F, offset: 0x6E78F, size: 0x8, addend: 0x0, symName: __ZNKSt3__117__compressed_pairINS_15__tree_end_nodeIPNS_16__tree_node_baseIPvEEEENS_9allocatorINS_11__tree_nodeINS_12__value_typeIjbEES3_EEEEE5firstB8ue170006Ev, symObjAddr: 0x188E4, symBinAddr: 0x10001BE00, symSize: 0x24 }
  - { offsetInCU: 0x6E7B5, offset: 0x6E7B5, size: 0x8, addend: 0x0, symName: __ZNKSt3__122__compressed_pair_elemINS_15__tree_end_nodeIPNS_16__tree_node_baseIPvEEEELi0ELb0EE5__getB8ue170006Ev, symObjAddr: 0x18908, symBinAddr: 0x10001BE24, symSize: 0x14 }
  - { offsetInCU: 0x6E7DB, offset: 0x6E7DB, size: 0x8, addend: 0x0, symName: __ZNSt3__117__compressed_pairImNS_19__map_value_compareIjNS_12__value_typeIjbEENS_4lessIjEELb1EEEE6secondB8ue170006Ev, symObjAddr: 0x1891C, symBinAddr: 0x10001BE38, symSize: 0x24 }
  - { offsetInCU: 0x6E801, offset: 0x6E801, size: 0x8, addend: 0x0, symName: __ZNSt3__122__compressed_pair_elemINS_19__map_value_compareIjNS_12__value_typeIjbEENS_4lessIjEELb1EEELi1ELb1EE5__getB8ue170006Ev, symObjAddr: 0x18940, symBinAddr: 0x10001BE5C, symSize: 0x14 }
  - { offsetInCU: 0x6E827, offset: 0x6E827, size: 0x8, addend: 0x0, symName: __ZNKSt3__14lessIjEclB8ue170006ERKjS3_, symObjAddr: 0x18954, symBinAddr: 0x10001BE70, symSize: 0x34 }
  - { offsetInCU: 0x6E86B, offset: 0x6E86B, size: 0x8, addend: 0x0, symName: __ZNKSt3__112__value_typeIjbE11__get_valueB8ue170006Ev, symObjAddr: 0x18988, symBinAddr: 0x10001BEA4, symSize: 0x14 }
  - { offsetInCU: 0x6E891, offset: 0x6E891, size: 0x8, addend: 0x0, symName: __ZNSt3__16__treeINS_12__value_typeIjbEENS_19__map_value_compareIjS2_NS_4lessIjEELb1EEENS_9allocatorIS2_EEE12__node_allocB8ue170006Ev, symObjAddr: 0x1899C, symBinAddr: 0x10001BEB8, symSize: 0x28 }
  - { offsetInCU: 0x6E8B7, offset: 0x6E8B7, size: 0x8, addend: 0x0, symName: __ZNSt3__116allocator_traitsINS_9allocatorINS_11__tree_nodeINS_12__value_typeIjbEEPvEEEEE8allocateB8ue170006ERS7_m, symObjAddr: 0x189C4, symBinAddr: 0x10001BEE0, symSize: 0x2C }
  - { offsetInCU: 0x6E8EA, offset: 0x6E8EA, size: 0x8, addend: 0x0, symName: __ZNSt3__122__tree_node_destructorINS_9allocatorINS_11__tree_nodeINS_12__value_typeIjbEEPvEEEEEC1B8ue170006ERS7_b, symObjAddr: 0x189F0, symBinAddr: 0x10001BF0C, symSize: 0x48 }
  - { offsetInCU: 0x6E938, offset: 0x6E938, size: 0x8, addend: 0x0, symName: __ZNSt3__110unique_ptrINS_11__tree_nodeINS_12__value_typeIjbEEPvEENS_22__tree_node_destructorINS_9allocatorIS5_EEEEEC1B8ue170006ILb1EvEEPS5_NS_16__dependent_typeINS_27__unique_ptr_deleter_sfinaeIS9_EEXT_EE20__good_rval_ref_typeE, symObjAddr: 0x18A38, symBinAddr: 0x10001BF54, symSize: 0x3C }
  - { offsetInCU: 0x6E989, offset: 0x6E989, size: 0x8, addend: 0x0, symName: __ZNSt3__116allocator_traitsINS_9allocatorINS_11__tree_nodeINS_12__value_typeIjbEEPvEEEEE9constructB8ue170006INS_4pairIKjbEEJRKNS_21piecewise_construct_tENS_5tupleIJRSB_EEENSG_IJEEEEvEEvRS7_PT_DpOT0_, symObjAddr: 0x18A74, symBinAddr: 0x10001BF90, symSize: 0x44 }
  - { offsetInCU: 0x6EA08, offset: 0x6EA08, size: 0x8, addend: 0x0, symName: __ZNSt3__122__tree_key_value_typesINS_12__value_typeIjbEEE9__get_ptrB8ue170006ERS2_, symObjAddr: 0x18AB8, symBinAddr: 0x10001BFD4, symSize: 0x24 }
  - { offsetInCU: 0x6EA2C, offset: 0x6EA2C, size: 0x8, addend: 0x0, symName: __ZNKSt3__110unique_ptrINS_11__tree_nodeINS_12__value_typeIjbEEPvEENS_22__tree_node_destructorINS_9allocatorIS5_EEEEEptB8ue170006Ev, symObjAddr: 0x18ADC, symBinAddr: 0x10001BFF8, symSize: 0x28 }
  - { offsetInCU: 0x6EA52, offset: 0x6EA52, size: 0x8, addend: 0x0, symName: __ZNSt3__110unique_ptrINS_11__tree_nodeINS_12__value_typeIjbEEPvEENS_22__tree_node_destructorINS_9allocatorIS5_EEEEE11get_deleterB8ue170006Ev, symObjAddr: 0x18B04, symBinAddr: 0x10001C020, symSize: 0x24 }
  - { offsetInCU: 0x6EA78, offset: 0x6EA78, size: 0x8, addend: 0x0, symName: __ZNSt3__117__compressed_pairINS_15__tree_end_nodeIPNS_16__tree_node_baseIPvEEEENS_9allocatorINS_11__tree_nodeINS_12__value_typeIjbEES3_EEEEE6secondB8ue170006Ev, symObjAddr: 0x18B28, symBinAddr: 0x10001C044, symSize: 0x24 }
  - { offsetInCU: 0x6EA9E, offset: 0x6EA9E, size: 0x8, addend: 0x0, symName: __ZNSt3__122__compressed_pair_elemINS_9allocatorINS_11__tree_nodeINS_12__value_typeIjbEEPvEEEELi1ELb1EE5__getB8ue170006Ev, symObjAddr: 0x18B4C, symBinAddr: 0x10001C068, symSize: 0x14 }
  - { offsetInCU: 0x6EAC4, offset: 0x6EAC4, size: 0x8, addend: 0x0, symName: __ZNSt3__19allocatorINS_11__tree_nodeINS_12__value_typeIjbEEPvEEE8allocateB8ue170006Em, symObjAddr: 0x18B60, symBinAddr: 0x10001C07C, symSize: 0x5C }
  - { offsetInCU: 0x6EB03, offset: 0x6EB03, size: 0x8, addend: 0x0, symName: __ZNSt3__116allocator_traitsINS_9allocatorINS_11__tree_nodeINS_12__value_typeIjbEEPvEEEEE8max_sizeB8ue170006IS7_vEEmRKS7_, symObjAddr: 0x18BBC, symBinAddr: 0x10001C0D8, symSize: 0x24 }
  - { offsetInCU: 0x6EB31, offset: 0x6EB31, size: 0x8, addend: 0x0, symName: __ZNKSt3__19allocatorINS_11__tree_nodeINS_12__value_typeIjbEEPvEEE8max_sizeB8ue170006Ev, symObjAddr: 0x18BE0, symBinAddr: 0x10001C0FC, symSize: 0x18 }
  - { offsetInCU: 0x6EB57, offset: 0x6EB57, size: 0x8, addend: 0x0, symName: __ZNSt3__122__tree_node_destructorINS_9allocatorINS_11__tree_nodeINS_12__value_typeIjbEEPvEEEEEC2B8ue170006ERS7_b, symObjAddr: 0x18BF8, symBinAddr: 0x10001C114, symSize: 0x38 }
  - { offsetInCU: 0x6EB9F, offset: 0x6EB9F, size: 0x8, addend: 0x0, symName: __ZNSt3__110unique_ptrINS_11__tree_nodeINS_12__value_typeIjbEEPvEENS_22__tree_node_destructorINS_9allocatorIS5_EEEEEC2B8ue170006ILb1EvEEPS5_NS_16__dependent_typeINS_27__unique_ptr_deleter_sfinaeIS9_EEXT_EE20__good_rval_ref_typeE, symObjAddr: 0x18C30, symBinAddr: 0x10001C14C, symSize: 0x48 }
  - { offsetInCU: 0x6EBF0, offset: 0x6EBF0, size: 0x8, addend: 0x0, symName: __ZNSt3__117__compressed_pairIPNS_11__tree_nodeINS_12__value_typeIjbEEPvEENS_22__tree_node_destructorINS_9allocatorIS5_EEEEEC1B8ue170006IRS6_SA_EEOT_OT0_, symObjAddr: 0x18C78, symBinAddr: 0x10001C194, symSize: 0x3C }
  - { offsetInCU: 0x6EC48, offset: 0x6EC48, size: 0x8, addend: 0x0, symName: __ZNSt3__117__compressed_pairIPNS_11__tree_nodeINS_12__value_typeIjbEEPvEENS_22__tree_node_destructorINS_9allocatorIS5_EEEEEC2B8ue170006IRS6_SA_EEOT_OT0_, symObjAddr: 0x18CB4, symBinAddr: 0x10001C1D0, symSize: 0x48 }
  - { offsetInCU: 0x6ECA0, offset: 0x6ECA0, size: 0x8, addend: 0x0, symName: __ZNSt3__122__compressed_pair_elemIPNS_11__tree_nodeINS_12__value_typeIjbEEPvEELi0ELb0EEC2B8ue170006IRS6_vEEOT_, symObjAddr: 0x18CFC, symBinAddr: 0x10001C218, symSize: 0x24 }
  - { offsetInCU: 0x6ECE2, offset: 0x6ECE2, size: 0x8, addend: 0x0, symName: __ZNSt3__122__compressed_pair_elemINS_22__tree_node_destructorINS_9allocatorINS_11__tree_nodeINS_12__value_typeIjbEEPvEEEEEELi1ELb0EEC2B8ue170006IS9_vEEOT_, symObjAddr: 0x18D20, symBinAddr: 0x10001C23C, symSize: 0x24 }
  - { offsetInCU: 0x6ED24, offset: 0x6ED24, size: 0x8, addend: 0x0, symName: __ZNSt3__19allocatorINS_11__tree_nodeINS_12__value_typeIjbEEPvEEE9constructB8ue170006INS_4pairIKjbEEJRKNS_21piecewise_construct_tENS_5tupleIJRS9_EEENSE_IJEEEEEEvPT_DpOT0_, symObjAddr: 0x18D44, symBinAddr: 0x10001C260, symSize: 0x44 }
  - { offsetInCU: 0x6EDA0, offset: 0x6EDA0, size: 0x8, addend: 0x0, symName: __ZNSt3__14pairIKjbEC1B8ue170006IJRS1_EJEEENS_21piecewise_construct_tENS_5tupleIJDpT_EEENS6_IJDpT0_EEE, symObjAddr: 0x18D88, symBinAddr: 0x10001C2A4, symSize: 0x44 }
  - { offsetInCU: 0x6EE07, offset: 0x6EE07, size: 0x8, addend: 0x0, symName: __ZNSt3__14pairIKjbEC1B8ue170006IJRS1_EJEJLm0EEJEEENS_21piecewise_construct_tERNS_5tupleIJDpT_EEERNS6_IJDpT0_EEENS_15__tuple_indicesIJXspT1_EEEENSF_IJXspT2_EEEE, symObjAddr: 0x18DCC, symBinAddr: 0x10001C2E8, symSize: 0x3C }
  - { offsetInCU: 0x6EE97, offset: 0x6EE97, size: 0x8, addend: 0x0, symName: __ZNSt3__14pairIKjbEC2B8ue170006IJRS1_EJEJLm0EEJEEENS_21piecewise_construct_tERNS_5tupleIJDpT_EEERNS6_IJDpT0_EEENS_15__tuple_indicesIJXspT1_EEEENSF_IJXspT2_EEEE, symObjAddr: 0x18E08, symBinAddr: 0x10001C324, symSize: 0x48 }
  - { offsetInCU: 0x6EF27, offset: 0x6EF27, size: 0x8, addend: 0x0, symName: __ZNSt3__112__tuple_leafILm0ERKjLb0EE3getB8ue170006Ev, symObjAddr: 0x18E74, symBinAddr: 0x10001C390, symSize: 0x18 }
  - { offsetInCU: 0x6EF4D, offset: 0x6EF4D, size: 0x8, addend: 0x0, symName: __ZNKSt3__117__compressed_pairIPNS_11__tree_nodeINS_12__value_typeIjbEEPvEENS_22__tree_node_destructorINS_9allocatorIS5_EEEEE5firstB8ue170006Ev, symObjAddr: 0x18E8C, symBinAddr: 0x10001C3A8, symSize: 0x24 }
  - { offsetInCU: 0x6EF73, offset: 0x6EF73, size: 0x8, addend: 0x0, symName: __ZNKSt3__122__compressed_pair_elemIPNS_11__tree_nodeINS_12__value_typeIjbEEPvEELi0ELb0EE5__getB8ue170006Ev, symObjAddr: 0x18EB0, symBinAddr: 0x10001C3CC, symSize: 0x14 }
  - { offsetInCU: 0x6EF99, offset: 0x6EF99, size: 0x8, addend: 0x0, symName: __ZNSt3__117__compressed_pairIPNS_11__tree_nodeINS_12__value_typeIjbEEPvEENS_22__tree_node_destructorINS_9allocatorIS5_EEEEE6secondB8ue170006Ev, symObjAddr: 0x18EC4, symBinAddr: 0x10001C3E0, symSize: 0x28 }
  - { offsetInCU: 0x6EFBF, offset: 0x6EFBF, size: 0x8, addend: 0x0, symName: __ZNSt3__122__compressed_pair_elemINS_22__tree_node_destructorINS_9allocatorINS_11__tree_nodeINS_12__value_typeIjbEEPvEEEEEELi1ELb0EE5__getB8ue170006Ev, symObjAddr: 0x18EEC, symBinAddr: 0x10001C408, symSize: 0x14 }
  - { offsetInCU: 0x6EFE5, offset: 0x6EFE5, size: 0x8, addend: 0x0, symName: __ZNSt3__16__treeINS_12__value_typeIjbEENS_19__map_value_compareIjS2_NS_4lessIjEELb1EEENS_9allocatorIS2_EEE4sizeB8ue170006Ev, symObjAddr: 0x1922C, symBinAddr: 0x10001C748, symSize: 0x28 }
  - { offsetInCU: 0x6F00B, offset: 0x6F00B, size: 0x8, addend: 0x0, symName: __ZNKSt3__116__tree_node_baseIPvE15__parent_unsafeB8ue170006Ev, symObjAddr: 0x19254, symBinAddr: 0x10001C770, symSize: 0x18 }
  - { offsetInCU: 0x6F031, offset: 0x6F031, size: 0x8, addend: 0x0, symName: __ZNSt3__116__tree_node_baseIPvE12__set_parentB8ue170006EPS2_, symObjAddr: 0x1943C, symBinAddr: 0x10001C958, symSize: 0x20 }
  - { offsetInCU: 0x6F066, offset: 0x6F066, size: 0x8, addend: 0x0, symName: __ZNSt3__117__compressed_pairImNS_19__map_value_compareIjNS_12__value_typeIjbEENS_4lessIjEELb1EEEE5firstB8ue170006Ev, symObjAddr: 0x1945C, symBinAddr: 0x10001C978, symSize: 0x24 }
  - { offsetInCU: 0x6F08C, offset: 0x6F08C, size: 0x8, addend: 0x0, symName: __ZNSt3__122__compressed_pair_elemImLi0ELb0EE5__getB8ue170006Ev, symObjAddr: 0x19480, symBinAddr: 0x10001C99C, symSize: 0x14 }
  - { offsetInCU: 0x6F0B2, offset: 0x6F0B2, size: 0x8, addend: 0x0, symName: __ZNSt3__117__compressed_pairIPNS_11__tree_nodeINS_12__value_typeIjbEEPvEENS_22__tree_node_destructorINS_9allocatorIS5_EEEEE5firstB8ue170006Ev, symObjAddr: 0x19494, symBinAddr: 0x10001C9B0, symSize: 0x24 }
  - { offsetInCU: 0x6F0D8, offset: 0x6F0D8, size: 0x8, addend: 0x0, symName: __ZNSt3__122__compressed_pair_elemIPNS_11__tree_nodeINS_12__value_typeIjbEEPvEELi0ELb0EE5__getB8ue170006Ev, symObjAddr: 0x194B8, symBinAddr: 0x10001C9D4, symSize: 0x14 }
  - { offsetInCU: 0x6F0FE, offset: 0x6F0FE, size: 0x8, addend: 0x0, symName: __ZNSt3__110unique_ptrINS_11__tree_nodeINS_12__value_typeIjbEEPvEENS_22__tree_node_destructorINS_9allocatorIS5_EEEEED2B8ue170006Ev, symObjAddr: 0x194CC, symBinAddr: 0x10001C9E8, symSize: 0x30 }
  - { offsetInCU: 0x6F128, offset: 0x6F128, size: 0x8, addend: 0x0, symName: __ZNSt3__110unique_ptrINS_11__tree_nodeINS_12__value_typeIjbEEPvEENS_22__tree_node_destructorINS_9allocatorIS5_EEEEE5resetB8ue170006EPS5_, symObjAddr: 0x194FC, symBinAddr: 0x10001CA18, symSize: 0x78 }
  - { offsetInCU: 0x6F16C, offset: 0x6F16C, size: 0x8, addend: 0x0, symName: __ZNSt3__122__tree_node_destructorINS_9allocatorINS_11__tree_nodeINS_12__value_typeIjbEEPvEEEEEclB8ue170006EPS6_, symObjAddr: 0x19574, symBinAddr: 0x10001CA90, symSize: 0x98 }
  - { offsetInCU: 0x6F1A1, offset: 0x6F1A1, size: 0x8, addend: 0x0, symName: __ZNSt3__116allocator_traitsINS_9allocatorINS_11__tree_nodeINS_12__value_typeIjbEEPvEEEEE7destroyB8ue170006INS_4pairIKjbEEvvEEvRS7_PT_, symObjAddr: 0x1960C, symBinAddr: 0x10001CB28, symSize: 0x14 }
  - { offsetInCU: 0x6F1DC, offset: 0x6F1DC, size: 0x8, addend: 0x0, symName: __ZNSt3__116allocator_traitsINS_9allocatorINS_11__tree_nodeINS_12__value_typeIjbEEPvEEEEE10deallocateB8ue170006ERS7_PS6_m, symObjAddr: 0x19620, symBinAddr: 0x10001CB3C, symSize: 0x34 }
  - { offsetInCU: 0x6F21E, offset: 0x6F21E, size: 0x8, addend: 0x0, symName: __ZNSt3__19allocatorINS_11__tree_nodeINS_12__value_typeIjbEEPvEEE10deallocateB8ue170006EPS5_m, symObjAddr: 0x19654, symBinAddr: 0x10001CB70, symSize: 0x44 }
  - { offsetInCU: 0x6F260, offset: 0x6F260, size: 0x8, addend: 0x0, symName: __ZNSt3__115__tree_iteratorINS_12__value_typeIjbEEPNS_11__tree_nodeIS2_PvEElEC2B8ue170006ES6_, symObjAddr: 0x19698, symBinAddr: 0x10001CBB4, symSize: 0x20 }
  - { offsetInCU: 0x6F299, offset: 0x6F299, size: 0x8, addend: 0x0, symName: __ZNSt3__14pairINS_15__tree_iteratorINS_12__value_typeIjbEEPNS_11__tree_nodeIS3_PvEElEEbEC2B8ue170006IS8_RbLS5_0EEEOT_OT0_, symObjAddr: 0x196B8, symBinAddr: 0x10001CBD4, symSize: 0x38 }
  - { offsetInCU: 0x6F2F7, offset: 0x6F2F7, size: 0x8, addend: 0x0, symName: __ZNSt3__15tupleIJRKjEEC1B8ue170006INS_4_AndELi0EEES2_, symObjAddr: 0x196F0, symBinAddr: 0x10001CC0C, symSize: 0x34 }
  - { offsetInCU: 0x6F33F, offset: 0x6F33F, size: 0x8, addend: 0x0, symName: __ZNSt3__15tupleIJRKjEEC2B8ue170006INS_4_AndELi0EEES2_, symObjAddr: 0x19724, symBinAddr: 0x10001CC40, symSize: 0x34 }
  - { offsetInCU: 0x6F387, offset: 0x6F387, size: 0x8, addend: 0x0, symName: __ZNSt3__112__tuple_implINS_15__tuple_indicesIJLm0EEEEJRKjEEC1B8ue170006IJLm0EEJS4_EJEJEJS4_EEENS1_IJXspT_EEEENS_13__tuple_typesIJDpT0_EEENS1_IJXspT1_EEEENS8_IJDpT2_EEEDpOT3_, symObjAddr: 0x19758, symBinAddr: 0x10001CC74, symSize: 0x34 }
  - { offsetInCU: 0x6F41C, offset: 0x6F41C, size: 0x8, addend: 0x0, symName: __ZNSt3__112__tuple_implINS_15__tuple_indicesIJLm0EEEEJRKjEEC2B8ue170006IJLm0EEJS4_EJEJEJS4_EEENS1_IJXspT_EEEENS_13__tuple_typesIJDpT0_EEENS1_IJXspT1_EEEENS8_IJDpT2_EEEDpOT3_, symObjAddr: 0x1978C, symBinAddr: 0x10001CCA8, symSize: 0x34 }
  - { offsetInCU: 0x6F4B1, offset: 0x6F4B1, size: 0x8, addend: 0x0, symName: __ZNSt3__112__tuple_leafILm0ERKjLb0EEC2B8ue170006IS2_vEEOT_, symObjAddr: 0x197C0, symBinAddr: 0x10001CCDC, symSize: 0x20 }
  - { offsetInCU: 0x6F4F4, offset: 0x6F4F4, size: 0x8, addend: 0x0, symName: __ZNSt3__114pointer_traitsIPNS_12__value_typeIjbEEE10pointer_toB8ue170006ERS2_, symObjAddr: 0x197E0, symBinAddr: 0x10001CCFC, symSize: 0x14 }
  - { offsetInCU: 0x6F517, offset: 0x6F517, size: 0x8, addend: 0x0, symName: __ZNKSt3__115__tree_iteratorINS_12__value_typeIjbEEPNS_11__tree_nodeIS2_PvEElE8__get_npB8ue170006Ev, symObjAddr: 0x197F4, symBinAddr: 0x10001CD10, symSize: 0x18 }
  - { offsetInCU: 0x6F53D, offset: 0x6F53D, size: 0x8, addend: 0x0, symName: __ZNSt3__13mapIjhNS_4lessIjEENS_9allocatorINS_4pairIKjhEEEEEixERS5_, symObjAddr: 0x1980C, symBinAddr: 0x10001CD28, symSize: 0x80 }
  - { offsetInCU: 0x6F574, offset: 0x6F574, size: 0x8, addend: 0x0, symName: __ZNSt3__16__treeINS_12__value_typeIjhEENS_19__map_value_compareIjS2_NS_4lessIjEELb1EEENS_9allocatorIS2_EEE25__emplace_unique_key_argsIjJRKNS_21piecewise_construct_tENS_5tupleIJRKjEEENSE_IJEEEEEENS_4pairINS_15__tree_iteratorIS2_PNS_11__tree_nodeIS2_PvEElEEbEERKT_DpOT0_, symObjAddr: 0x1988C, symBinAddr: 0x10001CDA8, symSize: 0x100 }
  - { offsetInCU: 0x6F64A, offset: 0x6F64A, size: 0x8, addend: 0x0, symName: __ZNKSt3__115__tree_iteratorINS_12__value_typeIjhEEPNS_11__tree_nodeIS2_PvEElEptB8ue170006Ev, symObjAddr: 0x1998C, symBinAddr: 0x10001CEA8, symSize: 0x2C }
  - { offsetInCU: 0x6F670, offset: 0x6F670, size: 0x8, addend: 0x0, symName: __ZNSt3__112__value_typeIjhE11__get_valueB8ue170006Ev, symObjAddr: 0x199B8, symBinAddr: 0x10001CED4, symSize: 0x14 }
  - { offsetInCU: 0x6F696, offset: 0x6F696, size: 0x8, addend: 0x0, symName: __ZNSt3__16__treeINS_12__value_typeIjhEENS_19__map_value_compareIjS2_NS_4lessIjEELb1EEENS_9allocatorIS2_EEE12__find_equalIjEERPNS_16__tree_node_baseIPvEERPNS_15__tree_end_nodeISE_EERKT_, symObjAddr: 0x199CC, symBinAddr: 0x10001CEE8, symSize: 0x184 }
  - { offsetInCU: 0x6F703, offset: 0x6F703, size: 0x8, addend: 0x0, symName: __ZNSt3__16__treeINS_12__value_typeIjhEENS_19__map_value_compareIjS2_NS_4lessIjEELb1EEENS_9allocatorIS2_EEE16__construct_nodeIJRKNS_21piecewise_construct_tENS_5tupleIJRKjEEENSE_IJEEEEEENS_10unique_ptrINS_11__tree_nodeIS2_PvEENS_22__tree_node_destructorINS7_ISM_EEEEEEDpOT_, symObjAddr: 0x19B50, symBinAddr: 0x10001D06C, symSize: 0x120 }
  - { offsetInCU: 0x6F78C, offset: 0x6F78C, size: 0x8, addend: 0x0, symName: __ZNSt3__16__treeINS_12__value_typeIjhEENS_19__map_value_compareIjS2_NS_4lessIjEELb1EEENS_9allocatorIS2_EEE16__insert_node_atEPNS_15__tree_end_nodeIPNS_16__tree_node_baseIPvEEEERSE_SE_, symObjAddr: 0x19C70, symBinAddr: 0x10001D18C, symSize: 0xCC }
  - { offsetInCU: 0x6F7E1, offset: 0x6F7E1, size: 0x8, addend: 0x0, symName: __ZNKSt3__110unique_ptrINS_11__tree_nodeINS_12__value_typeIjhEEPvEENS_22__tree_node_destructorINS_9allocatorIS5_EEEEE3getB8ue170006Ev, symObjAddr: 0x19D3C, symBinAddr: 0x10001D258, symSize: 0x28 }
  - { offsetInCU: 0x6F807, offset: 0x6F807, size: 0x8, addend: 0x0, symName: __ZNSt3__110unique_ptrINS_11__tree_nodeINS_12__value_typeIjhEEPvEENS_22__tree_node_destructorINS_9allocatorIS5_EEEEE7releaseB8ue170006Ev, symObjAddr: 0x19D64, symBinAddr: 0x10001D280, symSize: 0x44 }
  - { offsetInCU: 0x6F83C, offset: 0x6F83C, size: 0x8, addend: 0x0, symName: __ZNSt3__110unique_ptrINS_11__tree_nodeINS_12__value_typeIjhEEPvEENS_22__tree_node_destructorINS_9allocatorIS5_EEEEED1B8ue170006Ev, symObjAddr: 0x19DA8, symBinAddr: 0x10001D2C4, symSize: 0x2C }
  - { offsetInCU: 0x6F866, offset: 0x6F866, size: 0x8, addend: 0x0, symName: __ZNSt3__115__tree_iteratorINS_12__value_typeIjhEEPNS_11__tree_nodeIS2_PvEElEC1B8ue170006ES6_, symObjAddr: 0x19DD4, symBinAddr: 0x10001D2F0, symSize: 0x34 }
  - { offsetInCU: 0x6F8A5, offset: 0x6F8A5, size: 0x8, addend: 0x0, symName: __ZNSt3__14pairINS_15__tree_iteratorINS_12__value_typeIjhEEPNS_11__tree_nodeIS3_PvEElEEbEC1B8ue170006IS8_RbLS5_0EEEOT_OT0_, symObjAddr: 0x19E08, symBinAddr: 0x10001D324, symSize: 0x3C }
  - { offsetInCU: 0x6F903, offset: 0x6F903, size: 0x8, addend: 0x0, symName: __ZNKSt3__16__treeINS_12__value_typeIjhEENS_19__map_value_compareIjS2_NS_4lessIjEELb1EEENS_9allocatorIS2_EEE6__rootB8ue170006Ev, symObjAddr: 0x19E44, symBinAddr: 0x10001D360, symSize: 0x28 }
  - { offsetInCU: 0x6F929, offset: 0x6F929, size: 0x8, addend: 0x0, symName: __ZNKSt3__16__treeINS_12__value_typeIjhEENS_19__map_value_compareIjS2_NS_4lessIjEELb1EEENS_9allocatorIS2_EEE10__root_ptrB8ue170006Ev, symObjAddr: 0x19E6C, symBinAddr: 0x10001D388, symSize: 0x24 }
  - { offsetInCU: 0x6F94F, offset: 0x6F94F, size: 0x8, addend: 0x0, symName: __ZNSt3__16__treeINS_12__value_typeIjhEENS_19__map_value_compareIjS2_NS_4lessIjEELb1EEENS_9allocatorIS2_EEE10value_compB8ue170006Ev, symObjAddr: 0x19E90, symBinAddr: 0x10001D3AC, symSize: 0x28 }
  - { offsetInCU: 0x6F975, offset: 0x6F975, size: 0x8, addend: 0x0, symName: __ZNKSt3__119__map_value_compareIjNS_12__value_typeIjhEENS_4lessIjEELb1EEclB8ue170006ERKjRKS2_, symObjAddr: 0x19EB8, symBinAddr: 0x10001D3D4, symSize: 0x50 }
  - { offsetInCU: 0x6F9B9, offset: 0x6F9B9, size: 0x8, addend: 0x0, symName: __ZNKSt3__119__map_value_compareIjNS_12__value_typeIjhEENS_4lessIjEELb1EEclB8ue170006ERKS2_RKj, symObjAddr: 0x19F08, symBinAddr: 0x10001D424, symSize: 0x48 }
  - { offsetInCU: 0x6F9FD, offset: 0x6F9FD, size: 0x8, addend: 0x0, symName: __ZNKSt3__16__treeINS_12__value_typeIjhEENS_19__map_value_compareIjS2_NS_4lessIjEELb1EEENS_9allocatorIS2_EEE10__end_nodeB8ue170006Ev, symObjAddr: 0x19F50, symBinAddr: 0x10001D46C, symSize: 0x2C }
  - { offsetInCU: 0x6FA23, offset: 0x6FA23, size: 0x8, addend: 0x0, symName: __ZNKSt3__117__compressed_pairINS_15__tree_end_nodeIPNS_16__tree_node_baseIPvEEEENS_9allocatorINS_11__tree_nodeINS_12__value_typeIjhEES3_EEEEE5firstB8ue170006Ev, symObjAddr: 0x19F7C, symBinAddr: 0x10001D498, symSize: 0x24 }
  - { offsetInCU: 0x6FA49, offset: 0x6FA49, size: 0x8, addend: 0x0, symName: __ZNSt3__117__compressed_pairImNS_19__map_value_compareIjNS_12__value_typeIjhEENS_4lessIjEELb1EEEE6secondB8ue170006Ev, symObjAddr: 0x19FA0, symBinAddr: 0x10001D4BC, symSize: 0x24 }
  - { offsetInCU: 0x6FA6F, offset: 0x6FA6F, size: 0x8, addend: 0x0, symName: __ZNSt3__122__compressed_pair_elemINS_19__map_value_compareIjNS_12__value_typeIjhEENS_4lessIjEELb1EEELi1ELb1EE5__getB8ue170006Ev, symObjAddr: 0x19FC4, symBinAddr: 0x10001D4E0, symSize: 0x14 }
  - { offsetInCU: 0x6FA95, offset: 0x6FA95, size: 0x8, addend: 0x0, symName: __ZNKSt3__112__value_typeIjhE11__get_valueB8ue170006Ev, symObjAddr: 0x19FD8, symBinAddr: 0x10001D4F4, symSize: 0x14 }
  - { offsetInCU: 0x6FABB, offset: 0x6FABB, size: 0x8, addend: 0x0, symName: __ZNSt3__16__treeINS_12__value_typeIjhEENS_19__map_value_compareIjS2_NS_4lessIjEELb1EEENS_9allocatorIS2_EEE12__node_allocB8ue170006Ev, symObjAddr: 0x19FEC, symBinAddr: 0x10001D508, symSize: 0x28 }
  - { offsetInCU: 0x6FAE1, offset: 0x6FAE1, size: 0x8, addend: 0x0, symName: __ZNSt3__116allocator_traitsINS_9allocatorINS_11__tree_nodeINS_12__value_typeIjhEEPvEEEEE8allocateB8ue170006ERS7_m, symObjAddr: 0x1A014, symBinAddr: 0x10001D530, symSize: 0x2C }
  - { offsetInCU: 0x6FB14, offset: 0x6FB14, size: 0x8, addend: 0x0, symName: __ZNSt3__122__tree_node_destructorINS_9allocatorINS_11__tree_nodeINS_12__value_typeIjhEEPvEEEEEC1B8ue170006ERS7_b, symObjAddr: 0x1A040, symBinAddr: 0x10001D55C, symSize: 0x48 }
  - { offsetInCU: 0x6FB62, offset: 0x6FB62, size: 0x8, addend: 0x0, symName: __ZNSt3__110unique_ptrINS_11__tree_nodeINS_12__value_typeIjhEEPvEENS_22__tree_node_destructorINS_9allocatorIS5_EEEEEC1B8ue170006ILb1EvEEPS5_NS_16__dependent_typeINS_27__unique_ptr_deleter_sfinaeIS9_EEXT_EE20__good_rval_ref_typeE, symObjAddr: 0x1A088, symBinAddr: 0x10001D5A4, symSize: 0x3C }
  - { offsetInCU: 0x6FBB3, offset: 0x6FBB3, size: 0x8, addend: 0x0, symName: __ZNSt3__116allocator_traitsINS_9allocatorINS_11__tree_nodeINS_12__value_typeIjhEEPvEEEEE9constructB8ue170006INS_4pairIKjhEEJRKNS_21piecewise_construct_tENS_5tupleIJRSB_EEENSG_IJEEEEvEEvRS7_PT_DpOT0_, symObjAddr: 0x1A0C4, symBinAddr: 0x10001D5E0, symSize: 0x44 }
  - { offsetInCU: 0x6FC32, offset: 0x6FC32, size: 0x8, addend: 0x0, symName: __ZNSt3__122__tree_key_value_typesINS_12__value_typeIjhEEE9__get_ptrB8ue170006ERS2_, symObjAddr: 0x1A108, symBinAddr: 0x10001D624, symSize: 0x24 }
  - { offsetInCU: 0x6FC56, offset: 0x6FC56, size: 0x8, addend: 0x0, symName: __ZNKSt3__110unique_ptrINS_11__tree_nodeINS_12__value_typeIjhEEPvEENS_22__tree_node_destructorINS_9allocatorIS5_EEEEEptB8ue170006Ev, symObjAddr: 0x1A12C, symBinAddr: 0x10001D648, symSize: 0x28 }
  - { offsetInCU: 0x6FC7C, offset: 0x6FC7C, size: 0x8, addend: 0x0, symName: __ZNSt3__110unique_ptrINS_11__tree_nodeINS_12__value_typeIjhEEPvEENS_22__tree_node_destructorINS_9allocatorIS5_EEEEE11get_deleterB8ue170006Ev, symObjAddr: 0x1A154, symBinAddr: 0x10001D670, symSize: 0x24 }
  - { offsetInCU: 0x6FCA2, offset: 0x6FCA2, size: 0x8, addend: 0x0, symName: __ZNSt3__117__compressed_pairINS_15__tree_end_nodeIPNS_16__tree_node_baseIPvEEEENS_9allocatorINS_11__tree_nodeINS_12__value_typeIjhEES3_EEEEE6secondB8ue170006Ev, symObjAddr: 0x1A178, symBinAddr: 0x10001D694, symSize: 0x24 }
  - { offsetInCU: 0x6FCC8, offset: 0x6FCC8, size: 0x8, addend: 0x0, symName: __ZNSt3__122__compressed_pair_elemINS_9allocatorINS_11__tree_nodeINS_12__value_typeIjhEEPvEEEELi1ELb1EE5__getB8ue170006Ev, symObjAddr: 0x1A19C, symBinAddr: 0x10001D6B8, symSize: 0x14 }
  - { offsetInCU: 0x6FCEE, offset: 0x6FCEE, size: 0x8, addend: 0x0, symName: __ZNSt3__19allocatorINS_11__tree_nodeINS_12__value_typeIjhEEPvEEE8allocateB8ue170006Em, symObjAddr: 0x1A1B0, symBinAddr: 0x10001D6CC, symSize: 0x5C }
  - { offsetInCU: 0x6FD2D, offset: 0x6FD2D, size: 0x8, addend: 0x0, symName: __ZNSt3__116allocator_traitsINS_9allocatorINS_11__tree_nodeINS_12__value_typeIjhEEPvEEEEE8max_sizeB8ue170006IS7_vEEmRKS7_, symObjAddr: 0x1A20C, symBinAddr: 0x10001D728, symSize: 0x24 }
  - { offsetInCU: 0x6FD5B, offset: 0x6FD5B, size: 0x8, addend: 0x0, symName: __ZNKSt3__19allocatorINS_11__tree_nodeINS_12__value_typeIjhEEPvEEE8max_sizeB8ue170006Ev, symObjAddr: 0x1A230, symBinAddr: 0x10001D74C, symSize: 0x18 }
  - { offsetInCU: 0x6FD81, offset: 0x6FD81, size: 0x8, addend: 0x0, symName: __ZNSt3__122__tree_node_destructorINS_9allocatorINS_11__tree_nodeINS_12__value_typeIjhEEPvEEEEEC2B8ue170006ERS7_b, symObjAddr: 0x1A248, symBinAddr: 0x10001D764, symSize: 0x38 }
  - { offsetInCU: 0x6FDC9, offset: 0x6FDC9, size: 0x8, addend: 0x0, symName: __ZNSt3__110unique_ptrINS_11__tree_nodeINS_12__value_typeIjhEEPvEENS_22__tree_node_destructorINS_9allocatorIS5_EEEEEC2B8ue170006ILb1EvEEPS5_NS_16__dependent_typeINS_27__unique_ptr_deleter_sfinaeIS9_EEXT_EE20__good_rval_ref_typeE, symObjAddr: 0x1A280, symBinAddr: 0x10001D79C, symSize: 0x48 }
  - { offsetInCU: 0x6FE1A, offset: 0x6FE1A, size: 0x8, addend: 0x0, symName: __ZNSt3__117__compressed_pairIPNS_11__tree_nodeINS_12__value_typeIjhEEPvEENS_22__tree_node_destructorINS_9allocatorIS5_EEEEEC1B8ue170006IRS6_SA_EEOT_OT0_, symObjAddr: 0x1A2C8, symBinAddr: 0x10001D7E4, symSize: 0x3C }
  - { offsetInCU: 0x6FE72, offset: 0x6FE72, size: 0x8, addend: 0x0, symName: __ZNSt3__117__compressed_pairIPNS_11__tree_nodeINS_12__value_typeIjhEEPvEENS_22__tree_node_destructorINS_9allocatorIS5_EEEEEC2B8ue170006IRS6_SA_EEOT_OT0_, symObjAddr: 0x1A304, symBinAddr: 0x10001D820, symSize: 0x48 }
  - { offsetInCU: 0x6FECA, offset: 0x6FECA, size: 0x8, addend: 0x0, symName: __ZNSt3__122__compressed_pair_elemIPNS_11__tree_nodeINS_12__value_typeIjhEEPvEELi0ELb0EEC2B8ue170006IRS6_vEEOT_, symObjAddr: 0x1A34C, symBinAddr: 0x10001D868, symSize: 0x24 }
  - { offsetInCU: 0x6FF0C, offset: 0x6FF0C, size: 0x8, addend: 0x0, symName: __ZNSt3__122__compressed_pair_elemINS_22__tree_node_destructorINS_9allocatorINS_11__tree_nodeINS_12__value_typeIjhEEPvEEEEEELi1ELb0EEC2B8ue170006IS9_vEEOT_, symObjAddr: 0x1A370, symBinAddr: 0x10001D88C, symSize: 0x24 }
  - { offsetInCU: 0x6FF4E, offset: 0x6FF4E, size: 0x8, addend: 0x0, symName: __ZNSt3__19allocatorINS_11__tree_nodeINS_12__value_typeIjhEEPvEEE9constructB8ue170006INS_4pairIKjhEEJRKNS_21piecewise_construct_tENS_5tupleIJRS9_EEENSE_IJEEEEEEvPT_DpOT0_, symObjAddr: 0x1A394, symBinAddr: 0x10001D8B0, symSize: 0x44 }
  - { offsetInCU: 0x6FFCA, offset: 0x6FFCA, size: 0x8, addend: 0x0, symName: __ZNSt3__14pairIKjhEC1B8ue170006IJRS1_EJEEENS_21piecewise_construct_tENS_5tupleIJDpT_EEENS6_IJDpT0_EEE, symObjAddr: 0x1A3D8, symBinAddr: 0x10001D8F4, symSize: 0x44 }
  - { offsetInCU: 0x70031, offset: 0x70031, size: 0x8, addend: 0x0, symName: __ZNSt3__14pairIKjhEC1B8ue170006IJRS1_EJEJLm0EEJEEENS_21piecewise_construct_tERNS_5tupleIJDpT_EEERNS6_IJDpT0_EEENS_15__tuple_indicesIJXspT1_EEEENSF_IJXspT2_EEEE, symObjAddr: 0x1A41C, symBinAddr: 0x10001D938, symSize: 0x3C }
  - { offsetInCU: 0x700C1, offset: 0x700C1, size: 0x8, addend: 0x0, symName: __ZNSt3__14pairIKjhEC2B8ue170006IJRS1_EJEJLm0EEJEEENS_21piecewise_construct_tERNS_5tupleIJDpT_EEERNS6_IJDpT0_EEENS_15__tuple_indicesIJXspT1_EEEENSF_IJXspT2_EEEE, symObjAddr: 0x1A458, symBinAddr: 0x10001D974, symSize: 0x48 }
  - { offsetInCU: 0x70151, offset: 0x70151, size: 0x8, addend: 0x0, symName: __ZNKSt3__117__compressed_pairIPNS_11__tree_nodeINS_12__value_typeIjhEEPvEENS_22__tree_node_destructorINS_9allocatorIS5_EEEEE5firstB8ue170006Ev, symObjAddr: 0x1A4A0, symBinAddr: 0x10001D9BC, symSize: 0x24 }
  - { offsetInCU: 0x70177, offset: 0x70177, size: 0x8, addend: 0x0, symName: __ZNKSt3__122__compressed_pair_elemIPNS_11__tree_nodeINS_12__value_typeIjhEEPvEELi0ELb0EE5__getB8ue170006Ev, symObjAddr: 0x1A4C4, symBinAddr: 0x10001D9E0, symSize: 0x14 }
  - { offsetInCU: 0x7019D, offset: 0x7019D, size: 0x8, addend: 0x0, symName: __ZNSt3__117__compressed_pairIPNS_11__tree_nodeINS_12__value_typeIjhEEPvEENS_22__tree_node_destructorINS_9allocatorIS5_EEEEE6secondB8ue170006Ev, symObjAddr: 0x1A4D8, symBinAddr: 0x10001D9F4, symSize: 0x28 }
  - { offsetInCU: 0x701C3, offset: 0x701C3, size: 0x8, addend: 0x0, symName: __ZNSt3__122__compressed_pair_elemINS_22__tree_node_destructorINS_9allocatorINS_11__tree_nodeINS_12__value_typeIjhEEPvEEEEEELi1ELb0EE5__getB8ue170006Ev, symObjAddr: 0x1A500, symBinAddr: 0x10001DA1C, symSize: 0x14 }
  - { offsetInCU: 0x701E9, offset: 0x701E9, size: 0x8, addend: 0x0, symName: __ZNSt3__16__treeINS_12__value_typeIjhEENS_19__map_value_compareIjS2_NS_4lessIjEELb1EEENS_9allocatorIS2_EEE4sizeB8ue170006Ev, symObjAddr: 0x1A514, symBinAddr: 0x10001DA30, symSize: 0x28 }
  - { offsetInCU: 0x7020F, offset: 0x7020F, size: 0x8, addend: 0x0, symName: __ZNSt3__117__compressed_pairImNS_19__map_value_compareIjNS_12__value_typeIjhEENS_4lessIjEELb1EEEE5firstB8ue170006Ev, symObjAddr: 0x1A53C, symBinAddr: 0x10001DA58, symSize: 0x24 }
  - { offsetInCU: 0x70235, offset: 0x70235, size: 0x8, addend: 0x0, symName: __ZNSt3__117__compressed_pairIPNS_11__tree_nodeINS_12__value_typeIjhEEPvEENS_22__tree_node_destructorINS_9allocatorIS5_EEEEE5firstB8ue170006Ev, symObjAddr: 0x1A560, symBinAddr: 0x10001DA7C, symSize: 0x24 }
  - { offsetInCU: 0x7025B, offset: 0x7025B, size: 0x8, addend: 0x0, symName: __ZNSt3__122__compressed_pair_elemIPNS_11__tree_nodeINS_12__value_typeIjhEEPvEELi0ELb0EE5__getB8ue170006Ev, symObjAddr: 0x1A584, symBinAddr: 0x10001DAA0, symSize: 0x14 }
  - { offsetInCU: 0x70281, offset: 0x70281, size: 0x8, addend: 0x0, symName: __ZNSt3__110unique_ptrINS_11__tree_nodeINS_12__value_typeIjhEEPvEENS_22__tree_node_destructorINS_9allocatorIS5_EEEEED2B8ue170006Ev, symObjAddr: 0x1A598, symBinAddr: 0x10001DAB4, symSize: 0x30 }
  - { offsetInCU: 0x702AB, offset: 0x702AB, size: 0x8, addend: 0x0, symName: __ZNSt3__110unique_ptrINS_11__tree_nodeINS_12__value_typeIjhEEPvEENS_22__tree_node_destructorINS_9allocatorIS5_EEEEE5resetB8ue170006EPS5_, symObjAddr: 0x1A5C8, symBinAddr: 0x10001DAE4, symSize: 0x78 }
  - { offsetInCU: 0x702EF, offset: 0x702EF, size: 0x8, addend: 0x0, symName: __ZNSt3__122__tree_node_destructorINS_9allocatorINS_11__tree_nodeINS_12__value_typeIjhEEPvEEEEEclB8ue170006EPS6_, symObjAddr: 0x1A640, symBinAddr: 0x10001DB5C, symSize: 0x98 }
  - { offsetInCU: 0x70324, offset: 0x70324, size: 0x8, addend: 0x0, symName: __ZNSt3__116allocator_traitsINS_9allocatorINS_11__tree_nodeINS_12__value_typeIjhEEPvEEEEE7destroyB8ue170006INS_4pairIKjhEEvvEEvRS7_PT_, symObjAddr: 0x1A6D8, symBinAddr: 0x10001DBF4, symSize: 0x14 }
  - { offsetInCU: 0x7035F, offset: 0x7035F, size: 0x8, addend: 0x0, symName: __ZNSt3__116allocator_traitsINS_9allocatorINS_11__tree_nodeINS_12__value_typeIjhEEPvEEEEE10deallocateB8ue170006ERS7_PS6_m, symObjAddr: 0x1A6EC, symBinAddr: 0x10001DC08, symSize: 0x34 }
  - { offsetInCU: 0x703A1, offset: 0x703A1, size: 0x8, addend: 0x0, symName: __ZNSt3__19allocatorINS_11__tree_nodeINS_12__value_typeIjhEEPvEEE10deallocateB8ue170006EPS5_m, symObjAddr: 0x1A720, symBinAddr: 0x10001DC3C, symSize: 0x44 }
  - { offsetInCU: 0x703E3, offset: 0x703E3, size: 0x8, addend: 0x0, symName: __ZNSt3__115__tree_iteratorINS_12__value_typeIjhEEPNS_11__tree_nodeIS2_PvEElEC2B8ue170006ES6_, symObjAddr: 0x1A764, symBinAddr: 0x10001DC80, symSize: 0x20 }
  - { offsetInCU: 0x7041C, offset: 0x7041C, size: 0x8, addend: 0x0, symName: __ZNSt3__14pairINS_15__tree_iteratorINS_12__value_typeIjhEEPNS_11__tree_nodeIS3_PvEElEEbEC2B8ue170006IS8_RbLS5_0EEEOT_OT0_, symObjAddr: 0x1A784, symBinAddr: 0x10001DCA0, symSize: 0x38 }
  - { offsetInCU: 0x7047A, offset: 0x7047A, size: 0x8, addend: 0x0, symName: __ZNSt3__114pointer_traitsIPNS_12__value_typeIjhEEE10pointer_toB8ue170006ERS2_, symObjAddr: 0x1A7BC, symBinAddr: 0x10001DCD8, symSize: 0x14 }
  - { offsetInCU: 0x7049D, offset: 0x7049D, size: 0x8, addend: 0x0, symName: __ZNKSt3__115__tree_iteratorINS_12__value_typeIjhEEPNS_11__tree_nodeIS2_PvEElE8__get_npB8ue170006Ev, symObjAddr: 0x1A7D0, symBinAddr: 0x10001DCEC, symSize: 0x18 }
  - { offsetInCU: 0x704C3, offset: 0x704C3, size: 0x8, addend: 0x0, symName: __ZNSt3__16__treeINS_12__value_typeIjbEENS_19__map_value_compareIjS2_NS_4lessIjEELb1EEENS_9allocatorIS2_EEE4findIjEENS_15__tree_iteratorIS2_PNS_11__tree_nodeIS2_PvEElEERKT_, symObjAddr: 0x1A84C, symBinAddr: 0x10001DD68, symSize: 0xF8 }
  - { offsetInCU: 0x70512, offset: 0x70512, size: 0x8, addend: 0x0, symName: __ZNSt3__114__map_iteratorINS_15__tree_iteratorINS_12__value_typeIjbEEPNS_11__tree_nodeIS3_PvEElEEEC1B8ue170006ES8_, symObjAddr: 0x1A944, symBinAddr: 0x10001DE60, symSize: 0x34 }
  - { offsetInCU: 0x7054B, offset: 0x7054B, size: 0x8, addend: 0x0, symName: __ZNSt3__16__treeINS_12__value_typeIjbEENS_19__map_value_compareIjS2_NS_4lessIjEELb1EEENS_9allocatorIS2_EEE13__lower_boundIjEENS_15__tree_iteratorIS2_PNS_11__tree_nodeIS2_PvEElEERKT_SF_PNS_15__tree_end_nodeIPNS_16__tree_node_baseISD_EEEE, symObjAddr: 0x1A978, symBinAddr: 0x10001DE94, symSize: 0xA4 }
  - { offsetInCU: 0x705A9, offset: 0x705A9, size: 0x8, addend: 0x0, symName: __ZNSt3__16__treeINS_12__value_typeIjbEENS_19__map_value_compareIjS2_NS_4lessIjEELb1EEENS_9allocatorIS2_EEE3endB8ue170006Ev, symObjAddr: 0x1AA1C, symBinAddr: 0x10001DF38, symSize: 0x34 }
  - { offsetInCU: 0x705CF, offset: 0x705CF, size: 0x8, addend: 0x0, symName: __ZNKSt3__115__tree_iteratorINS_12__value_typeIjbEEPNS_11__tree_nodeIS2_PvEElEdeB8ue170006Ev, symObjAddr: 0x1AA50, symBinAddr: 0x10001DF6C, symSize: 0x28 }
  - { offsetInCU: 0x705F5, offset: 0x705F5, size: 0x8, addend: 0x0, symName: __ZNSt3__115__tree_iteratorINS_12__value_typeIjbEEPNS_11__tree_nodeIS2_PvEElEC1B8ue170006EPNS_15__tree_end_nodeIPNS_16__tree_node_baseIS4_EEEE, symObjAddr: 0x1AA78, symBinAddr: 0x10001DF94, symSize: 0x34 }
  - { offsetInCU: 0x7062E, offset: 0x7062E, size: 0x8, addend: 0x0, symName: __ZNSt3__115__tree_iteratorINS_12__value_typeIjbEEPNS_11__tree_nodeIS2_PvEElEC2B8ue170006EPNS_15__tree_end_nodeIPNS_16__tree_node_baseIS4_EEEE, symObjAddr: 0x1AAAC, symBinAddr: 0x10001DFC8, symSize: 0x20 }
  - { offsetInCU: 0x70667, offset: 0x70667, size: 0x8, addend: 0x0, symName: __ZNSt3__114__map_iteratorINS_15__tree_iteratorINS_12__value_typeIjbEEPNS_11__tree_nodeIS3_PvEElEEEC2B8ue170006ES8_, symObjAddr: 0x1AACC, symBinAddr: 0x10001DFE8, symSize: 0x20 }
  - { offsetInCU: 0x706A0, offset: 0x706A0, size: 0x8, addend: 0x0, symName: __ZNSt3__13mapIjbNS_4lessIjEENS_9allocatorINS_4pairIKjbEEEEED2B8ue170006Ev, symObjAddr: 0x1AAEC, symBinAddr: 0x10001E008, symSize: 0x2C }
  - { offsetInCU: 0x706CA, offset: 0x706CA, size: 0x8, addend: 0x0, symName: __ZNSt3__16__treeINS_12__value_typeIjbEENS_19__map_value_compareIjS2_NS_4lessIjEELb1EEENS_9allocatorIS2_EEED1Ev, symObjAddr: 0x1AB18, symBinAddr: 0x10001E034, symSize: 0x2C }
  - { offsetInCU: 0x706F6, offset: 0x706F6, size: 0x8, addend: 0x0, symName: __ZNSt3__16__treeINS_12__value_typeIjbEENS_19__map_value_compareIjS2_NS_4lessIjEELb1EEENS_9allocatorIS2_EEED2Ev, symObjAddr: 0x1AB44, symBinAddr: 0x10001E060, symSize: 0x38 }
  - { offsetInCU: 0x70722, offset: 0x70722, size: 0x8, addend: 0x0, symName: __ZNSt3__16__treeINS_12__value_typeIjbEENS_19__map_value_compareIjS2_NS_4lessIjEELb1EEENS_9allocatorIS2_EEE7destroyEPNS_11__tree_nodeIS2_PvEE, symObjAddr: 0x1AB7C, symBinAddr: 0x10001E098, symSize: 0xA8 }
  - { offsetInCU: 0x7076E, offset: 0x7076E, size: 0x8, addend: 0x0, symName: __ZNSt3__13mapIjhNS_4lessIjEENS_9allocatorINS_4pairIKjhEEEEED2B8ue170006Ev, symObjAddr: 0x1AC24, symBinAddr: 0x10001E140, symSize: 0x2C }
  - { offsetInCU: 0x70798, offset: 0x70798, size: 0x8, addend: 0x0, symName: __ZNSt3__16__treeINS_12__value_typeIjhEENS_19__map_value_compareIjS2_NS_4lessIjEELb1EEENS_9allocatorIS2_EEED1Ev, symObjAddr: 0x1AC50, symBinAddr: 0x10001E16C, symSize: 0x2C }
  - { offsetInCU: 0x707C4, offset: 0x707C4, size: 0x8, addend: 0x0, symName: __ZNSt3__16__treeINS_12__value_typeIjhEENS_19__map_value_compareIjS2_NS_4lessIjEELb1EEENS_9allocatorIS2_EEED2Ev, symObjAddr: 0x1AC7C, symBinAddr: 0x10001E198, symSize: 0x38 }
  - { offsetInCU: 0x707F0, offset: 0x707F0, size: 0x8, addend: 0x0, symName: __ZNSt3__16__treeINS_12__value_typeIjhEENS_19__map_value_compareIjS2_NS_4lessIjEELb1EEENS_9allocatorIS2_EEE7destroyEPNS_11__tree_nodeIS2_PvEE, symObjAddr: 0x1ACB4, symBinAddr: 0x10001E1D0, symSize: 0xA8 }
  - { offsetInCU: 0x7083C, offset: 0x7083C, size: 0x8, addend: 0x0, symName: __ZN2CUC2EN7sc_core14sc_module_nameE, symObjAddr: 0x1AD5C, symBinAddr: 0x10001E278, symSize: 0x5A4 }
  - { offsetInCU: 0x70886, offset: 0x70886, size: 0x8, addend: 0x0, symName: __ZN7sc_core6sc_outIN5sc_dt5sc_bvILi2EEEEC1Ev, symObjAddr: 0x1B300, symBinAddr: 0x10001E81C, symSize: 0x2C }
  - { offsetInCU: 0x708B0, offset: 0x708B0, size: 0x8, addend: 0x0, symName: __ZN7sc_core6sc_outIN5sc_dt5sc_bvILi12EEEEC1Ev, symObjAddr: 0x1B32C, symBinAddr: 0x10001E848, symSize: 0x2C }
  - { offsetInCU: 0x708DA, offset: 0x708DA, size: 0x8, addend: 0x0, symName: __ZN7sc_core6sc_outIN5sc_dt5sc_bvILi3EEEEC1Ev, symObjAddr: 0x1B358, symBinAddr: 0x10001E874, symSize: 0x2C }
  - { offsetInCU: 0x70904, offset: 0x70904, size: 0x8, addend: 0x0, symName: __ZN7sc_core6sc_outIN5sc_dt5sc_bvILi5EEEEC1Ev, symObjAddr: 0x1B384, symBinAddr: 0x10001E8A0, symSize: 0x2C }
  - { offsetInCU: 0x7092E, offset: 0x7092E, size: 0x8, addend: 0x0, symName: __ZN7sc_core6sc_outIhEC1Ev, symObjAddr: 0x1B3B0, symBinAddr: 0x10001E8CC, symSize: 0x2C }
  - { offsetInCU: 0x70958, offset: 0x70958, size: 0x8, addend: 0x0, symName: __ZN2CU9behaviourEv, symObjAddr: 0x1B3DC, symBinAddr: 0x10001E8F8, symSize: 0xDC }
  - { offsetInCU: 0x7097E, offset: 0x7097E, size: 0x8, addend: 0x0, symName: __ZN7sc_core6sc_outIhED1Ev, symObjAddr: 0x1B4B8, symBinAddr: 0x10001E9D4, symSize: 0x2C }
  - { offsetInCU: 0x709A8, offset: 0x709A8, size: 0x8, addend: 0x0, symName: __ZN7sc_core6sc_outIN5sc_dt5sc_bvILi5EEEED1Ev, symObjAddr: 0x1B4E4, symBinAddr: 0x10001EA00, symSize: 0x2C }
  - { offsetInCU: 0x709D2, offset: 0x709D2, size: 0x8, addend: 0x0, symName: __ZN7sc_core6sc_outIN5sc_dt5sc_bvILi3EEEED1Ev, symObjAddr: 0x1B510, symBinAddr: 0x10001EA2C, symSize: 0x2C }
  - { offsetInCU: 0x709FC, offset: 0x709FC, size: 0x8, addend: 0x0, symName: __ZN7sc_core6sc_outIN5sc_dt5sc_bvILi12EEEED1Ev, symObjAddr: 0x1B53C, symBinAddr: 0x10001EA58, symSize: 0x2C }
  - { offsetInCU: 0x70A26, offset: 0x70A26, size: 0x8, addend: 0x0, symName: __ZN7sc_core6sc_outIN5sc_dt5sc_bvILi2EEEED1Ev, symObjAddr: 0x1B568, symBinAddr: 0x10001EA84, symSize: 0x2C }
  - { offsetInCU: 0x70A50, offset: 0x70A50, size: 0x8, addend: 0x0, symName: __ZN2CUD0Ev, symObjAddr: 0x1B594, symBinAddr: 0x10001EAB0, symSize: 0x30 }
  - { offsetInCU: 0x70A7C, offset: 0x70A7C, size: 0x8, addend: 0x0, symName: __ZThn104_N2CUD1Ev, symObjAddr: 0x1B5C4, symBinAddr: 0x10001EAE0, symSize: 0x1C }
  - { offsetInCU: 0x70A92, offset: 0x70A92, size: 0x8, addend: 0x0, symName: __ZThn104_N2CUD0Ev, symObjAddr: 0x1B5E0, symBinAddr: 0x10001EAFC, symSize: 0x18 }
  - { offsetInCU: 0x70AA8, offset: 0x70AA8, size: 0x8, addend: 0x0, symName: __ZN7sc_core6sc_outIN5sc_dt5sc_bvILi2EEEEC2Ev, symObjAddr: 0x1B5F8, symBinAddr: 0x10001EB14, symSize: 0x44 }
  - { offsetInCU: 0x70AD2, offset: 0x70AD2, size: 0x8, addend: 0x0, symName: __ZN7sc_core8sc_inoutIN5sc_dt5sc_bvILi2EEEEC2Ev, symObjAddr: 0x1B63C, symBinAddr: 0x10001EB58, symSize: 0x50 }
  - { offsetInCU: 0x70AFC, offset: 0x70AFC, size: 0x8, addend: 0x0, symName: __ZNK7sc_core6sc_outIN5sc_dt5sc_bvILi2EEEE4kindEv, symObjAddr: 0x1B68C, symBinAddr: 0x10001EBA8, symSize: 0x18 }
  - { offsetInCU: 0x70B22, offset: 0x70B22, size: 0x8, addend: 0x0, symName: __ZN7sc_core6sc_outIN5sc_dt5sc_bvILi2EEEED0Ev, symObjAddr: 0x1B6A4, symBinAddr: 0x10001EBC0, symSize: 0x30 }
  - { offsetInCU: 0x70B4C, offset: 0x70B4C, size: 0x8, addend: 0x0, symName: __ZN7sc_core9sc_port_bINS_18sc_signal_inout_ifIN5sc_dt5sc_bvILi2EEEEEE13get_interfaceEv, symObjAddr: 0x1B6D4, symBinAddr: 0x10001EBF0, symSize: 0x50 }
  - { offsetInCU: 0x70B72, offset: 0x70B72, size: 0x8, addend: 0x0, symName: __ZNK7sc_core9sc_port_bINS_18sc_signal_inout_ifIN5sc_dt5sc_bvILi2EEEEEE13get_interfaceEv, symObjAddr: 0x1B724, symBinAddr: 0x10001EC40, symSize: 0x50 }
  - { offsetInCU: 0x70B98, offset: 0x70B98, size: 0x8, addend: 0x0, symName: __ZNK7sc_core9sc_port_bINS_18sc_signal_inout_ifIN5sc_dt5sc_bvILi2EEEEEE18get_interface_typeEv, symObjAddr: 0x1B774, symBinAddr: 0x10001EC90, symSize: 0x30 }
  - { offsetInCU: 0x70BC0, offset: 0x70BC0, size: 0x8, addend: 0x0, symName: __ZN7sc_core9sc_port_bINS_18sc_signal_inout_ifIN5sc_dt5sc_bvILi2EEEEEE5vbindERNS_12sc_interfaceE, symObjAddr: 0x1B7A4, symBinAddr: 0x10001ECC0, symSize: 0xBC }
  - { offsetInCU: 0x70C06, offset: 0x70C06, size: 0x8, addend: 0x0, symName: __ZN7sc_core9sc_port_bINS_18sc_signal_inout_ifIN5sc_dt5sc_bvILi2EEEEEE5vbindERNS_12sc_port_baseE, symObjAddr: 0x1B860, symBinAddr: 0x10001ED7C, symSize: 0xB0 }
  - { offsetInCU: 0x70C4C, offset: 0x70C4C, size: 0x8, addend: 0x0, symName: __ZN7sc_core9sc_port_bINS_18sc_signal_inout_ifIN5sc_dt5sc_bvILi2EEEEEE13add_interfaceEPNS_12sc_interfaceE, symObjAddr: 0x1B910, symBinAddr: 0x10001EE2C, symSize: 0x160 }
  - { offsetInCU: 0x70CBF, offset: 0x70CBF, size: 0x8, addend: 0x0, symName: __ZNK7sc_core9sc_port_bINS_18sc_signal_inout_ifIN5sc_dt5sc_bvILi2EEEEEE15interface_countEv, symObjAddr: 0x1BA70, symBinAddr: 0x10001EF8C, symSize: 0x24 }
  - { offsetInCU: 0x70CE7, offset: 0x70CE7, size: 0x8, addend: 0x0, symName: __ZN7sc_core8sc_inoutIN5sc_dt5sc_bvILi2EEEE18end_of_elaborationEv, symObjAddr: 0x1BA94, symBinAddr: 0x10001EFB0, symSize: 0x194 }
  - { offsetInCU: 0x70D5A, offset: 0x70D5A, size: 0x8, addend: 0x0, symName: __ZNK7sc_core9sc_port_bINS_18sc_signal_inout_ifIN5sc_dt5sc_bvILi2EEEEEE14make_sensitiveEPNS_17sc_thread_processEPNS_15sc_event_finderE, symObjAddr: 0x1BC28, symBinAddr: 0x10001F144, symSize: 0x114 }
  - { offsetInCU: 0x70DFA, offset: 0x70DFA, size: 0x8, addend: 0x0, symName: __ZNK7sc_core9sc_port_bINS_18sc_signal_inout_ifIN5sc_dt5sc_bvILi2EEEEEE14make_sensitiveEPNS_17sc_method_processEPNS_15sc_event_finderE, symObjAddr: 0x1BD3C, symBinAddr: 0x10001F258, symSize: 0x114 }
  - { offsetInCU: 0x70E9A, offset: 0x70E9A, size: 0x8, addend: 0x0, symName: __ZN7sc_core9sc_port_bINS_18sc_signal_inout_ifIN5sc_dt5sc_bvILi2EEEEEE4bindERS6_, symObjAddr: 0x1BE50, symBinAddr: 0x10001F36C, symSize: 0x2C }
  - { offsetInCU: 0x70ECF, offset: 0x70ECF, size: 0x8, addend: 0x0, symName: __ZN7sc_core7sc_portINS_18sc_signal_inout_ifIN5sc_dt5sc_bvILi2EEEEELi1ELNS_14sc_port_policyE0EEC2Ev, symObjAddr: 0x1BE7C, symBinAddr: 0x10001F398, symSize: 0x4C }
  - { offsetInCU: 0x70EF9, offset: 0x70EF9, size: 0x8, addend: 0x0, symName: __ZNK7sc_core8sc_inoutIN5sc_dt5sc_bvILi2EEEE4kindEv, symObjAddr: 0x1BEC8, symBinAddr: 0x10001F3E4, symSize: 0x18 }
  - { offsetInCU: 0x70F1F, offset: 0x70F1F, size: 0x8, addend: 0x0, symName: __ZN7sc_core8sc_inoutIN5sc_dt5sc_bvILi2EEEED1Ev, symObjAddr: 0x1BEE0, symBinAddr: 0x10001F3FC, symSize: 0x2C }
  - { offsetInCU: 0x70F4B, offset: 0x70F4B, size: 0x8, addend: 0x0, symName: __ZN7sc_core8sc_inoutIN5sc_dt5sc_bvILi2EEEED0Ev, symObjAddr: 0x1BF0C, symBinAddr: 0x10001F428, symSize: 0x30 }
  - { offsetInCU: 0x70F77, offset: 0x70F77, size: 0x8, addend: 0x0, symName: __ZN7sc_core9sc_port_bINS_18sc_signal_inout_ifIN5sc_dt5sc_bvILi2EEEEEEC2EiNS_14sc_port_policyE, symObjAddr: 0x1BF3C, symBinAddr: 0x10001F458, symSize: 0x64 }
  - { offsetInCU: 0x70FBF, offset: 0x70FBF, size: 0x8, addend: 0x0, symName: __ZNK7sc_core7sc_portINS_18sc_signal_inout_ifIN5sc_dt5sc_bvILi2EEEEELi1ELNS_14sc_port_policyE0EE4kindEv, symObjAddr: 0x1BFA0, symBinAddr: 0x10001F4BC, symSize: 0x18 }
  - { offsetInCU: 0x70FE5, offset: 0x70FE5, size: 0x8, addend: 0x0, symName: __ZN7sc_core7sc_portINS_18sc_signal_inout_ifIN5sc_dt5sc_bvILi2EEEEELi1ELNS_14sc_port_policyE0EED1Ev, symObjAddr: 0x1BFB8, symBinAddr: 0x10001F4D4, symSize: 0x2C }
  - { offsetInCU: 0x7100F, offset: 0x7100F, size: 0x8, addend: 0x0, symName: __ZN7sc_core7sc_portINS_18sc_signal_inout_ifIN5sc_dt5sc_bvILi2EEEEELi1ELNS_14sc_port_policyE0EED0Ev, symObjAddr: 0x1BFE4, symBinAddr: 0x10001F500, symSize: 0x30 }
  - { offsetInCU: 0x71039, offset: 0x71039, size: 0x8, addend: 0x0, symName: __ZNSt3__16vectorIPN7sc_core18sc_signal_inout_ifIN5sc_dt5sc_bvILi2EEEEENS_9allocatorIS7_EEEC1B8ue170006Ev, symObjAddr: 0x1C014, symBinAddr: 0x10001F530, symSize: 0x2C }
  - { offsetInCU: 0x71063, offset: 0x71063, size: 0x8, addend: 0x0, symName: __ZN7sc_core9sc_port_bINS_18sc_signal_inout_ifIN5sc_dt5sc_bvILi2EEEEEED1Ev, symObjAddr: 0x1C040, symBinAddr: 0x10001F55C, symSize: 0x2C }
  - { offsetInCU: 0x7108D, offset: 0x7108D, size: 0x8, addend: 0x0, symName: __ZN7sc_core9sc_port_bINS_18sc_signal_inout_ifIN5sc_dt5sc_bvILi2EEEEEED0Ev, symObjAddr: 0x1C06C, symBinAddr: 0x10001F588, symSize: 0x30 }
  - { offsetInCU: 0x710B7, offset: 0x710B7, size: 0x8, addend: 0x0, symName: __ZNSt3__16vectorIPN7sc_core18sc_signal_inout_ifIN5sc_dt5sc_bvILi2EEEEENS_9allocatorIS7_EEEC2B8ue170006Ev, symObjAddr: 0x1C09C, symBinAddr: 0x10001F5B8, symSize: 0x4C }
  - { offsetInCU: 0x710E1, offset: 0x710E1, size: 0x8, addend: 0x0, symName: __ZNSt3__117__compressed_pairIPPN7sc_core18sc_signal_inout_ifIN5sc_dt5sc_bvILi2EEEEENS_9allocatorIS7_EEEC1B8ue170006IDnNS_18__default_init_tagEEEOT_OT0_, symObjAddr: 0x1C0E8, symBinAddr: 0x10001F604, symSize: 0x3C }
  - { offsetInCU: 0x71139, offset: 0x71139, size: 0x8, addend: 0x0, symName: __ZNSt3__117__compressed_pairIPPN7sc_core18sc_signal_inout_ifIN5sc_dt5sc_bvILi2EEEEENS_9allocatorIS7_EEEC2B8ue170006IDnNS_18__default_init_tagEEEOT_OT0_, symObjAddr: 0x1C124, symBinAddr: 0x10001F640, symSize: 0x40 }
  - { offsetInCU: 0x71191, offset: 0x71191, size: 0x8, addend: 0x0, symName: __ZNSt3__122__compressed_pair_elemIPPN7sc_core18sc_signal_inout_ifIN5sc_dt5sc_bvILi2EEEEELi0ELb0EEC2B8ue170006IDnvEEOT_, symObjAddr: 0x1C164, symBinAddr: 0x10001F680, symSize: 0x1C }
  - { offsetInCU: 0x711D3, offset: 0x711D3, size: 0x8, addend: 0x0, symName: __ZNSt3__122__compressed_pair_elemINS_9allocatorIPN7sc_core18sc_signal_inout_ifIN5sc_dt5sc_bvILi2EEEEEEELi1ELb1EEC2B8ue170006ENS_18__default_init_tagE, symObjAddr: 0x1C180, symBinAddr: 0x10001F69C, symSize: 0x2C }
  - { offsetInCU: 0x71208, offset: 0x71208, size: 0x8, addend: 0x0, symName: __ZNSt3__19allocatorIPN7sc_core18sc_signal_inout_ifIN5sc_dt5sc_bvILi2EEEEEEC2B8ue170006Ev, symObjAddr: 0x1C1AC, symBinAddr: 0x10001F6C8, symSize: 0x2C }
  - { offsetInCU: 0x71232, offset: 0x71232, size: 0x8, addend: 0x0, symName: __ZNSt3__116__non_trivial_ifILb1ENS_9allocatorIPN7sc_core18sc_signal_inout_ifIN5sc_dt5sc_bvILi2EEEEEEEEC2B8ue170006Ev, symObjAddr: 0x1C1D8, symBinAddr: 0x10001F6F4, symSize: 0x14 }
  - { offsetInCU: 0x7125C, offset: 0x7125C, size: 0x8, addend: 0x0, symName: __ZN7sc_core9sc_port_bINS_18sc_signal_inout_ifIN5sc_dt5sc_bvILi2EEEEEED2Ev, symObjAddr: 0x1C1EC, symBinAddr: 0x10001F708, symSize: 0x48 }
  - { offsetInCU: 0x71286, offset: 0x71286, size: 0x8, addend: 0x0, symName: __ZNSt3__16vectorIPN7sc_core18sc_signal_inout_ifIN5sc_dt5sc_bvILi2EEEEENS_9allocatorIS7_EEED1B8ue170006Ev, symObjAddr: 0x1C234, symBinAddr: 0x10001F750, symSize: 0x2C }
  - { offsetInCU: 0x712B0, offset: 0x712B0, size: 0x8, addend: 0x0, symName: __ZNSt3__16vectorIPN7sc_core18sc_signal_inout_ifIN5sc_dt5sc_bvILi2EEEEENS_9allocatorIS7_EEED2B8ue170006Ev, symObjAddr: 0x1C260, symBinAddr: 0x10001F77C, symSize: 0x44 }
  - { offsetInCU: 0x712DA, offset: 0x712DA, size: 0x8, addend: 0x0, symName: __ZNSt3__16vectorIPN7sc_core18sc_signal_inout_ifIN5sc_dt5sc_bvILi2EEEEENS_9allocatorIS7_EEE16__destroy_vectorC1B8ue170006ERSA_, symObjAddr: 0x1C2A4, symBinAddr: 0x10001F7C0, symSize: 0x34 }
  - { offsetInCU: 0x71313, offset: 0x71313, size: 0x8, addend: 0x0, symName: __ZNSt3__16vectorIPN7sc_core18sc_signal_inout_ifIN5sc_dt5sc_bvILi2EEEEENS_9allocatorIS7_EEE16__destroy_vectorclB8ue170006Ev, symObjAddr: 0x1C2D8, symBinAddr: 0x10001F7F4, symSize: 0x90 }
  - { offsetInCU: 0x71339, offset: 0x71339, size: 0x8, addend: 0x0, symName: __ZNSt3__16vectorIPN7sc_core18sc_signal_inout_ifIN5sc_dt5sc_bvILi2EEEEENS_9allocatorIS7_EEE16__destroy_vectorC2B8ue170006ERSA_, symObjAddr: 0x1C368, symBinAddr: 0x10001F884, symSize: 0x20 }
  - { offsetInCU: 0x71372, offset: 0x71372, size: 0x8, addend: 0x0, symName: __ZNSt3__16vectorIPN7sc_core18sc_signal_inout_ifIN5sc_dt5sc_bvILi2EEEEENS_9allocatorIS7_EEE7__clearB8ue170006Ev, symObjAddr: 0x1C388, symBinAddr: 0x10001F8A4, symSize: 0x28 }
  - { offsetInCU: 0x71398, offset: 0x71398, size: 0x8, addend: 0x0, symName: __ZNKSt3__16vectorIPN7sc_core18sc_signal_inout_ifIN5sc_dt5sc_bvILi2EEEEENS_9allocatorIS7_EEE17__annotate_deleteB8ue170006Ev, symObjAddr: 0x1C3B0, symBinAddr: 0x10001F8CC, symSize: 0xB8 }
  - { offsetInCU: 0x713BE, offset: 0x713BE, size: 0x8, addend: 0x0, symName: __ZNSt3__116allocator_traitsINS_9allocatorIPN7sc_core18sc_signal_inout_ifIN5sc_dt5sc_bvILi2EEEEEEEE10deallocateB8ue170006ERS9_PS8_m, symObjAddr: 0x1C468, symBinAddr: 0x10001F984, symSize: 0x34 }
  - { offsetInCU: 0x71400, offset: 0x71400, size: 0x8, addend: 0x0, symName: __ZNSt3__16vectorIPN7sc_core18sc_signal_inout_ifIN5sc_dt5sc_bvILi2EEEEENS_9allocatorIS7_EEE7__allocB8ue170006Ev, symObjAddr: 0x1C49C, symBinAddr: 0x10001F9B8, symSize: 0x28 }
  - { offsetInCU: 0x71426, offset: 0x71426, size: 0x8, addend: 0x0, symName: __ZNKSt3__16vectorIPN7sc_core18sc_signal_inout_ifIN5sc_dt5sc_bvILi2EEEEENS_9allocatorIS7_EEE8capacityB8ue170006Ev, symObjAddr: 0x1C4C4, symBinAddr: 0x10001F9E0, symSize: 0x40 }
  - { offsetInCU: 0x7144C, offset: 0x7144C, size: 0x8, addend: 0x0, symName: __ZNSt3__16vectorIPN7sc_core18sc_signal_inout_ifIN5sc_dt5sc_bvILi2EEEEENS_9allocatorIS7_EEE22__base_destruct_at_endB8ue170006EPS7_, symObjAddr: 0x1C504, symBinAddr: 0x10001FA20, symSize: 0x8C }
  - { offsetInCU: 0x71490, offset: 0x71490, size: 0x8, addend: 0x0, symName: __ZNSt3__116allocator_traitsINS_9allocatorIPN7sc_core18sc_signal_inout_ifIN5sc_dt5sc_bvILi2EEEEEEEE7destroyB8ue170006IS8_vEEvRS9_PT_, symObjAddr: 0x1C590, symBinAddr: 0x10001FAAC, symSize: 0x2C }
  - { offsetInCU: 0x714CD, offset: 0x714CD, size: 0x8, addend: 0x0, symName: __ZNSt3__19allocatorIPN7sc_core18sc_signal_inout_ifIN5sc_dt5sc_bvILi2EEEEEE7destroyB8ue170006EPS7_, symObjAddr: 0x1C5D0, symBinAddr: 0x10001FAEC, symSize: 0x14 }
  - { offsetInCU: 0x71501, offset: 0x71501, size: 0x8, addend: 0x0, symName: __ZNKSt3__16vectorIPN7sc_core18sc_signal_inout_ifIN5sc_dt5sc_bvILi2EEEEENS_9allocatorIS7_EEE31__annotate_contiguous_containerB8ue170006EPKvSC_SC_SC_, symObjAddr: 0x1C5E4, symBinAddr: 0x10001FB00, symSize: 0x20 }
  - { offsetInCU: 0x71557, offset: 0x71557, size: 0x8, addend: 0x0, symName: __ZNKSt3__16vectorIPN7sc_core18sc_signal_inout_ifIN5sc_dt5sc_bvILi2EEEEENS_9allocatorIS7_EEE4dataB8ue170006Ev, symObjAddr: 0x1C604, symBinAddr: 0x10001FB20, symSize: 0x28 }
  - { offsetInCU: 0x7157D, offset: 0x7157D, size: 0x8, addend: 0x0, symName: __ZNKSt3__16vectorIPN7sc_core18sc_signal_inout_ifIN5sc_dt5sc_bvILi2EEEEENS_9allocatorIS7_EEE4sizeB8ue170006Ev, symObjAddr: 0x1C62C, symBinAddr: 0x10001FB48, symSize: 0x28 }
  - { offsetInCU: 0x715A3, offset: 0x715A3, size: 0x8, addend: 0x0, symName: __ZNSt3__19allocatorIPN7sc_core18sc_signal_inout_ifIN5sc_dt5sc_bvILi2EEEEEE10deallocateB8ue170006EPS7_m, symObjAddr: 0x1C654, symBinAddr: 0x10001FB70, symSize: 0x40 }
  - { offsetInCU: 0x715E5, offset: 0x715E5, size: 0x8, addend: 0x0, symName: __ZNSt3__117__compressed_pairIPPN7sc_core18sc_signal_inout_ifIN5sc_dt5sc_bvILi2EEEEENS_9allocatorIS7_EEE6secondB8ue170006Ev, symObjAddr: 0x1C694, symBinAddr: 0x10001FBB0, symSize: 0x24 }
  - { offsetInCU: 0x7160B, offset: 0x7160B, size: 0x8, addend: 0x0, symName: __ZNSt3__122__compressed_pair_elemINS_9allocatorIPN7sc_core18sc_signal_inout_ifIN5sc_dt5sc_bvILi2EEEEEEELi1ELb1EE5__getB8ue170006Ev, symObjAddr: 0x1C6B8, symBinAddr: 0x10001FBD4, symSize: 0x14 }
  - { offsetInCU: 0x71631, offset: 0x71631, size: 0x8, addend: 0x0, symName: __ZNKSt3__16vectorIPN7sc_core18sc_signal_inout_ifIN5sc_dt5sc_bvILi2EEEEENS_9allocatorIS7_EEE9__end_capB8ue170006Ev, symObjAddr: 0x1C6CC, symBinAddr: 0x10001FBE8, symSize: 0x28 }
  - { offsetInCU: 0x71657, offset: 0x71657, size: 0x8, addend: 0x0, symName: __ZNKSt3__117__compressed_pairIPPN7sc_core18sc_signal_inout_ifIN5sc_dt5sc_bvILi2EEEEENS_9allocatorIS7_EEE5firstB8ue170006Ev, symObjAddr: 0x1C6F4, symBinAddr: 0x10001FC10, symSize: 0x24 }
  - { offsetInCU: 0x7167D, offset: 0x7167D, size: 0x8, addend: 0x0, symName: __ZNKSt3__122__compressed_pair_elemIPPN7sc_core18sc_signal_inout_ifIN5sc_dt5sc_bvILi2EEEEELi0ELb0EE5__getB8ue170006Ev, symObjAddr: 0x1C718, symBinAddr: 0x10001FC34, symSize: 0x14 }
  - { offsetInCU: 0x716A3, offset: 0x716A3, size: 0x8, addend: 0x0, symName: __ZN7sc_core7sc_portINS_18sc_signal_inout_ifIN5sc_dt5sc_bvILi2EEEEELi1ELNS_14sc_port_policyE0EED2Ev, symObjAddr: 0x1C72C, symBinAddr: 0x10001FC48, symSize: 0x2C }
  - { offsetInCU: 0x716CD, offset: 0x716CD, size: 0x8, addend: 0x0, symName: __ZN7sc_core8sc_inoutIN5sc_dt5sc_bvILi2EEEED2Ev, symObjAddr: 0x1C758, symBinAddr: 0x10001FC74, symSize: 0xB4 }
  - { offsetInCU: 0x716F9, offset: 0x716F9, size: 0x8, addend: 0x0, symName: __ZNK7sc_core8sc_inoutIN5sc_dt5sc_bvILi2EEEE13remove_tracesEv, symObjAddr: 0x1C80C, symBinAddr: 0x10001FD28, symSize: 0xF4 }
  - { offsetInCU: 0x7173F, offset: 0x7173F, size: 0x8, addend: 0x0, symName: __ZNK7sc_core9sc_port_bINS_18sc_signal_inout_ifIN5sc_dt5sc_bvILi2EEEEEE4sizeEv, symObjAddr: 0x1C900, symBinAddr: 0x10001FE1C, symSize: 0x28 }
  - { offsetInCU: 0x71765, offset: 0x71765, size: 0x8, addend: 0x0, symName: __ZNSt3__16vectorIPN7sc_core18sc_signal_inout_ifIN5sc_dt5sc_bvILi2EEEEENS_9allocatorIS7_EEEixB8ue170006Em, symObjAddr: 0x1C928, symBinAddr: 0x10001FE44, symSize: 0x24 }
  - { offsetInCU: 0x7179C, offset: 0x7179C, size: 0x8, addend: 0x0, symName: __ZNSt3__16vectorIPN7sc_core18sc_signal_inout_ifIN5sc_dt5sc_bvILi2EEEEENS_9allocatorIS7_EEE9push_backB8ue170006ERKS7_, symObjAddr: 0x1C94C, symBinAddr: 0x10001FE68, symSize: 0x6C }
  - { offsetInCU: 0x717D3, offset: 0x717D3, size: 0x8, addend: 0x0, symName: __ZNSt3__16vectorIPN7sc_core18sc_signal_inout_ifIN5sc_dt5sc_bvILi2EEEEENS_9allocatorIS7_EEE9__end_capB8ue170006Ev, symObjAddr: 0x1C9B8, symBinAddr: 0x10001FED4, symSize: 0x28 }
  - { offsetInCU: 0x717F9, offset: 0x717F9, size: 0x8, addend: 0x0, symName: __ZNSt3__16vectorIPN7sc_core18sc_signal_inout_ifIN5sc_dt5sc_bvILi2EEEEENS_9allocatorIS7_EEE22__construct_one_at_endB8ue170006IJRKS7_EEEvDpOT_, symObjAddr: 0x1C9E0, symBinAddr: 0x10001FEFC, symSize: 0x90 }
  - { offsetInCU: 0x71848, offset: 0x71848, size: 0x8, addend: 0x0, symName: __ZNSt3__16vectorIPN7sc_core18sc_signal_inout_ifIN5sc_dt5sc_bvILi2EEEEENS_9allocatorIS7_EEE21__push_back_slow_pathIRKS7_EEvOT_, symObjAddr: 0x1CA70, symBinAddr: 0x10001FF8C, symSize: 0xD8 }
  - { offsetInCU: 0x718A6, offset: 0x718A6, size: 0x8, addend: 0x0, symName: __ZNSt3__117__compressed_pairIPPN7sc_core18sc_signal_inout_ifIN5sc_dt5sc_bvILi2EEEEENS_9allocatorIS7_EEE5firstB8ue170006Ev, symObjAddr: 0x1CB48, symBinAddr: 0x100020064, symSize: 0x24 }
  - { offsetInCU: 0x718CC, offset: 0x718CC, size: 0x8, addend: 0x0, symName: __ZNSt3__122__compressed_pair_elemIPPN7sc_core18sc_signal_inout_ifIN5sc_dt5sc_bvILi2EEEEELi0ELb0EE5__getB8ue170006Ev, symObjAddr: 0x1CB6C, symBinAddr: 0x100020088, symSize: 0x14 }
  - { offsetInCU: 0x7190D, offset: 0x7190D, size: 0x8, addend: 0x0, symName: __ZNSt3__16vectorIPN7sc_core18sc_signal_inout_ifIN5sc_dt5sc_bvILi2EEEEENS_9allocatorIS7_EEE21_ConstructTransactionC1B8ue170006ERSA_m, symObjAddr: 0x1CB80, symBinAddr: 0x10002009C, symSize: 0x3C }
  - { offsetInCU: 0x71955, offset: 0x71955, size: 0x8, addend: 0x0, symName: __ZNSt3__116allocator_traitsINS_9allocatorIPN7sc_core18sc_signal_inout_ifIN5sc_dt5sc_bvILi2EEEEEEEE9constructB8ue170006IS8_JRKS8_EvEEvRS9_PT_DpOT0_, symObjAddr: 0x1CBBC, symBinAddr: 0x1000200D8, symSize: 0x34 }
  - { offsetInCU: 0x719AC, offset: 0x719AC, size: 0x8, addend: 0x0, symName: __ZNSt3__16vectorIPN7sc_core18sc_signal_inout_ifIN5sc_dt5sc_bvILi2EEEEENS_9allocatorIS7_EEE21_ConstructTransactionD1B8ue170006Ev, symObjAddr: 0x1CBF0, symBinAddr: 0x10002010C, symSize: 0x2C }
  - { offsetInCU: 0x719D6, offset: 0x719D6, size: 0x8, addend: 0x0, symName: __ZNSt3__16vectorIPN7sc_core18sc_signal_inout_ifIN5sc_dt5sc_bvILi2EEEEENS_9allocatorIS7_EEE21_ConstructTransactionC2B8ue170006ERSA_m, symObjAddr: 0x1CC1C, symBinAddr: 0x100020138, symSize: 0x44 }
  - { offsetInCU: 0x71A1E, offset: 0x71A1E, size: 0x8, addend: 0x0, symName: __ZNSt3__19allocatorIPN7sc_core18sc_signal_inout_ifIN5sc_dt5sc_bvILi2EEEEEE9constructB8ue170006IS7_JRKS7_EEEvPT_DpOT0_, symObjAddr: 0x1CC60, symBinAddr: 0x10002017C, symSize: 0x28 }
  - { offsetInCU: 0x71A74, offset: 0x71A74, size: 0x8, addend: 0x0, symName: __ZNSt3__16vectorIPN7sc_core18sc_signal_inout_ifIN5sc_dt5sc_bvILi2EEEEENS_9allocatorIS7_EEE21_ConstructTransactionD2B8ue170006Ev, symObjAddr: 0x1CC88, symBinAddr: 0x1000201A4, symSize: 0x20 }
  - { offsetInCU: 0x71A9E, offset: 0x71A9E, size: 0x8, addend: 0x0, symName: __ZNKSt3__16vectorIPN7sc_core18sc_signal_inout_ifIN5sc_dt5sc_bvILi2EEEEENS_9allocatorIS7_EEE11__recommendB8ue170006Em, symObjAddr: 0x1CCA8, symBinAddr: 0x1000201C4, symSize: 0xB4 }
  - { offsetInCU: 0x71AF3, offset: 0x71AF3, size: 0x8, addend: 0x0, symName: __ZNSt3__114__split_bufferIPN7sc_core18sc_signal_inout_ifIN5sc_dt5sc_bvILi2EEEEERNS_9allocatorIS7_EEEC1EmmSA_, symObjAddr: 0x1CD5C, symBinAddr: 0x100020278, symSize: 0x44 }
  - { offsetInCU: 0x71B49, offset: 0x71B49, size: 0x8, addend: 0x0, symName: __ZNSt3__114__split_bufferIPN7sc_core18sc_signal_inout_ifIN5sc_dt5sc_bvILi2EEEEERNS_9allocatorIS7_EEED1Ev, symObjAddr: 0x1CEB0, symBinAddr: 0x1000203CC, symSize: 0x2C }
  - { offsetInCU: 0x71B75, offset: 0x71B75, size: 0x8, addend: 0x0, symName: __ZNKSt3__16vectorIPN7sc_core18sc_signal_inout_ifIN5sc_dt5sc_bvILi2EEEEENS_9allocatorIS7_EEE8max_sizeEv, symObjAddr: 0x1CEDC, symBinAddr: 0x1000203F8, symSize: 0x60 }
  - { offsetInCU: 0x71B9D, offset: 0x71B9D, size: 0x8, addend: 0x0, symName: __ZNKSt3__16vectorIPN7sc_core18sc_signal_inout_ifIN5sc_dt5sc_bvILi2EEEEENS_9allocatorIS7_EEE20__throw_length_errorB8ue170006Ev, symObjAddr: 0x1CF3C, symBinAddr: 0x100020458, symSize: 0x1C }
  - { offsetInCU: 0x71BCE, offset: 0x71BCE, size: 0x8, addend: 0x0, symName: __ZNSt3__116allocator_traitsINS_9allocatorIPN7sc_core18sc_signal_inout_ifIN5sc_dt5sc_bvILi2EEEEEEEE8max_sizeB8ue170006IS9_vEEmRKS9_, symObjAddr: 0x1CF58, symBinAddr: 0x100020474, symSize: 0x24 }
  - { offsetInCU: 0x71BFC, offset: 0x71BFC, size: 0x8, addend: 0x0, symName: __ZNKSt3__16vectorIPN7sc_core18sc_signal_inout_ifIN5sc_dt5sc_bvILi2EEEEENS_9allocatorIS7_EEE7__allocB8ue170006Ev, symObjAddr: 0x1CF7C, symBinAddr: 0x100020498, symSize: 0x28 }
  - { offsetInCU: 0x71C22, offset: 0x71C22, size: 0x8, addend: 0x0, symName: __ZNKSt3__19allocatorIPN7sc_core18sc_signal_inout_ifIN5sc_dt5sc_bvILi2EEEEEE8max_sizeB8ue170006Ev, symObjAddr: 0x1CFA4, symBinAddr: 0x1000204C0, symSize: 0x14 }
  - { offsetInCU: 0x71C48, offset: 0x71C48, size: 0x8, addend: 0x0, symName: __ZNKSt3__117__compressed_pairIPPN7sc_core18sc_signal_inout_ifIN5sc_dt5sc_bvILi2EEEEENS_9allocatorIS7_EEE6secondB8ue170006Ev, symObjAddr: 0x1CFB8, symBinAddr: 0x1000204D4, symSize: 0x24 }
  - { offsetInCU: 0x71C6E, offset: 0x71C6E, size: 0x8, addend: 0x0, symName: __ZNKSt3__122__compressed_pair_elemINS_9allocatorIPN7sc_core18sc_signal_inout_ifIN5sc_dt5sc_bvILi2EEEEEEELi1ELb1EE5__getB8ue170006Ev, symObjAddr: 0x1CFDC, symBinAddr: 0x1000204F8, symSize: 0x14 }
  - { offsetInCU: 0x71C94, offset: 0x71C94, size: 0x8, addend: 0x0, symName: __ZNSt3__114__split_bufferIPN7sc_core18sc_signal_inout_ifIN5sc_dt5sc_bvILi2EEEEERNS_9allocatorIS7_EEEC2EmmSA_, symObjAddr: 0x1CFF0, symBinAddr: 0x10002050C, symSize: 0xD4 }
  - { offsetInCU: 0x71D08, offset: 0x71D08, size: 0x8, addend: 0x0, symName: __ZNSt3__117__compressed_pairIPPN7sc_core18sc_signal_inout_ifIN5sc_dt5sc_bvILi2EEEEERNS_9allocatorIS7_EEEC1B8ue170006IDnSB_EEOT_OT0_, symObjAddr: 0x1D0C4, symBinAddr: 0x1000205E0, symSize: 0x3C }
  - { offsetInCU: 0x71D60, offset: 0x71D60, size: 0x8, addend: 0x0, symName: __ZNSt3__114__split_bufferIPN7sc_core18sc_signal_inout_ifIN5sc_dt5sc_bvILi2EEEEERNS_9allocatorIS7_EEE7__allocB8ue170006Ev, symObjAddr: 0x1D140, symBinAddr: 0x10002065C, symSize: 0x28 }
  - { offsetInCU: 0x71D86, offset: 0x71D86, size: 0x8, addend: 0x0, symName: __ZNSt3__114__split_bufferIPN7sc_core18sc_signal_inout_ifIN5sc_dt5sc_bvILi2EEEEERNS_9allocatorIS7_EEE9__end_capB8ue170006Ev, symObjAddr: 0x1D168, symBinAddr: 0x100020684, symSize: 0x28 }
  - { offsetInCU: 0x71DAC, offset: 0x71DAC, size: 0x8, addend: 0x0, symName: __ZNSt3__117__compressed_pairIPPN7sc_core18sc_signal_inout_ifIN5sc_dt5sc_bvILi2EEEEERNS_9allocatorIS7_EEEC2B8ue170006IDnSB_EEOT_OT0_, symObjAddr: 0x1D190, symBinAddr: 0x1000206AC, symSize: 0x48 }
  - { offsetInCU: 0x71E04, offset: 0x71E04, size: 0x8, addend: 0x0, symName: __ZNSt3__122__compressed_pair_elemIRNS_9allocatorIPN7sc_core18sc_signal_inout_ifIN5sc_dt5sc_bvILi2EEEEEEELi1ELb0EEC2B8ue170006ISA_vEEOT_, symObjAddr: 0x1D1D8, symBinAddr: 0x1000206F4, symSize: 0x20 }
  - { offsetInCU: 0x71E46, offset: 0x71E46, size: 0x8, addend: 0x0, symName: __ZNSt3__19allocatorIPN7sc_core18sc_signal_inout_ifIN5sc_dt5sc_bvILi2EEEEEE8allocateB8ue170006Em, symObjAddr: 0x1D1F8, symBinAddr: 0x100020714, symSize: 0x58 }
  - { offsetInCU: 0x71E7A, offset: 0x71E7A, size: 0x8, addend: 0x0, symName: __ZNSt3__117__compressed_pairIPPN7sc_core18sc_signal_inout_ifIN5sc_dt5sc_bvILi2EEEEERNS_9allocatorIS7_EEE6secondB8ue170006Ev, symObjAddr: 0x1D250, symBinAddr: 0x10002076C, symSize: 0x28 }
  - { offsetInCU: 0x71EA0, offset: 0x71EA0, size: 0x8, addend: 0x0, symName: __ZNSt3__122__compressed_pair_elemIRNS_9allocatorIPN7sc_core18sc_signal_inout_ifIN5sc_dt5sc_bvILi2EEEEEEELi1ELb0EE5__getB8ue170006Ev, symObjAddr: 0x1D278, symBinAddr: 0x100020794, symSize: 0x18 }
  - { offsetInCU: 0x71EC6, offset: 0x71EC6, size: 0x8, addend: 0x0, symName: __ZNSt3__117__compressed_pairIPPN7sc_core18sc_signal_inout_ifIN5sc_dt5sc_bvILi2EEEEERNS_9allocatorIS7_EEE5firstB8ue170006Ev, symObjAddr: 0x1D290, symBinAddr: 0x1000207AC, symSize: 0x24 }
  - { offsetInCU: 0x71EEC, offset: 0x71EEC, size: 0x8, addend: 0x0, symName: __ZNSt3__116reverse_iteratorIPPN7sc_core18sc_signal_inout_ifIN5sc_dt5sc_bvILi2EEEEEEC1B8ue170006ES8_, symObjAddr: 0x1D32C, symBinAddr: 0x100020848, symSize: 0x34 }
  - { offsetInCU: 0x71F24, offset: 0x71F24, size: 0x8, addend: 0x0, symName: __ZNKSt3__116reverse_iteratorIPPN7sc_core18sc_signal_inout_ifIN5sc_dt5sc_bvILi2EEEEEE4baseB8ue170006Ev, symObjAddr: 0x1D360, symBinAddr: 0x10002087C, symSize: 0x18 }
  - { offsetInCU: 0x71F4A, offset: 0x71F4A, size: 0x8, addend: 0x0, symName: __ZNKSt3__16vectorIPN7sc_core18sc_signal_inout_ifIN5sc_dt5sc_bvILi2EEEEENS_9allocatorIS7_EEE14__annotate_newB8ue170006Em, symObjAddr: 0x1D3B4, symBinAddr: 0x1000208D0, symSize: 0xAC }
  - { offsetInCU: 0x71F9B, offset: 0x71F9B, size: 0x8, addend: 0x0, symName: __ZNKSt3__111__move_loopINS_17_ClassicAlgPolicyEEclB8ue170006INS_16reverse_iteratorIPPN7sc_core18sc_signal_inout_ifIN5sc_dt5sc_bvILi2EEEEEEESD_SD_EENS_4pairIT_T1_EESF_T0_SG_, symObjAddr: 0x1D750, symBinAddr: 0x100020C6C, symSize: 0xA0 }
  - { offsetInCU: 0x7200C, offset: 0x7200C, size: 0x8, addend: 0x0, symName: __ZNSt3__18_IterOpsINS_17_ClassicAlgPolicyEE11__iter_moveB8ue170006IRNS_16reverse_iteratorIPPN7sc_core18sc_signal_inout_ifIN5sc_dt5sc_bvILi2EEEEEEEEENS_9enable_ifIXsr12is_referenceIDTdeclsr3stdE7declvalIRT_EEEEE5valueEDTclsr3stdE4movedeclsr3stdE7declvalISH_EEEEE4typeEOSG_, symObjAddr: 0x1D984, symBinAddr: 0x100020EA0, symSize: 0x28 }
  - { offsetInCU: 0x72038, offset: 0x72038, size: 0x8, addend: 0x0, symName: __ZNKSt3__116reverse_iteratorIPPN7sc_core18sc_signal_inout_ifIN5sc_dt5sc_bvILi2EEEEEEdeB8ue170006Ev, symObjAddr: 0x1D9AC, symBinAddr: 0x100020EC8, symSize: 0x28 }
  - { offsetInCU: 0x7206C, offset: 0x7206C, size: 0x8, addend: 0x0, symName: __ZNSt3__116reverse_iteratorIPPN7sc_core18sc_signal_inout_ifIN5sc_dt5sc_bvILi2EEEEEEppB8ue170006Ev, symObjAddr: 0x1D9D4, symBinAddr: 0x100020EF0, symSize: 0x20 }
  - { offsetInCU: 0x72092, offset: 0x72092, size: 0x8, addend: 0x0, symName: __ZNSt3__18_IterOpsINS_17_ClassicAlgPolicyEE25__validate_iter_referenceB8ue170006IRNS_16reverse_iteratorIPPN7sc_core18sc_signal_inout_ifIN5sc_dt5sc_bvILi2EEEEEEEEEvv, symObjAddr: 0x1D9F4, symBinAddr: 0x100020F10, symSize: 0x4 }
  - { offsetInCU: 0x720B0, offset: 0x720B0, size: 0x8, addend: 0x0, symName: __ZNSt3__118__unwrap_iter_implINS_16reverse_iteratorIPPN7sc_core18sc_signal_inout_ifIN5sc_dt5sc_bvILi2EEEEEEELb0EE8__unwrapB8ue170006ESA_, symObjAddr: 0x1D9F8, symBinAddr: 0x100020F14, symSize: 0x24 }
  - { offsetInCU: 0x720D9, offset: 0x720D9, size: 0x8, addend: 0x0, symName: __ZNSt3__14pairINS_16reverse_iteratorIPPN7sc_core18sc_signal_inout_ifIN5sc_dt5sc_bvILi2EEEEEEESA_EC1B8ue170006ISA_SA_LPv0EEEOT_OT0_, symObjAddr: 0x1DA1C, symBinAddr: 0x100020F38, symSize: 0x3C }
  - { offsetInCU: 0x72137, offset: 0x72137, size: 0x8, addend: 0x0, symName: __ZNSt3__14pairINS_16reverse_iteratorIPPN7sc_core18sc_signal_inout_ifIN5sc_dt5sc_bvILi2EEEEEEESA_EC2B8ue170006ISA_SA_LPv0EEEOT_OT0_, symObjAddr: 0x1DA58, symBinAddr: 0x100020F74, symSize: 0x34 }
  - { offsetInCU: 0x72195, offset: 0x72195, size: 0x8, addend: 0x0, symName: __ZNSt3__118__unwrap_iter_implINS_16reverse_iteratorIPPN7sc_core18sc_signal_inout_ifIN5sc_dt5sc_bvILi2EEEEEEELb0EE8__rewrapB8ue170006ESA_SA_, symObjAddr: 0x1DA8C, symBinAddr: 0x100020FA8, symSize: 0x2C }
  - { offsetInCU: 0x721C3, offset: 0x721C3, size: 0x8, addend: 0x0, symName: __ZNSt3__116reverse_iteratorIPPN7sc_core18sc_signal_inout_ifIN5sc_dt5sc_bvILi2EEEEEEC2B8ue170006ES8_, symObjAddr: 0x1DAB8, symBinAddr: 0x100020FD4, symSize: 0x28 }
  - { offsetInCU: 0x721FB, offset: 0x721FB, size: 0x8, addend: 0x0, symName: __ZNSt3__114__split_bufferIPN7sc_core18sc_signal_inout_ifIN5sc_dt5sc_bvILi2EEEEERNS_9allocatorIS7_EEED2Ev, symObjAddr: 0x1DAE0, symBinAddr: 0x100020FFC, symSize: 0x8C }
  - { offsetInCU: 0x72227, offset: 0x72227, size: 0x8, addend: 0x0, symName: __ZNSt3__114__split_bufferIPN7sc_core18sc_signal_inout_ifIN5sc_dt5sc_bvILi2EEEEERNS_9allocatorIS7_EEE5clearB8ue170006Ev, symObjAddr: 0x1DB6C, symBinAddr: 0x100021088, symSize: 0x28 }
  - { offsetInCU: 0x7224D, offset: 0x7224D, size: 0x8, addend: 0x0, symName: __ZNKSt3__114__split_bufferIPN7sc_core18sc_signal_inout_ifIN5sc_dt5sc_bvILi2EEEEERNS_9allocatorIS7_EEE8capacityB8ue170006Ev, symObjAddr: 0x1DB94, symBinAddr: 0x1000210B0, symSize: 0x40 }
  - { offsetInCU: 0x72273, offset: 0x72273, size: 0x8, addend: 0x0, symName: __ZNSt3__114__split_bufferIPN7sc_core18sc_signal_inout_ifIN5sc_dt5sc_bvILi2EEEEERNS_9allocatorIS7_EEE17__destruct_at_endB8ue170006EPS7_, symObjAddr: 0x1DBD4, symBinAddr: 0x1000210F0, symSize: 0x2C }
  - { offsetInCU: 0x722A7, offset: 0x722A7, size: 0x8, addend: 0x0, symName: __ZNSt3__114__split_bufferIPN7sc_core18sc_signal_inout_ifIN5sc_dt5sc_bvILi2EEEEERNS_9allocatorIS7_EEE17__destruct_at_endB8ue170006EPS7_NS_17integral_constantIbLb0EEE, symObjAddr: 0x1DC00, symBinAddr: 0x10002111C, symSize: 0x80 }
  - { offsetInCU: 0x722E8, offset: 0x722E8, size: 0x8, addend: 0x0, symName: __ZNKSt3__114__split_bufferIPN7sc_core18sc_signal_inout_ifIN5sc_dt5sc_bvILi2EEEEERNS_9allocatorIS7_EEE9__end_capB8ue170006Ev, symObjAddr: 0x1DC80, symBinAddr: 0x10002119C, symSize: 0x28 }
  - { offsetInCU: 0x7230E, offset: 0x7230E, size: 0x8, addend: 0x0, symName: __ZNKSt3__117__compressed_pairIPPN7sc_core18sc_signal_inout_ifIN5sc_dt5sc_bvILi2EEEEERNS_9allocatorIS7_EEE5firstB8ue170006Ev, symObjAddr: 0x1DCA8, symBinAddr: 0x1000211C4, symSize: 0x24 }
  - { offsetInCU: 0x72334, offset: 0x72334, size: 0x8, addend: 0x0, symName: __ZN7sc_core8sc_inoutIN5sc_dt5sc_bvILi2EEEE5writeERKS3_, symObjAddr: 0x1DCCC, symBinAddr: 0x1000211E8, symSize: 0x40 }
  - { offsetInCU: 0x72369, offset: 0x72369, size: 0x8, addend: 0x0, symName: __ZN7sc_core9sc_port_bINS_18sc_signal_inout_ifIN5sc_dt5sc_bvILi2EEEEEEptEv, symObjAddr: 0x1DD0C, symBinAddr: 0x100021228, symSize: 0x5C }
  - { offsetInCU: 0x72391, offset: 0x72391, size: 0x8, addend: 0x0, symName: __ZNKSt3__16vectorIPN7sc_core18sc_signal_inout_ifIN5sc_dt5sc_bvILi2EEEEENS_9allocatorIS7_EEEixB8ue170006Em, symObjAddr: 0x1DD68, symBinAddr: 0x100021284, symSize: 0x24 }
  - { offsetInCU: 0x723C8, offset: 0x723C8, size: 0x8, addend: 0x0, symName: __ZN7sc_core6sc_outIN5sc_dt5sc_bvILi12EEEEC2Ev, symObjAddr: 0x1DD8C, symBinAddr: 0x1000212A8, symSize: 0x44 }
  - { offsetInCU: 0x723F2, offset: 0x723F2, size: 0x8, addend: 0x0, symName: __ZN7sc_core8sc_inoutIN5sc_dt5sc_bvILi12EEEEC2Ev, symObjAddr: 0x1DDD0, symBinAddr: 0x1000212EC, symSize: 0x50 }
  - { offsetInCU: 0x7241C, offset: 0x7241C, size: 0x8, addend: 0x0, symName: __ZNK7sc_core6sc_outIN5sc_dt5sc_bvILi12EEEE4kindEv, symObjAddr: 0x1DE20, symBinAddr: 0x10002133C, symSize: 0x18 }
  - { offsetInCU: 0x72442, offset: 0x72442, size: 0x8, addend: 0x0, symName: __ZN7sc_core6sc_outIN5sc_dt5sc_bvILi12EEEED0Ev, symObjAddr: 0x1DE38, symBinAddr: 0x100021354, symSize: 0x30 }
  - { offsetInCU: 0x7246C, offset: 0x7246C, size: 0x8, addend: 0x0, symName: __ZN7sc_core9sc_port_bINS_18sc_signal_inout_ifIN5sc_dt5sc_bvILi12EEEEEE13get_interfaceEv, symObjAddr: 0x1DE68, symBinAddr: 0x100021384, symSize: 0x50 }
  - { offsetInCU: 0x72492, offset: 0x72492, size: 0x8, addend: 0x0, symName: __ZNK7sc_core9sc_port_bINS_18sc_signal_inout_ifIN5sc_dt5sc_bvILi12EEEEEE13get_interfaceEv, symObjAddr: 0x1DEB8, symBinAddr: 0x1000213D4, symSize: 0x50 }
  - { offsetInCU: 0x724B8, offset: 0x724B8, size: 0x8, addend: 0x0, symName: __ZNK7sc_core9sc_port_bINS_18sc_signal_inout_ifIN5sc_dt5sc_bvILi12EEEEEE18get_interface_typeEv, symObjAddr: 0x1DF08, symBinAddr: 0x100021424, symSize: 0x30 }
  - { offsetInCU: 0x724E0, offset: 0x724E0, size: 0x8, addend: 0x0, symName: __ZN7sc_core9sc_port_bINS_18sc_signal_inout_ifIN5sc_dt5sc_bvILi12EEEEEE5vbindERNS_12sc_interfaceE, symObjAddr: 0x1DF38, symBinAddr: 0x100021454, symSize: 0xBC }
  - { offsetInCU: 0x72526, offset: 0x72526, size: 0x8, addend: 0x0, symName: __ZN7sc_core9sc_port_bINS_18sc_signal_inout_ifIN5sc_dt5sc_bvILi12EEEEEE5vbindERNS_12sc_port_baseE, symObjAddr: 0x1DFF4, symBinAddr: 0x100021510, symSize: 0xB0 }
  - { offsetInCU: 0x7256C, offset: 0x7256C, size: 0x8, addend: 0x0, symName: __ZN7sc_core9sc_port_bINS_18sc_signal_inout_ifIN5sc_dt5sc_bvILi12EEEEEE13add_interfaceEPNS_12sc_interfaceE, symObjAddr: 0x1E0A4, symBinAddr: 0x1000215C0, symSize: 0x160 }
  - { offsetInCU: 0x725DF, offset: 0x725DF, size: 0x8, addend: 0x0, symName: __ZNK7sc_core9sc_port_bINS_18sc_signal_inout_ifIN5sc_dt5sc_bvILi12EEEEEE15interface_countEv, symObjAddr: 0x1E204, symBinAddr: 0x100021720, symSize: 0x24 }
  - { offsetInCU: 0x72607, offset: 0x72607, size: 0x8, addend: 0x0, symName: __ZN7sc_core8sc_inoutIN5sc_dt5sc_bvILi12EEEE18end_of_elaborationEv, symObjAddr: 0x1E228, symBinAddr: 0x100021744, symSize: 0x194 }
  - { offsetInCU: 0x7267A, offset: 0x7267A, size: 0x8, addend: 0x0, symName: __ZNK7sc_core9sc_port_bINS_18sc_signal_inout_ifIN5sc_dt5sc_bvILi12EEEEEE14make_sensitiveEPNS_17sc_thread_processEPNS_15sc_event_finderE, symObjAddr: 0x1E3BC, symBinAddr: 0x1000218D8, symSize: 0x114 }
  - { offsetInCU: 0x7271A, offset: 0x7271A, size: 0x8, addend: 0x0, symName: __ZNK7sc_core9sc_port_bINS_18sc_signal_inout_ifIN5sc_dt5sc_bvILi12EEEEEE14make_sensitiveEPNS_17sc_method_processEPNS_15sc_event_finderE, symObjAddr: 0x1E4D0, symBinAddr: 0x1000219EC, symSize: 0x114 }
  - { offsetInCU: 0x727BA, offset: 0x727BA, size: 0x8, addend: 0x0, symName: __ZN7sc_core9sc_port_bINS_18sc_signal_inout_ifIN5sc_dt5sc_bvILi12EEEEEE4bindERS6_, symObjAddr: 0x1E5E4, symBinAddr: 0x100021B00, symSize: 0x2C }
  - { offsetInCU: 0x727EF, offset: 0x727EF, size: 0x8, addend: 0x0, symName: __ZN7sc_core7sc_portINS_18sc_signal_inout_ifIN5sc_dt5sc_bvILi12EEEEELi1ELNS_14sc_port_policyE0EEC2Ev, symObjAddr: 0x1E610, symBinAddr: 0x100021B2C, symSize: 0x4C }
  - { offsetInCU: 0x72819, offset: 0x72819, size: 0x8, addend: 0x0, symName: __ZNK7sc_core8sc_inoutIN5sc_dt5sc_bvILi12EEEE4kindEv, symObjAddr: 0x1E65C, symBinAddr: 0x100021B78, symSize: 0x18 }
  - { offsetInCU: 0x7283F, offset: 0x7283F, size: 0x8, addend: 0x0, symName: __ZN7sc_core8sc_inoutIN5sc_dt5sc_bvILi12EEEED1Ev, symObjAddr: 0x1E674, symBinAddr: 0x100021B90, symSize: 0x2C }
  - { offsetInCU: 0x7286B, offset: 0x7286B, size: 0x8, addend: 0x0, symName: __ZN7sc_core8sc_inoutIN5sc_dt5sc_bvILi12EEEED0Ev, symObjAddr: 0x1E6A0, symBinAddr: 0x100021BBC, symSize: 0x30 }
  - { offsetInCU: 0x72897, offset: 0x72897, size: 0x8, addend: 0x0, symName: __ZN7sc_core9sc_port_bINS_18sc_signal_inout_ifIN5sc_dt5sc_bvILi12EEEEEEC2EiNS_14sc_port_policyE, symObjAddr: 0x1E6D0, symBinAddr: 0x100021BEC, symSize: 0x64 }
  - { offsetInCU: 0x728DF, offset: 0x728DF, size: 0x8, addend: 0x0, symName: __ZNK7sc_core7sc_portINS_18sc_signal_inout_ifIN5sc_dt5sc_bvILi12EEEEELi1ELNS_14sc_port_policyE0EE4kindEv, symObjAddr: 0x1E734, symBinAddr: 0x100021C50, symSize: 0x18 }
  - { offsetInCU: 0x72905, offset: 0x72905, size: 0x8, addend: 0x0, symName: __ZN7sc_core7sc_portINS_18sc_signal_inout_ifIN5sc_dt5sc_bvILi12EEEEELi1ELNS_14sc_port_policyE0EED1Ev, symObjAddr: 0x1E74C, symBinAddr: 0x100021C68, symSize: 0x2C }
  - { offsetInCU: 0x7292F, offset: 0x7292F, size: 0x8, addend: 0x0, symName: __ZN7sc_core7sc_portINS_18sc_signal_inout_ifIN5sc_dt5sc_bvILi12EEEEELi1ELNS_14sc_port_policyE0EED0Ev, symObjAddr: 0x1E778, symBinAddr: 0x100021C94, symSize: 0x30 }
  - { offsetInCU: 0x72959, offset: 0x72959, size: 0x8, addend: 0x0, symName: __ZNSt3__16vectorIPN7sc_core18sc_signal_inout_ifIN5sc_dt5sc_bvILi12EEEEENS_9allocatorIS7_EEEC1B8ue170006Ev, symObjAddr: 0x1E7A8, symBinAddr: 0x100021CC4, symSize: 0x2C }
  - { offsetInCU: 0x72983, offset: 0x72983, size: 0x8, addend: 0x0, symName: __ZN7sc_core9sc_port_bINS_18sc_signal_inout_ifIN5sc_dt5sc_bvILi12EEEEEED1Ev, symObjAddr: 0x1E7D4, symBinAddr: 0x100021CF0, symSize: 0x2C }
  - { offsetInCU: 0x729AD, offset: 0x729AD, size: 0x8, addend: 0x0, symName: __ZN7sc_core9sc_port_bINS_18sc_signal_inout_ifIN5sc_dt5sc_bvILi12EEEEEED0Ev, symObjAddr: 0x1E800, symBinAddr: 0x100021D1C, symSize: 0x30 }
  - { offsetInCU: 0x729D7, offset: 0x729D7, size: 0x8, addend: 0x0, symName: __ZNSt3__16vectorIPN7sc_core18sc_signal_inout_ifIN5sc_dt5sc_bvILi12EEEEENS_9allocatorIS7_EEEC2B8ue170006Ev, symObjAddr: 0x1E830, symBinAddr: 0x100021D4C, symSize: 0x4C }
  - { offsetInCU: 0x72A01, offset: 0x72A01, size: 0x8, addend: 0x0, symName: __ZNSt3__117__compressed_pairIPPN7sc_core18sc_signal_inout_ifIN5sc_dt5sc_bvILi12EEEEENS_9allocatorIS7_EEEC1B8ue170006IDnNS_18__default_init_tagEEEOT_OT0_, symObjAddr: 0x1E87C, symBinAddr: 0x100021D98, symSize: 0x3C }
  - { offsetInCU: 0x72A59, offset: 0x72A59, size: 0x8, addend: 0x0, symName: __ZNSt3__117__compressed_pairIPPN7sc_core18sc_signal_inout_ifIN5sc_dt5sc_bvILi12EEEEENS_9allocatorIS7_EEEC2B8ue170006IDnNS_18__default_init_tagEEEOT_OT0_, symObjAddr: 0x1E8B8, symBinAddr: 0x100021DD4, symSize: 0x40 }
  - { offsetInCU: 0x72AB1, offset: 0x72AB1, size: 0x8, addend: 0x0, symName: __ZNSt3__122__compressed_pair_elemIPPN7sc_core18sc_signal_inout_ifIN5sc_dt5sc_bvILi12EEEEELi0ELb0EEC2B8ue170006IDnvEEOT_, symObjAddr: 0x1E8F8, symBinAddr: 0x100021E14, symSize: 0x1C }
  - { offsetInCU: 0x72AF3, offset: 0x72AF3, size: 0x8, addend: 0x0, symName: __ZNSt3__122__compressed_pair_elemINS_9allocatorIPN7sc_core18sc_signal_inout_ifIN5sc_dt5sc_bvILi12EEEEEEELi1ELb1EEC2B8ue170006ENS_18__default_init_tagE, symObjAddr: 0x1E914, symBinAddr: 0x100021E30, symSize: 0x2C }
  - { offsetInCU: 0x72B28, offset: 0x72B28, size: 0x8, addend: 0x0, symName: __ZNSt3__19allocatorIPN7sc_core18sc_signal_inout_ifIN5sc_dt5sc_bvILi12EEEEEEC2B8ue170006Ev, symObjAddr: 0x1E940, symBinAddr: 0x100021E5C, symSize: 0x2C }
  - { offsetInCU: 0x72B52, offset: 0x72B52, size: 0x8, addend: 0x0, symName: __ZNSt3__116__non_trivial_ifILb1ENS_9allocatorIPN7sc_core18sc_signal_inout_ifIN5sc_dt5sc_bvILi12EEEEEEEEC2B8ue170006Ev, symObjAddr: 0x1E96C, symBinAddr: 0x100021E88, symSize: 0x14 }
  - { offsetInCU: 0x72B7C, offset: 0x72B7C, size: 0x8, addend: 0x0, symName: __ZN7sc_core9sc_port_bINS_18sc_signal_inout_ifIN5sc_dt5sc_bvILi12EEEEEED2Ev, symObjAddr: 0x1E980, symBinAddr: 0x100021E9C, symSize: 0x48 }
  - { offsetInCU: 0x72BA6, offset: 0x72BA6, size: 0x8, addend: 0x0, symName: __ZNSt3__16vectorIPN7sc_core18sc_signal_inout_ifIN5sc_dt5sc_bvILi12EEEEENS_9allocatorIS7_EEED1B8ue170006Ev, symObjAddr: 0x1E9C8, symBinAddr: 0x100021EE4, symSize: 0x2C }
  - { offsetInCU: 0x72BD0, offset: 0x72BD0, size: 0x8, addend: 0x0, symName: __ZNSt3__16vectorIPN7sc_core18sc_signal_inout_ifIN5sc_dt5sc_bvILi12EEEEENS_9allocatorIS7_EEED2B8ue170006Ev, symObjAddr: 0x1E9F4, symBinAddr: 0x100021F10, symSize: 0x44 }
  - { offsetInCU: 0x72BFA, offset: 0x72BFA, size: 0x8, addend: 0x0, symName: __ZNSt3__16vectorIPN7sc_core18sc_signal_inout_ifIN5sc_dt5sc_bvILi12EEEEENS_9allocatorIS7_EEE16__destroy_vectorC1B8ue170006ERSA_, symObjAddr: 0x1EA38, symBinAddr: 0x100021F54, symSize: 0x34 }
  - { offsetInCU: 0x72C33, offset: 0x72C33, size: 0x8, addend: 0x0, symName: __ZNSt3__16vectorIPN7sc_core18sc_signal_inout_ifIN5sc_dt5sc_bvILi12EEEEENS_9allocatorIS7_EEE16__destroy_vectorclB8ue170006Ev, symObjAddr: 0x1EA6C, symBinAddr: 0x100021F88, symSize: 0x90 }
  - { offsetInCU: 0x72C59, offset: 0x72C59, size: 0x8, addend: 0x0, symName: __ZNSt3__16vectorIPN7sc_core18sc_signal_inout_ifIN5sc_dt5sc_bvILi12EEEEENS_9allocatorIS7_EEE16__destroy_vectorC2B8ue170006ERSA_, symObjAddr: 0x1EAFC, symBinAddr: 0x100022018, symSize: 0x20 }
  - { offsetInCU: 0x72C92, offset: 0x72C92, size: 0x8, addend: 0x0, symName: __ZNSt3__16vectorIPN7sc_core18sc_signal_inout_ifIN5sc_dt5sc_bvILi12EEEEENS_9allocatorIS7_EEE7__clearB8ue170006Ev, symObjAddr: 0x1EB1C, symBinAddr: 0x100022038, symSize: 0x28 }
  - { offsetInCU: 0x72CB8, offset: 0x72CB8, size: 0x8, addend: 0x0, symName: __ZNKSt3__16vectorIPN7sc_core18sc_signal_inout_ifIN5sc_dt5sc_bvILi12EEEEENS_9allocatorIS7_EEE17__annotate_deleteB8ue170006Ev, symObjAddr: 0x1EB44, symBinAddr: 0x100022060, symSize: 0xB8 }
  - { offsetInCU: 0x72CDE, offset: 0x72CDE, size: 0x8, addend: 0x0, symName: __ZNSt3__116allocator_traitsINS_9allocatorIPN7sc_core18sc_signal_inout_ifIN5sc_dt5sc_bvILi12EEEEEEEE10deallocateB8ue170006ERS9_PS8_m, symObjAddr: 0x1EBFC, symBinAddr: 0x100022118, symSize: 0x34 }
  - { offsetInCU: 0x72D20, offset: 0x72D20, size: 0x8, addend: 0x0, symName: __ZNSt3__16vectorIPN7sc_core18sc_signal_inout_ifIN5sc_dt5sc_bvILi12EEEEENS_9allocatorIS7_EEE7__allocB8ue170006Ev, symObjAddr: 0x1EC30, symBinAddr: 0x10002214C, symSize: 0x28 }
  - { offsetInCU: 0x72D46, offset: 0x72D46, size: 0x8, addend: 0x0, symName: __ZNKSt3__16vectorIPN7sc_core18sc_signal_inout_ifIN5sc_dt5sc_bvILi12EEEEENS_9allocatorIS7_EEE8capacityB8ue170006Ev, symObjAddr: 0x1EC58, symBinAddr: 0x100022174, symSize: 0x40 }
  - { offsetInCU: 0x72D6C, offset: 0x72D6C, size: 0x8, addend: 0x0, symName: __ZNSt3__16vectorIPN7sc_core18sc_signal_inout_ifIN5sc_dt5sc_bvILi12EEEEENS_9allocatorIS7_EEE22__base_destruct_at_endB8ue170006EPS7_, symObjAddr: 0x1EC98, symBinAddr: 0x1000221B4, symSize: 0x8C }
  - { offsetInCU: 0x72DB0, offset: 0x72DB0, size: 0x8, addend: 0x0, symName: __ZNSt3__116allocator_traitsINS_9allocatorIPN7sc_core18sc_signal_inout_ifIN5sc_dt5sc_bvILi12EEEEEEEE7destroyB8ue170006IS8_vEEvRS9_PT_, symObjAddr: 0x1ED24, symBinAddr: 0x100022240, symSize: 0x2C }
  - { offsetInCU: 0x72DED, offset: 0x72DED, size: 0x8, addend: 0x0, symName: __ZNSt3__19allocatorIPN7sc_core18sc_signal_inout_ifIN5sc_dt5sc_bvILi12EEEEEE7destroyB8ue170006EPS7_, symObjAddr: 0x1ED64, symBinAddr: 0x100022280, symSize: 0x14 }
  - { offsetInCU: 0x72E21, offset: 0x72E21, size: 0x8, addend: 0x0, symName: __ZNKSt3__16vectorIPN7sc_core18sc_signal_inout_ifIN5sc_dt5sc_bvILi12EEEEENS_9allocatorIS7_EEE31__annotate_contiguous_containerB8ue170006EPKvSC_SC_SC_, symObjAddr: 0x1ED78, symBinAddr: 0x100022294, symSize: 0x20 }
  - { offsetInCU: 0x72E77, offset: 0x72E77, size: 0x8, addend: 0x0, symName: __ZNKSt3__16vectorIPN7sc_core18sc_signal_inout_ifIN5sc_dt5sc_bvILi12EEEEENS_9allocatorIS7_EEE4dataB8ue170006Ev, symObjAddr: 0x1ED98, symBinAddr: 0x1000222B4, symSize: 0x28 }
  - { offsetInCU: 0x72E9D, offset: 0x72E9D, size: 0x8, addend: 0x0, symName: __ZNKSt3__16vectorIPN7sc_core18sc_signal_inout_ifIN5sc_dt5sc_bvILi12EEEEENS_9allocatorIS7_EEE4sizeB8ue170006Ev, symObjAddr: 0x1EDC0, symBinAddr: 0x1000222DC, symSize: 0x28 }
  - { offsetInCU: 0x72EC3, offset: 0x72EC3, size: 0x8, addend: 0x0, symName: __ZNSt3__19allocatorIPN7sc_core18sc_signal_inout_ifIN5sc_dt5sc_bvILi12EEEEEE10deallocateB8ue170006EPS7_m, symObjAddr: 0x1EDE8, symBinAddr: 0x100022304, symSize: 0x40 }
  - { offsetInCU: 0x72F05, offset: 0x72F05, size: 0x8, addend: 0x0, symName: __ZNSt3__117__compressed_pairIPPN7sc_core18sc_signal_inout_ifIN5sc_dt5sc_bvILi12EEEEENS_9allocatorIS7_EEE6secondB8ue170006Ev, symObjAddr: 0x1EE28, symBinAddr: 0x100022344, symSize: 0x24 }
  - { offsetInCU: 0x72F2B, offset: 0x72F2B, size: 0x8, addend: 0x0, symName: __ZNSt3__122__compressed_pair_elemINS_9allocatorIPN7sc_core18sc_signal_inout_ifIN5sc_dt5sc_bvILi12EEEEEEELi1ELb1EE5__getB8ue170006Ev, symObjAddr: 0x1EE4C, symBinAddr: 0x100022368, symSize: 0x14 }
  - { offsetInCU: 0x72F51, offset: 0x72F51, size: 0x8, addend: 0x0, symName: __ZNKSt3__16vectorIPN7sc_core18sc_signal_inout_ifIN5sc_dt5sc_bvILi12EEEEENS_9allocatorIS7_EEE9__end_capB8ue170006Ev, symObjAddr: 0x1EE60, symBinAddr: 0x10002237C, symSize: 0x28 }
  - { offsetInCU: 0x72F77, offset: 0x72F77, size: 0x8, addend: 0x0, symName: __ZNKSt3__117__compressed_pairIPPN7sc_core18sc_signal_inout_ifIN5sc_dt5sc_bvILi12EEEEENS_9allocatorIS7_EEE5firstB8ue170006Ev, symObjAddr: 0x1EE88, symBinAddr: 0x1000223A4, symSize: 0x24 }
  - { offsetInCU: 0x72F9D, offset: 0x72F9D, size: 0x8, addend: 0x0, symName: __ZNKSt3__122__compressed_pair_elemIPPN7sc_core18sc_signal_inout_ifIN5sc_dt5sc_bvILi12EEEEELi0ELb0EE5__getB8ue170006Ev, symObjAddr: 0x1EEAC, symBinAddr: 0x1000223C8, symSize: 0x14 }
  - { offsetInCU: 0x72FC3, offset: 0x72FC3, size: 0x8, addend: 0x0, symName: __ZN7sc_core7sc_portINS_18sc_signal_inout_ifIN5sc_dt5sc_bvILi12EEEEELi1ELNS_14sc_port_policyE0EED2Ev, symObjAddr: 0x1EEC0, symBinAddr: 0x1000223DC, symSize: 0x2C }
  - { offsetInCU: 0x72FED, offset: 0x72FED, size: 0x8, addend: 0x0, symName: __ZN7sc_core8sc_inoutIN5sc_dt5sc_bvILi12EEEED2Ev, symObjAddr: 0x1EEEC, symBinAddr: 0x100022408, symSize: 0xB4 }
  - { offsetInCU: 0x73019, offset: 0x73019, size: 0x8, addend: 0x0, symName: __ZNK7sc_core8sc_inoutIN5sc_dt5sc_bvILi12EEEE13remove_tracesEv, symObjAddr: 0x1EFA0, symBinAddr: 0x1000224BC, symSize: 0xF4 }
  - { offsetInCU: 0x7305F, offset: 0x7305F, size: 0x8, addend: 0x0, symName: __ZNK7sc_core9sc_port_bINS_18sc_signal_inout_ifIN5sc_dt5sc_bvILi12EEEEEE4sizeEv, symObjAddr: 0x1F094, symBinAddr: 0x1000225B0, symSize: 0x28 }
  - { offsetInCU: 0x73085, offset: 0x73085, size: 0x8, addend: 0x0, symName: __ZNSt3__16vectorIPN7sc_core18sc_signal_inout_ifIN5sc_dt5sc_bvILi12EEEEENS_9allocatorIS7_EEEixB8ue170006Em, symObjAddr: 0x1F0BC, symBinAddr: 0x1000225D8, symSize: 0x24 }
  - { offsetInCU: 0x730BC, offset: 0x730BC, size: 0x8, addend: 0x0, symName: __ZNSt3__16vectorIPN7sc_core18sc_signal_inout_ifIN5sc_dt5sc_bvILi12EEEEENS_9allocatorIS7_EEE9push_backB8ue170006ERKS7_, symObjAddr: 0x1F0E0, symBinAddr: 0x1000225FC, symSize: 0x6C }
  - { offsetInCU: 0x730F3, offset: 0x730F3, size: 0x8, addend: 0x0, symName: __ZNSt3__16vectorIPN7sc_core18sc_signal_inout_ifIN5sc_dt5sc_bvILi12EEEEENS_9allocatorIS7_EEE9__end_capB8ue170006Ev, symObjAddr: 0x1F14C, symBinAddr: 0x100022668, symSize: 0x28 }
  - { offsetInCU: 0x73119, offset: 0x73119, size: 0x8, addend: 0x0, symName: __ZNSt3__16vectorIPN7sc_core18sc_signal_inout_ifIN5sc_dt5sc_bvILi12EEEEENS_9allocatorIS7_EEE22__construct_one_at_endB8ue170006IJRKS7_EEEvDpOT_, symObjAddr: 0x1F174, symBinAddr: 0x100022690, symSize: 0x90 }
  - { offsetInCU: 0x73168, offset: 0x73168, size: 0x8, addend: 0x0, symName: __ZNSt3__16vectorIPN7sc_core18sc_signal_inout_ifIN5sc_dt5sc_bvILi12EEEEENS_9allocatorIS7_EEE21__push_back_slow_pathIRKS7_EEvOT_, symObjAddr: 0x1F204, symBinAddr: 0x100022720, symSize: 0xD8 }
  - { offsetInCU: 0x731C6, offset: 0x731C6, size: 0x8, addend: 0x0, symName: __ZNSt3__117__compressed_pairIPPN7sc_core18sc_signal_inout_ifIN5sc_dt5sc_bvILi12EEEEENS_9allocatorIS7_EEE5firstB8ue170006Ev, symObjAddr: 0x1F2DC, symBinAddr: 0x1000227F8, symSize: 0x24 }
  - { offsetInCU: 0x731EC, offset: 0x731EC, size: 0x8, addend: 0x0, symName: __ZNSt3__122__compressed_pair_elemIPPN7sc_core18sc_signal_inout_ifIN5sc_dt5sc_bvILi12EEEEELi0ELb0EE5__getB8ue170006Ev, symObjAddr: 0x1F300, symBinAddr: 0x10002281C, symSize: 0x14 }
  - { offsetInCU: 0x7322D, offset: 0x7322D, size: 0x8, addend: 0x0, symName: __ZNSt3__16vectorIPN7sc_core18sc_signal_inout_ifIN5sc_dt5sc_bvILi12EEEEENS_9allocatorIS7_EEE21_ConstructTransactionC1B8ue170006ERSA_m, symObjAddr: 0x1F314, symBinAddr: 0x100022830, symSize: 0x3C }
  - { offsetInCU: 0x73275, offset: 0x73275, size: 0x8, addend: 0x0, symName: __ZNSt3__116allocator_traitsINS_9allocatorIPN7sc_core18sc_signal_inout_ifIN5sc_dt5sc_bvILi12EEEEEEEE9constructB8ue170006IS8_JRKS8_EvEEvRS9_PT_DpOT0_, symObjAddr: 0x1F350, symBinAddr: 0x10002286C, symSize: 0x34 }
  - { offsetInCU: 0x732CC, offset: 0x732CC, size: 0x8, addend: 0x0, symName: __ZNSt3__16vectorIPN7sc_core18sc_signal_inout_ifIN5sc_dt5sc_bvILi12EEEEENS_9allocatorIS7_EEE21_ConstructTransactionD1B8ue170006Ev, symObjAddr: 0x1F384, symBinAddr: 0x1000228A0, symSize: 0x2C }
  - { offsetInCU: 0x732F6, offset: 0x732F6, size: 0x8, addend: 0x0, symName: __ZNSt3__16vectorIPN7sc_core18sc_signal_inout_ifIN5sc_dt5sc_bvILi12EEEEENS_9allocatorIS7_EEE21_ConstructTransactionC2B8ue170006ERSA_m, symObjAddr: 0x1F3B0, symBinAddr: 0x1000228CC, symSize: 0x44 }
  - { offsetInCU: 0x7333E, offset: 0x7333E, size: 0x8, addend: 0x0, symName: __ZNSt3__19allocatorIPN7sc_core18sc_signal_inout_ifIN5sc_dt5sc_bvILi12EEEEEE9constructB8ue170006IS7_JRKS7_EEEvPT_DpOT0_, symObjAddr: 0x1F3F4, symBinAddr: 0x100022910, symSize: 0x28 }
  - { offsetInCU: 0x73394, offset: 0x73394, size: 0x8, addend: 0x0, symName: __ZNSt3__16vectorIPN7sc_core18sc_signal_inout_ifIN5sc_dt5sc_bvILi12EEEEENS_9allocatorIS7_EEE21_ConstructTransactionD2B8ue170006Ev, symObjAddr: 0x1F41C, symBinAddr: 0x100022938, symSize: 0x20 }
  - { offsetInCU: 0x733BE, offset: 0x733BE, size: 0x8, addend: 0x0, symName: __ZNKSt3__16vectorIPN7sc_core18sc_signal_inout_ifIN5sc_dt5sc_bvILi12EEEEENS_9allocatorIS7_EEE11__recommendB8ue170006Em, symObjAddr: 0x1F43C, symBinAddr: 0x100022958, symSize: 0xB4 }
  - { offsetInCU: 0x73413, offset: 0x73413, size: 0x8, addend: 0x0, symName: __ZNSt3__114__split_bufferIPN7sc_core18sc_signal_inout_ifIN5sc_dt5sc_bvILi12EEEEERNS_9allocatorIS7_EEEC1EmmSA_, symObjAddr: 0x1F4F0, symBinAddr: 0x100022A0C, symSize: 0x44 }
  - { offsetInCU: 0x73469, offset: 0x73469, size: 0x8, addend: 0x0, symName: __ZNSt3__114__split_bufferIPN7sc_core18sc_signal_inout_ifIN5sc_dt5sc_bvILi12EEEEERNS_9allocatorIS7_EEED1Ev, symObjAddr: 0x1F644, symBinAddr: 0x100022B60, symSize: 0x2C }
  - { offsetInCU: 0x73495, offset: 0x73495, size: 0x8, addend: 0x0, symName: __ZNKSt3__16vectorIPN7sc_core18sc_signal_inout_ifIN5sc_dt5sc_bvILi12EEEEENS_9allocatorIS7_EEE8max_sizeEv, symObjAddr: 0x1F670, symBinAddr: 0x100022B8C, symSize: 0x60 }
  - { offsetInCU: 0x734BD, offset: 0x734BD, size: 0x8, addend: 0x0, symName: __ZNKSt3__16vectorIPN7sc_core18sc_signal_inout_ifIN5sc_dt5sc_bvILi12EEEEENS_9allocatorIS7_EEE20__throw_length_errorB8ue170006Ev, symObjAddr: 0x1F6D0, symBinAddr: 0x100022BEC, symSize: 0x1C }
  - { offsetInCU: 0x734EE, offset: 0x734EE, size: 0x8, addend: 0x0, symName: __ZNSt3__116allocator_traitsINS_9allocatorIPN7sc_core18sc_signal_inout_ifIN5sc_dt5sc_bvILi12EEEEEEEE8max_sizeB8ue170006IS9_vEEmRKS9_, symObjAddr: 0x1F6EC, symBinAddr: 0x100022C08, symSize: 0x24 }
  - { offsetInCU: 0x7351C, offset: 0x7351C, size: 0x8, addend: 0x0, symName: __ZNKSt3__16vectorIPN7sc_core18sc_signal_inout_ifIN5sc_dt5sc_bvILi12EEEEENS_9allocatorIS7_EEE7__allocB8ue170006Ev, symObjAddr: 0x1F710, symBinAddr: 0x100022C2C, symSize: 0x28 }
  - { offsetInCU: 0x73542, offset: 0x73542, size: 0x8, addend: 0x0, symName: __ZNKSt3__19allocatorIPN7sc_core18sc_signal_inout_ifIN5sc_dt5sc_bvILi12EEEEEE8max_sizeB8ue170006Ev, symObjAddr: 0x1F738, symBinAddr: 0x100022C54, symSize: 0x14 }
  - { offsetInCU: 0x73568, offset: 0x73568, size: 0x8, addend: 0x0, symName: __ZNKSt3__117__compressed_pairIPPN7sc_core18sc_signal_inout_ifIN5sc_dt5sc_bvILi12EEEEENS_9allocatorIS7_EEE6secondB8ue170006Ev, symObjAddr: 0x1F74C, symBinAddr: 0x100022C68, symSize: 0x24 }
  - { offsetInCU: 0x7358E, offset: 0x7358E, size: 0x8, addend: 0x0, symName: __ZNKSt3__122__compressed_pair_elemINS_9allocatorIPN7sc_core18sc_signal_inout_ifIN5sc_dt5sc_bvILi12EEEEEEELi1ELb1EE5__getB8ue170006Ev, symObjAddr: 0x1F770, symBinAddr: 0x100022C8C, symSize: 0x14 }
  - { offsetInCU: 0x735B4, offset: 0x735B4, size: 0x8, addend: 0x0, symName: __ZNSt3__114__split_bufferIPN7sc_core18sc_signal_inout_ifIN5sc_dt5sc_bvILi12EEEEERNS_9allocatorIS7_EEEC2EmmSA_, symObjAddr: 0x1F784, symBinAddr: 0x100022CA0, symSize: 0xD4 }
  - { offsetInCU: 0x73628, offset: 0x73628, size: 0x8, addend: 0x0, symName: __ZNSt3__117__compressed_pairIPPN7sc_core18sc_signal_inout_ifIN5sc_dt5sc_bvILi12EEEEERNS_9allocatorIS7_EEEC1B8ue170006IDnSB_EEOT_OT0_, symObjAddr: 0x1F858, symBinAddr: 0x100022D74, symSize: 0x3C }
  - { offsetInCU: 0x73680, offset: 0x73680, size: 0x8, addend: 0x0, symName: __ZNSt3__114__split_bufferIPN7sc_core18sc_signal_inout_ifIN5sc_dt5sc_bvILi12EEEEERNS_9allocatorIS7_EEE7__allocB8ue170006Ev, symObjAddr: 0x1F8D4, symBinAddr: 0x100022DF0, symSize: 0x28 }
  - { offsetInCU: 0x736A6, offset: 0x736A6, size: 0x8, addend: 0x0, symName: __ZNSt3__114__split_bufferIPN7sc_core18sc_signal_inout_ifIN5sc_dt5sc_bvILi12EEEEERNS_9allocatorIS7_EEE9__end_capB8ue170006Ev, symObjAddr: 0x1F8FC, symBinAddr: 0x100022E18, symSize: 0x28 }
  - { offsetInCU: 0x736CC, offset: 0x736CC, size: 0x8, addend: 0x0, symName: __ZNSt3__117__compressed_pairIPPN7sc_core18sc_signal_inout_ifIN5sc_dt5sc_bvILi12EEEEERNS_9allocatorIS7_EEEC2B8ue170006IDnSB_EEOT_OT0_, symObjAddr: 0x1F924, symBinAddr: 0x100022E40, symSize: 0x48 }
  - { offsetInCU: 0x73724, offset: 0x73724, size: 0x8, addend: 0x0, symName: __ZNSt3__122__compressed_pair_elemIRNS_9allocatorIPN7sc_core18sc_signal_inout_ifIN5sc_dt5sc_bvILi12EEEEEEELi1ELb0EEC2B8ue170006ISA_vEEOT_, symObjAddr: 0x1F96C, symBinAddr: 0x100022E88, symSize: 0x20 }
  - { offsetInCU: 0x73766, offset: 0x73766, size: 0x8, addend: 0x0, symName: __ZNSt3__19allocatorIPN7sc_core18sc_signal_inout_ifIN5sc_dt5sc_bvILi12EEEEEE8allocateB8ue170006Em, symObjAddr: 0x1F98C, symBinAddr: 0x100022EA8, symSize: 0x58 }
  - { offsetInCU: 0x7379A, offset: 0x7379A, size: 0x8, addend: 0x0, symName: __ZNSt3__117__compressed_pairIPPN7sc_core18sc_signal_inout_ifIN5sc_dt5sc_bvILi12EEEEERNS_9allocatorIS7_EEE6secondB8ue170006Ev, symObjAddr: 0x1F9E4, symBinAddr: 0x100022F00, symSize: 0x28 }
  - { offsetInCU: 0x737C0, offset: 0x737C0, size: 0x8, addend: 0x0, symName: __ZNSt3__122__compressed_pair_elemIRNS_9allocatorIPN7sc_core18sc_signal_inout_ifIN5sc_dt5sc_bvILi12EEEEEEELi1ELb0EE5__getB8ue170006Ev, symObjAddr: 0x1FA0C, symBinAddr: 0x100022F28, symSize: 0x18 }
  - { offsetInCU: 0x737E6, offset: 0x737E6, size: 0x8, addend: 0x0, symName: __ZNSt3__117__compressed_pairIPPN7sc_core18sc_signal_inout_ifIN5sc_dt5sc_bvILi12EEEEERNS_9allocatorIS7_EEE5firstB8ue170006Ev, symObjAddr: 0x1FA24, symBinAddr: 0x100022F40, symSize: 0x24 }
  - { offsetInCU: 0x7380C, offset: 0x7380C, size: 0x8, addend: 0x0, symName: __ZNSt3__116reverse_iteratorIPPN7sc_core18sc_signal_inout_ifIN5sc_dt5sc_bvILi12EEEEEEC1B8ue170006ES8_, symObjAddr: 0x1FAC0, symBinAddr: 0x100022FDC, symSize: 0x34 }
  - { offsetInCU: 0x73844, offset: 0x73844, size: 0x8, addend: 0x0, symName: __ZNKSt3__116reverse_iteratorIPPN7sc_core18sc_signal_inout_ifIN5sc_dt5sc_bvILi12EEEEEE4baseB8ue170006Ev, symObjAddr: 0x1FAF4, symBinAddr: 0x100023010, symSize: 0x18 }
  - { offsetInCU: 0x7386A, offset: 0x7386A, size: 0x8, addend: 0x0, symName: __ZNKSt3__16vectorIPN7sc_core18sc_signal_inout_ifIN5sc_dt5sc_bvILi12EEEEENS_9allocatorIS7_EEE14__annotate_newB8ue170006Em, symObjAddr: 0x1FB48, symBinAddr: 0x100023064, symSize: 0xAC }
  - { offsetInCU: 0x738BB, offset: 0x738BB, size: 0x8, addend: 0x0, symName: __ZNKSt3__111__move_loopINS_17_ClassicAlgPolicyEEclB8ue170006INS_16reverse_iteratorIPPN7sc_core18sc_signal_inout_ifIN5sc_dt5sc_bvILi12EEEEEEESD_SD_EENS_4pairIT_T1_EESF_T0_SG_, symObjAddr: 0x1FEE4, symBinAddr: 0x100023400, symSize: 0xA0 }
  - { offsetInCU: 0x7392C, offset: 0x7392C, size: 0x8, addend: 0x0, symName: __ZNSt3__18_IterOpsINS_17_ClassicAlgPolicyEE11__iter_moveB8ue170006IRNS_16reverse_iteratorIPPN7sc_core18sc_signal_inout_ifIN5sc_dt5sc_bvILi12EEEEEEEEENS_9enable_ifIXsr12is_referenceIDTdeclsr3stdE7declvalIRT_EEEEE5valueEDTclsr3stdE4movedeclsr3stdE7declvalISH_EEEEE4typeEOSG_, symObjAddr: 0x20118, symBinAddr: 0x100023634, symSize: 0x28 }
  - { offsetInCU: 0x73958, offset: 0x73958, size: 0x8, addend: 0x0, symName: __ZNKSt3__116reverse_iteratorIPPN7sc_core18sc_signal_inout_ifIN5sc_dt5sc_bvILi12EEEEEEdeB8ue170006Ev, symObjAddr: 0x20140, symBinAddr: 0x10002365C, symSize: 0x28 }
  - { offsetInCU: 0x7398C, offset: 0x7398C, size: 0x8, addend: 0x0, symName: __ZNSt3__116reverse_iteratorIPPN7sc_core18sc_signal_inout_ifIN5sc_dt5sc_bvILi12EEEEEEppB8ue170006Ev, symObjAddr: 0x20168, symBinAddr: 0x100023684, symSize: 0x20 }
  - { offsetInCU: 0x739B2, offset: 0x739B2, size: 0x8, addend: 0x0, symName: __ZNSt3__18_IterOpsINS_17_ClassicAlgPolicyEE25__validate_iter_referenceB8ue170006IRNS_16reverse_iteratorIPPN7sc_core18sc_signal_inout_ifIN5sc_dt5sc_bvILi12EEEEEEEEEvv, symObjAddr: 0x20188, symBinAddr: 0x1000236A4, symSize: 0x4 }
  - { offsetInCU: 0x739D0, offset: 0x739D0, size: 0x8, addend: 0x0, symName: __ZNSt3__118__unwrap_iter_implINS_16reverse_iteratorIPPN7sc_core18sc_signal_inout_ifIN5sc_dt5sc_bvILi12EEEEEEELb0EE8__unwrapB8ue170006ESA_, symObjAddr: 0x2018C, symBinAddr: 0x1000236A8, symSize: 0x24 }
  - { offsetInCU: 0x739F9, offset: 0x739F9, size: 0x8, addend: 0x0, symName: __ZNSt3__14pairINS_16reverse_iteratorIPPN7sc_core18sc_signal_inout_ifIN5sc_dt5sc_bvILi12EEEEEEESA_EC1B8ue170006ISA_SA_LPv0EEEOT_OT0_, symObjAddr: 0x201B0, symBinAddr: 0x1000236CC, symSize: 0x3C }
  - { offsetInCU: 0x73A57, offset: 0x73A57, size: 0x8, addend: 0x0, symName: __ZNSt3__14pairINS_16reverse_iteratorIPPN7sc_core18sc_signal_inout_ifIN5sc_dt5sc_bvILi12EEEEEEESA_EC2B8ue170006ISA_SA_LPv0EEEOT_OT0_, symObjAddr: 0x201EC, symBinAddr: 0x100023708, symSize: 0x34 }
  - { offsetInCU: 0x73AB5, offset: 0x73AB5, size: 0x8, addend: 0x0, symName: __ZNSt3__118__unwrap_iter_implINS_16reverse_iteratorIPPN7sc_core18sc_signal_inout_ifIN5sc_dt5sc_bvILi12EEEEEEELb0EE8__rewrapB8ue170006ESA_SA_, symObjAddr: 0x20220, symBinAddr: 0x10002373C, symSize: 0x2C }
  - { offsetInCU: 0x73AE3, offset: 0x73AE3, size: 0x8, addend: 0x0, symName: __ZNSt3__116reverse_iteratorIPPN7sc_core18sc_signal_inout_ifIN5sc_dt5sc_bvILi12EEEEEEC2B8ue170006ES8_, symObjAddr: 0x2024C, symBinAddr: 0x100023768, symSize: 0x28 }
  - { offsetInCU: 0x73B1B, offset: 0x73B1B, size: 0x8, addend: 0x0, symName: __ZNSt3__114__split_bufferIPN7sc_core18sc_signal_inout_ifIN5sc_dt5sc_bvILi12EEEEERNS_9allocatorIS7_EEED2Ev, symObjAddr: 0x20274, symBinAddr: 0x100023790, symSize: 0x8C }
  - { offsetInCU: 0x73B47, offset: 0x73B47, size: 0x8, addend: 0x0, symName: __ZNSt3__114__split_bufferIPN7sc_core18sc_signal_inout_ifIN5sc_dt5sc_bvILi12EEEEERNS_9allocatorIS7_EEE5clearB8ue170006Ev, symObjAddr: 0x20300, symBinAddr: 0x10002381C, symSize: 0x28 }
  - { offsetInCU: 0x73B6D, offset: 0x73B6D, size: 0x8, addend: 0x0, symName: __ZNKSt3__114__split_bufferIPN7sc_core18sc_signal_inout_ifIN5sc_dt5sc_bvILi12EEEEERNS_9allocatorIS7_EEE8capacityB8ue170006Ev, symObjAddr: 0x20328, symBinAddr: 0x100023844, symSize: 0x40 }
  - { offsetInCU: 0x73B93, offset: 0x73B93, size: 0x8, addend: 0x0, symName: __ZNSt3__114__split_bufferIPN7sc_core18sc_signal_inout_ifIN5sc_dt5sc_bvILi12EEEEERNS_9allocatorIS7_EEE17__destruct_at_endB8ue170006EPS7_, symObjAddr: 0x20368, symBinAddr: 0x100023884, symSize: 0x2C }
  - { offsetInCU: 0x73BC7, offset: 0x73BC7, size: 0x8, addend: 0x0, symName: __ZNSt3__114__split_bufferIPN7sc_core18sc_signal_inout_ifIN5sc_dt5sc_bvILi12EEEEERNS_9allocatorIS7_EEE17__destruct_at_endB8ue170006EPS7_NS_17integral_constantIbLb0EEE, symObjAddr: 0x20394, symBinAddr: 0x1000238B0, symSize: 0x80 }
  - { offsetInCU: 0x73C08, offset: 0x73C08, size: 0x8, addend: 0x0, symName: __ZNKSt3__114__split_bufferIPN7sc_core18sc_signal_inout_ifIN5sc_dt5sc_bvILi12EEEEERNS_9allocatorIS7_EEE9__end_capB8ue170006Ev, symObjAddr: 0x20414, symBinAddr: 0x100023930, symSize: 0x28 }
  - { offsetInCU: 0x73C2E, offset: 0x73C2E, size: 0x8, addend: 0x0, symName: __ZNKSt3__117__compressed_pairIPPN7sc_core18sc_signal_inout_ifIN5sc_dt5sc_bvILi12EEEEERNS_9allocatorIS7_EEE5firstB8ue170006Ev, symObjAddr: 0x2043C, symBinAddr: 0x100023958, symSize: 0x24 }
  - { offsetInCU: 0x73C54, offset: 0x73C54, size: 0x8, addend: 0x0, symName: __ZN7sc_core8sc_inoutIN5sc_dt5sc_bvILi12EEEE5writeERKS3_, symObjAddr: 0x20460, symBinAddr: 0x10002397C, symSize: 0x40 }
  - { offsetInCU: 0x73C89, offset: 0x73C89, size: 0x8, addend: 0x0, symName: __ZN7sc_core9sc_port_bINS_18sc_signal_inout_ifIN5sc_dt5sc_bvILi12EEEEEEptEv, symObjAddr: 0x204A0, symBinAddr: 0x1000239BC, symSize: 0x5C }
  - { offsetInCU: 0x73CB1, offset: 0x73CB1, size: 0x8, addend: 0x0, symName: __ZNKSt3__16vectorIPN7sc_core18sc_signal_inout_ifIN5sc_dt5sc_bvILi12EEEEENS_9allocatorIS7_EEEixB8ue170006Em, symObjAddr: 0x204FC, symBinAddr: 0x100023A18, symSize: 0x24 }
  - { offsetInCU: 0x73CE8, offset: 0x73CE8, size: 0x8, addend: 0x0, symName: __ZN7sc_core6sc_outIN5sc_dt5sc_bvILi3EEEEC2Ev, symObjAddr: 0x20520, symBinAddr: 0x100023A3C, symSize: 0x44 }
  - { offsetInCU: 0x73D12, offset: 0x73D12, size: 0x8, addend: 0x0, symName: __ZN7sc_core8sc_inoutIN5sc_dt5sc_bvILi3EEEEC2Ev, symObjAddr: 0x20564, symBinAddr: 0x100023A80, symSize: 0x50 }
  - { offsetInCU: 0x73D3C, offset: 0x73D3C, size: 0x8, addend: 0x0, symName: __ZNK7sc_core6sc_outIN5sc_dt5sc_bvILi3EEEE4kindEv, symObjAddr: 0x205B4, symBinAddr: 0x100023AD0, symSize: 0x18 }
  - { offsetInCU: 0x73D62, offset: 0x73D62, size: 0x8, addend: 0x0, symName: __ZN7sc_core6sc_outIN5sc_dt5sc_bvILi3EEEED0Ev, symObjAddr: 0x205CC, symBinAddr: 0x100023AE8, symSize: 0x30 }
  - { offsetInCU: 0x73D8C, offset: 0x73D8C, size: 0x8, addend: 0x0, symName: __ZN7sc_core9sc_port_bINS_18sc_signal_inout_ifIN5sc_dt5sc_bvILi3EEEEEE13get_interfaceEv, symObjAddr: 0x205FC, symBinAddr: 0x100023B18, symSize: 0x50 }
  - { offsetInCU: 0x73DB2, offset: 0x73DB2, size: 0x8, addend: 0x0, symName: __ZNK7sc_core9sc_port_bINS_18sc_signal_inout_ifIN5sc_dt5sc_bvILi3EEEEEE13get_interfaceEv, symObjAddr: 0x2064C, symBinAddr: 0x100023B68, symSize: 0x50 }
  - { offsetInCU: 0x73DD8, offset: 0x73DD8, size: 0x8, addend: 0x0, symName: __ZNK7sc_core9sc_port_bINS_18sc_signal_inout_ifIN5sc_dt5sc_bvILi3EEEEEE18get_interface_typeEv, symObjAddr: 0x2069C, symBinAddr: 0x100023BB8, symSize: 0x30 }
  - { offsetInCU: 0x73E00, offset: 0x73E00, size: 0x8, addend: 0x0, symName: __ZN7sc_core9sc_port_bINS_18sc_signal_inout_ifIN5sc_dt5sc_bvILi3EEEEEE5vbindERNS_12sc_interfaceE, symObjAddr: 0x206CC, symBinAddr: 0x100023BE8, symSize: 0xBC }
  - { offsetInCU: 0x73E46, offset: 0x73E46, size: 0x8, addend: 0x0, symName: __ZN7sc_core9sc_port_bINS_18sc_signal_inout_ifIN5sc_dt5sc_bvILi3EEEEEE5vbindERNS_12sc_port_baseE, symObjAddr: 0x20788, symBinAddr: 0x100023CA4, symSize: 0xB0 }
  - { offsetInCU: 0x73E8C, offset: 0x73E8C, size: 0x8, addend: 0x0, symName: __ZN7sc_core9sc_port_bINS_18sc_signal_inout_ifIN5sc_dt5sc_bvILi3EEEEEE13add_interfaceEPNS_12sc_interfaceE, symObjAddr: 0x20838, symBinAddr: 0x100023D54, symSize: 0x160 }
  - { offsetInCU: 0x73EFF, offset: 0x73EFF, size: 0x8, addend: 0x0, symName: __ZNK7sc_core9sc_port_bINS_18sc_signal_inout_ifIN5sc_dt5sc_bvILi3EEEEEE15interface_countEv, symObjAddr: 0x20998, symBinAddr: 0x100023EB4, symSize: 0x24 }
  - { offsetInCU: 0x73F27, offset: 0x73F27, size: 0x8, addend: 0x0, symName: __ZN7sc_core8sc_inoutIN5sc_dt5sc_bvILi3EEEE18end_of_elaborationEv, symObjAddr: 0x209BC, symBinAddr: 0x100023ED8, symSize: 0x194 }
  - { offsetInCU: 0x73F9A, offset: 0x73F9A, size: 0x8, addend: 0x0, symName: __ZNK7sc_core9sc_port_bINS_18sc_signal_inout_ifIN5sc_dt5sc_bvILi3EEEEEE14make_sensitiveEPNS_17sc_thread_processEPNS_15sc_event_finderE, symObjAddr: 0x20B50, symBinAddr: 0x10002406C, symSize: 0x114 }
  - { offsetInCU: 0x7403A, offset: 0x7403A, size: 0x8, addend: 0x0, symName: __ZNK7sc_core9sc_port_bINS_18sc_signal_inout_ifIN5sc_dt5sc_bvILi3EEEEEE14make_sensitiveEPNS_17sc_method_processEPNS_15sc_event_finderE, symObjAddr: 0x20C64, symBinAddr: 0x100024180, symSize: 0x114 }
  - { offsetInCU: 0x740DA, offset: 0x740DA, size: 0x8, addend: 0x0, symName: __ZN7sc_core9sc_port_bINS_18sc_signal_inout_ifIN5sc_dt5sc_bvILi3EEEEEE4bindERS6_, symObjAddr: 0x20D78, symBinAddr: 0x100024294, symSize: 0x2C }
  - { offsetInCU: 0x7410F, offset: 0x7410F, size: 0x8, addend: 0x0, symName: __ZN7sc_core7sc_portINS_18sc_signal_inout_ifIN5sc_dt5sc_bvILi3EEEEELi1ELNS_14sc_port_policyE0EEC2Ev, symObjAddr: 0x20DA4, symBinAddr: 0x1000242C0, symSize: 0x4C }
  - { offsetInCU: 0x74139, offset: 0x74139, size: 0x8, addend: 0x0, symName: __ZNK7sc_core8sc_inoutIN5sc_dt5sc_bvILi3EEEE4kindEv, symObjAddr: 0x20DF0, symBinAddr: 0x10002430C, symSize: 0x18 }
  - { offsetInCU: 0x7415F, offset: 0x7415F, size: 0x8, addend: 0x0, symName: __ZN7sc_core8sc_inoutIN5sc_dt5sc_bvILi3EEEED1Ev, symObjAddr: 0x20E08, symBinAddr: 0x100024324, symSize: 0x2C }
  - { offsetInCU: 0x7418B, offset: 0x7418B, size: 0x8, addend: 0x0, symName: __ZN7sc_core8sc_inoutIN5sc_dt5sc_bvILi3EEEED0Ev, symObjAddr: 0x20E34, symBinAddr: 0x100024350, symSize: 0x30 }
  - { offsetInCU: 0x741B7, offset: 0x741B7, size: 0x8, addend: 0x0, symName: __ZN7sc_core9sc_port_bINS_18sc_signal_inout_ifIN5sc_dt5sc_bvILi3EEEEEEC2EiNS_14sc_port_policyE, symObjAddr: 0x20E64, symBinAddr: 0x100024380, symSize: 0x64 }
  - { offsetInCU: 0x741FF, offset: 0x741FF, size: 0x8, addend: 0x0, symName: __ZNK7sc_core7sc_portINS_18sc_signal_inout_ifIN5sc_dt5sc_bvILi3EEEEELi1ELNS_14sc_port_policyE0EE4kindEv, symObjAddr: 0x20EC8, symBinAddr: 0x1000243E4, symSize: 0x18 }
  - { offsetInCU: 0x74225, offset: 0x74225, size: 0x8, addend: 0x0, symName: __ZN7sc_core7sc_portINS_18sc_signal_inout_ifIN5sc_dt5sc_bvILi3EEEEELi1ELNS_14sc_port_policyE0EED1Ev, symObjAddr: 0x20EE0, symBinAddr: 0x1000243FC, symSize: 0x2C }
  - { offsetInCU: 0x7424F, offset: 0x7424F, size: 0x8, addend: 0x0, symName: __ZN7sc_core7sc_portINS_18sc_signal_inout_ifIN5sc_dt5sc_bvILi3EEEEELi1ELNS_14sc_port_policyE0EED0Ev, symObjAddr: 0x20F0C, symBinAddr: 0x100024428, symSize: 0x30 }
  - { offsetInCU: 0x74279, offset: 0x74279, size: 0x8, addend: 0x0, symName: __ZNSt3__16vectorIPN7sc_core18sc_signal_inout_ifIN5sc_dt5sc_bvILi3EEEEENS_9allocatorIS7_EEEC1B8ue170006Ev, symObjAddr: 0x20F3C, symBinAddr: 0x100024458, symSize: 0x2C }
  - { offsetInCU: 0x742A3, offset: 0x742A3, size: 0x8, addend: 0x0, symName: __ZN7sc_core9sc_port_bINS_18sc_signal_inout_ifIN5sc_dt5sc_bvILi3EEEEEED1Ev, symObjAddr: 0x20F68, symBinAddr: 0x100024484, symSize: 0x2C }
  - { offsetInCU: 0x742CD, offset: 0x742CD, size: 0x8, addend: 0x0, symName: __ZN7sc_core9sc_port_bINS_18sc_signal_inout_ifIN5sc_dt5sc_bvILi3EEEEEED0Ev, symObjAddr: 0x20F94, symBinAddr: 0x1000244B0, symSize: 0x30 }
  - { offsetInCU: 0x742F7, offset: 0x742F7, size: 0x8, addend: 0x0, symName: __ZNSt3__16vectorIPN7sc_core18sc_signal_inout_ifIN5sc_dt5sc_bvILi3EEEEENS_9allocatorIS7_EEEC2B8ue170006Ev, symObjAddr: 0x20FC4, symBinAddr: 0x1000244E0, symSize: 0x4C }
  - { offsetInCU: 0x74321, offset: 0x74321, size: 0x8, addend: 0x0, symName: __ZNSt3__117__compressed_pairIPPN7sc_core18sc_signal_inout_ifIN5sc_dt5sc_bvILi3EEEEENS_9allocatorIS7_EEEC1B8ue170006IDnNS_18__default_init_tagEEEOT_OT0_, symObjAddr: 0x21010, symBinAddr: 0x10002452C, symSize: 0x3C }
  - { offsetInCU: 0x74379, offset: 0x74379, size: 0x8, addend: 0x0, symName: __ZNSt3__117__compressed_pairIPPN7sc_core18sc_signal_inout_ifIN5sc_dt5sc_bvILi3EEEEENS_9allocatorIS7_EEEC2B8ue170006IDnNS_18__default_init_tagEEEOT_OT0_, symObjAddr: 0x2104C, symBinAddr: 0x100024568, symSize: 0x40 }
  - { offsetInCU: 0x743D1, offset: 0x743D1, size: 0x8, addend: 0x0, symName: __ZNSt3__122__compressed_pair_elemIPPN7sc_core18sc_signal_inout_ifIN5sc_dt5sc_bvILi3EEEEELi0ELb0EEC2B8ue170006IDnvEEOT_, symObjAddr: 0x2108C, symBinAddr: 0x1000245A8, symSize: 0x1C }
  - { offsetInCU: 0x74413, offset: 0x74413, size: 0x8, addend: 0x0, symName: __ZNSt3__122__compressed_pair_elemINS_9allocatorIPN7sc_core18sc_signal_inout_ifIN5sc_dt5sc_bvILi3EEEEEEELi1ELb1EEC2B8ue170006ENS_18__default_init_tagE, symObjAddr: 0x210A8, symBinAddr: 0x1000245C4, symSize: 0x2C }
  - { offsetInCU: 0x74448, offset: 0x74448, size: 0x8, addend: 0x0, symName: __ZNSt3__19allocatorIPN7sc_core18sc_signal_inout_ifIN5sc_dt5sc_bvILi3EEEEEEC2B8ue170006Ev, symObjAddr: 0x210D4, symBinAddr: 0x1000245F0, symSize: 0x2C }
  - { offsetInCU: 0x74472, offset: 0x74472, size: 0x8, addend: 0x0, symName: __ZNSt3__116__non_trivial_ifILb1ENS_9allocatorIPN7sc_core18sc_signal_inout_ifIN5sc_dt5sc_bvILi3EEEEEEEEC2B8ue170006Ev, symObjAddr: 0x21100, symBinAddr: 0x10002461C, symSize: 0x14 }
  - { offsetInCU: 0x7449C, offset: 0x7449C, size: 0x8, addend: 0x0, symName: __ZN7sc_core9sc_port_bINS_18sc_signal_inout_ifIN5sc_dt5sc_bvILi3EEEEEED2Ev, symObjAddr: 0x21114, symBinAddr: 0x100024630, symSize: 0x48 }
  - { offsetInCU: 0x744C6, offset: 0x744C6, size: 0x8, addend: 0x0, symName: __ZNSt3__16vectorIPN7sc_core18sc_signal_inout_ifIN5sc_dt5sc_bvILi3EEEEENS_9allocatorIS7_EEED1B8ue170006Ev, symObjAddr: 0x2115C, symBinAddr: 0x100024678, symSize: 0x2C }
  - { offsetInCU: 0x744F0, offset: 0x744F0, size: 0x8, addend: 0x0, symName: __ZNSt3__16vectorIPN7sc_core18sc_signal_inout_ifIN5sc_dt5sc_bvILi3EEEEENS_9allocatorIS7_EEED2B8ue170006Ev, symObjAddr: 0x21188, symBinAddr: 0x1000246A4, symSize: 0x44 }
  - { offsetInCU: 0x7451A, offset: 0x7451A, size: 0x8, addend: 0x0, symName: __ZNSt3__16vectorIPN7sc_core18sc_signal_inout_ifIN5sc_dt5sc_bvILi3EEEEENS_9allocatorIS7_EEE16__destroy_vectorC1B8ue170006ERSA_, symObjAddr: 0x211CC, symBinAddr: 0x1000246E8, symSize: 0x34 }
  - { offsetInCU: 0x74553, offset: 0x74553, size: 0x8, addend: 0x0, symName: __ZNSt3__16vectorIPN7sc_core18sc_signal_inout_ifIN5sc_dt5sc_bvILi3EEEEENS_9allocatorIS7_EEE16__destroy_vectorclB8ue170006Ev, symObjAddr: 0x21200, symBinAddr: 0x10002471C, symSize: 0x90 }
  - { offsetInCU: 0x74579, offset: 0x74579, size: 0x8, addend: 0x0, symName: __ZNSt3__16vectorIPN7sc_core18sc_signal_inout_ifIN5sc_dt5sc_bvILi3EEEEENS_9allocatorIS7_EEE16__destroy_vectorC2B8ue170006ERSA_, symObjAddr: 0x21290, symBinAddr: 0x1000247AC, symSize: 0x20 }
  - { offsetInCU: 0x745B2, offset: 0x745B2, size: 0x8, addend: 0x0, symName: __ZNSt3__16vectorIPN7sc_core18sc_signal_inout_ifIN5sc_dt5sc_bvILi3EEEEENS_9allocatorIS7_EEE7__clearB8ue170006Ev, symObjAddr: 0x212B0, symBinAddr: 0x1000247CC, symSize: 0x28 }
  - { offsetInCU: 0x745D8, offset: 0x745D8, size: 0x8, addend: 0x0, symName: __ZNKSt3__16vectorIPN7sc_core18sc_signal_inout_ifIN5sc_dt5sc_bvILi3EEEEENS_9allocatorIS7_EEE17__annotate_deleteB8ue170006Ev, symObjAddr: 0x212D8, symBinAddr: 0x1000247F4, symSize: 0xB8 }
  - { offsetInCU: 0x745FE, offset: 0x745FE, size: 0x8, addend: 0x0, symName: __ZNSt3__116allocator_traitsINS_9allocatorIPN7sc_core18sc_signal_inout_ifIN5sc_dt5sc_bvILi3EEEEEEEE10deallocateB8ue170006ERS9_PS8_m, symObjAddr: 0x21390, symBinAddr: 0x1000248AC, symSize: 0x34 }
  - { offsetInCU: 0x74640, offset: 0x74640, size: 0x8, addend: 0x0, symName: __ZNSt3__16vectorIPN7sc_core18sc_signal_inout_ifIN5sc_dt5sc_bvILi3EEEEENS_9allocatorIS7_EEE7__allocB8ue170006Ev, symObjAddr: 0x213C4, symBinAddr: 0x1000248E0, symSize: 0x28 }
  - { offsetInCU: 0x74666, offset: 0x74666, size: 0x8, addend: 0x0, symName: __ZNKSt3__16vectorIPN7sc_core18sc_signal_inout_ifIN5sc_dt5sc_bvILi3EEEEENS_9allocatorIS7_EEE8capacityB8ue170006Ev, symObjAddr: 0x213EC, symBinAddr: 0x100024908, symSize: 0x40 }
  - { offsetInCU: 0x7468C, offset: 0x7468C, size: 0x8, addend: 0x0, symName: __ZNSt3__16vectorIPN7sc_core18sc_signal_inout_ifIN5sc_dt5sc_bvILi3EEEEENS_9allocatorIS7_EEE22__base_destruct_at_endB8ue170006EPS7_, symObjAddr: 0x2142C, symBinAddr: 0x100024948, symSize: 0x8C }
  - { offsetInCU: 0x746D0, offset: 0x746D0, size: 0x8, addend: 0x0, symName: __ZNSt3__116allocator_traitsINS_9allocatorIPN7sc_core18sc_signal_inout_ifIN5sc_dt5sc_bvILi3EEEEEEEE7destroyB8ue170006IS8_vEEvRS9_PT_, symObjAddr: 0x214B8, symBinAddr: 0x1000249D4, symSize: 0x2C }
  - { offsetInCU: 0x7470D, offset: 0x7470D, size: 0x8, addend: 0x0, symName: __ZNSt3__19allocatorIPN7sc_core18sc_signal_inout_ifIN5sc_dt5sc_bvILi3EEEEEE7destroyB8ue170006EPS7_, symObjAddr: 0x214F8, symBinAddr: 0x100024A14, symSize: 0x14 }
  - { offsetInCU: 0x74741, offset: 0x74741, size: 0x8, addend: 0x0, symName: __ZNKSt3__16vectorIPN7sc_core18sc_signal_inout_ifIN5sc_dt5sc_bvILi3EEEEENS_9allocatorIS7_EEE31__annotate_contiguous_containerB8ue170006EPKvSC_SC_SC_, symObjAddr: 0x2150C, symBinAddr: 0x100024A28, symSize: 0x20 }
  - { offsetInCU: 0x74797, offset: 0x74797, size: 0x8, addend: 0x0, symName: __ZNKSt3__16vectorIPN7sc_core18sc_signal_inout_ifIN5sc_dt5sc_bvILi3EEEEENS_9allocatorIS7_EEE4dataB8ue170006Ev, symObjAddr: 0x2152C, symBinAddr: 0x100024A48, symSize: 0x28 }
  - { offsetInCU: 0x747BD, offset: 0x747BD, size: 0x8, addend: 0x0, symName: __ZNKSt3__16vectorIPN7sc_core18sc_signal_inout_ifIN5sc_dt5sc_bvILi3EEEEENS_9allocatorIS7_EEE4sizeB8ue170006Ev, symObjAddr: 0x21554, symBinAddr: 0x100024A70, symSize: 0x28 }
  - { offsetInCU: 0x747E3, offset: 0x747E3, size: 0x8, addend: 0x0, symName: __ZNSt3__19allocatorIPN7sc_core18sc_signal_inout_ifIN5sc_dt5sc_bvILi3EEEEEE10deallocateB8ue170006EPS7_m, symObjAddr: 0x2157C, symBinAddr: 0x100024A98, symSize: 0x40 }
  - { offsetInCU: 0x74825, offset: 0x74825, size: 0x8, addend: 0x0, symName: __ZNSt3__117__compressed_pairIPPN7sc_core18sc_signal_inout_ifIN5sc_dt5sc_bvILi3EEEEENS_9allocatorIS7_EEE6secondB8ue170006Ev, symObjAddr: 0x215BC, symBinAddr: 0x100024AD8, symSize: 0x24 }
  - { offsetInCU: 0x7484B, offset: 0x7484B, size: 0x8, addend: 0x0, symName: __ZNSt3__122__compressed_pair_elemINS_9allocatorIPN7sc_core18sc_signal_inout_ifIN5sc_dt5sc_bvILi3EEEEEEELi1ELb1EE5__getB8ue170006Ev, symObjAddr: 0x215E0, symBinAddr: 0x100024AFC, symSize: 0x14 }
  - { offsetInCU: 0x74871, offset: 0x74871, size: 0x8, addend: 0x0, symName: __ZNKSt3__16vectorIPN7sc_core18sc_signal_inout_ifIN5sc_dt5sc_bvILi3EEEEENS_9allocatorIS7_EEE9__end_capB8ue170006Ev, symObjAddr: 0x215F4, symBinAddr: 0x100024B10, symSize: 0x28 }
  - { offsetInCU: 0x74897, offset: 0x74897, size: 0x8, addend: 0x0, symName: __ZNKSt3__117__compressed_pairIPPN7sc_core18sc_signal_inout_ifIN5sc_dt5sc_bvILi3EEEEENS_9allocatorIS7_EEE5firstB8ue170006Ev, symObjAddr: 0x2161C, symBinAddr: 0x100024B38, symSize: 0x24 }
  - { offsetInCU: 0x748BD, offset: 0x748BD, size: 0x8, addend: 0x0, symName: __ZNKSt3__122__compressed_pair_elemIPPN7sc_core18sc_signal_inout_ifIN5sc_dt5sc_bvILi3EEEEELi0ELb0EE5__getB8ue170006Ev, symObjAddr: 0x21640, symBinAddr: 0x100024B5C, symSize: 0x14 }
  - { offsetInCU: 0x748E3, offset: 0x748E3, size: 0x8, addend: 0x0, symName: __ZN7sc_core7sc_portINS_18sc_signal_inout_ifIN5sc_dt5sc_bvILi3EEEEELi1ELNS_14sc_port_policyE0EED2Ev, symObjAddr: 0x21654, symBinAddr: 0x100024B70, symSize: 0x2C }
  - { offsetInCU: 0x7490D, offset: 0x7490D, size: 0x8, addend: 0x0, symName: __ZN7sc_core8sc_inoutIN5sc_dt5sc_bvILi3EEEED2Ev, symObjAddr: 0x21680, symBinAddr: 0x100024B9C, symSize: 0xB4 }
  - { offsetInCU: 0x74939, offset: 0x74939, size: 0x8, addend: 0x0, symName: __ZNK7sc_core8sc_inoutIN5sc_dt5sc_bvILi3EEEE13remove_tracesEv, symObjAddr: 0x21734, symBinAddr: 0x100024C50, symSize: 0xF4 }
  - { offsetInCU: 0x7497F, offset: 0x7497F, size: 0x8, addend: 0x0, symName: __ZNK7sc_core9sc_port_bINS_18sc_signal_inout_ifIN5sc_dt5sc_bvILi3EEEEEE4sizeEv, symObjAddr: 0x21828, symBinAddr: 0x100024D44, symSize: 0x28 }
  - { offsetInCU: 0x749A5, offset: 0x749A5, size: 0x8, addend: 0x0, symName: __ZNSt3__16vectorIPN7sc_core18sc_signal_inout_ifIN5sc_dt5sc_bvILi3EEEEENS_9allocatorIS7_EEEixB8ue170006Em, symObjAddr: 0x21850, symBinAddr: 0x100024D6C, symSize: 0x24 }
  - { offsetInCU: 0x749DC, offset: 0x749DC, size: 0x8, addend: 0x0, symName: __ZNSt3__16vectorIPN7sc_core18sc_signal_inout_ifIN5sc_dt5sc_bvILi3EEEEENS_9allocatorIS7_EEE9push_backB8ue170006ERKS7_, symObjAddr: 0x21874, symBinAddr: 0x100024D90, symSize: 0x6C }
  - { offsetInCU: 0x74A13, offset: 0x74A13, size: 0x8, addend: 0x0, symName: __ZNSt3__16vectorIPN7sc_core18sc_signal_inout_ifIN5sc_dt5sc_bvILi3EEEEENS_9allocatorIS7_EEE9__end_capB8ue170006Ev, symObjAddr: 0x218E0, symBinAddr: 0x100024DFC, symSize: 0x28 }
  - { offsetInCU: 0x74A39, offset: 0x74A39, size: 0x8, addend: 0x0, symName: __ZNSt3__16vectorIPN7sc_core18sc_signal_inout_ifIN5sc_dt5sc_bvILi3EEEEENS_9allocatorIS7_EEE22__construct_one_at_endB8ue170006IJRKS7_EEEvDpOT_, symObjAddr: 0x21908, symBinAddr: 0x100024E24, symSize: 0x90 }
  - { offsetInCU: 0x74A88, offset: 0x74A88, size: 0x8, addend: 0x0, symName: __ZNSt3__16vectorIPN7sc_core18sc_signal_inout_ifIN5sc_dt5sc_bvILi3EEEEENS_9allocatorIS7_EEE21__push_back_slow_pathIRKS7_EEvOT_, symObjAddr: 0x21998, symBinAddr: 0x100024EB4, symSize: 0xD8 }
  - { offsetInCU: 0x74AE6, offset: 0x74AE6, size: 0x8, addend: 0x0, symName: __ZNSt3__117__compressed_pairIPPN7sc_core18sc_signal_inout_ifIN5sc_dt5sc_bvILi3EEEEENS_9allocatorIS7_EEE5firstB8ue170006Ev, symObjAddr: 0x21A70, symBinAddr: 0x100024F8C, symSize: 0x24 }
  - { offsetInCU: 0x74B0C, offset: 0x74B0C, size: 0x8, addend: 0x0, symName: __ZNSt3__122__compressed_pair_elemIPPN7sc_core18sc_signal_inout_ifIN5sc_dt5sc_bvILi3EEEEELi0ELb0EE5__getB8ue170006Ev, symObjAddr: 0x21A94, symBinAddr: 0x100024FB0, symSize: 0x14 }
  - { offsetInCU: 0x74B4D, offset: 0x74B4D, size: 0x8, addend: 0x0, symName: __ZNSt3__16vectorIPN7sc_core18sc_signal_inout_ifIN5sc_dt5sc_bvILi3EEEEENS_9allocatorIS7_EEE21_ConstructTransactionC1B8ue170006ERSA_m, symObjAddr: 0x21AA8, symBinAddr: 0x100024FC4, symSize: 0x3C }
  - { offsetInCU: 0x74B95, offset: 0x74B95, size: 0x8, addend: 0x0, symName: __ZNSt3__116allocator_traitsINS_9allocatorIPN7sc_core18sc_signal_inout_ifIN5sc_dt5sc_bvILi3EEEEEEEE9constructB8ue170006IS8_JRKS8_EvEEvRS9_PT_DpOT0_, symObjAddr: 0x21AE4, symBinAddr: 0x100025000, symSize: 0x34 }
  - { offsetInCU: 0x74BEC, offset: 0x74BEC, size: 0x8, addend: 0x0, symName: __ZNSt3__16vectorIPN7sc_core18sc_signal_inout_ifIN5sc_dt5sc_bvILi3EEEEENS_9allocatorIS7_EEE21_ConstructTransactionD1B8ue170006Ev, symObjAddr: 0x21B18, symBinAddr: 0x100025034, symSize: 0x2C }
  - { offsetInCU: 0x74C16, offset: 0x74C16, size: 0x8, addend: 0x0, symName: __ZNSt3__16vectorIPN7sc_core18sc_signal_inout_ifIN5sc_dt5sc_bvILi3EEEEENS_9allocatorIS7_EEE21_ConstructTransactionC2B8ue170006ERSA_m, symObjAddr: 0x21B44, symBinAddr: 0x100025060, symSize: 0x44 }
  - { offsetInCU: 0x74C5E, offset: 0x74C5E, size: 0x8, addend: 0x0, symName: __ZNSt3__19allocatorIPN7sc_core18sc_signal_inout_ifIN5sc_dt5sc_bvILi3EEEEEE9constructB8ue170006IS7_JRKS7_EEEvPT_DpOT0_, symObjAddr: 0x21B88, symBinAddr: 0x1000250A4, symSize: 0x28 }
  - { offsetInCU: 0x74CB4, offset: 0x74CB4, size: 0x8, addend: 0x0, symName: __ZNSt3__16vectorIPN7sc_core18sc_signal_inout_ifIN5sc_dt5sc_bvILi3EEEEENS_9allocatorIS7_EEE21_ConstructTransactionD2B8ue170006Ev, symObjAddr: 0x21BB0, symBinAddr: 0x1000250CC, symSize: 0x20 }
  - { offsetInCU: 0x74CDE, offset: 0x74CDE, size: 0x8, addend: 0x0, symName: __ZNKSt3__16vectorIPN7sc_core18sc_signal_inout_ifIN5sc_dt5sc_bvILi3EEEEENS_9allocatorIS7_EEE11__recommendB8ue170006Em, symObjAddr: 0x21BD0, symBinAddr: 0x1000250EC, symSize: 0xB4 }
  - { offsetInCU: 0x74D33, offset: 0x74D33, size: 0x8, addend: 0x0, symName: __ZNSt3__114__split_bufferIPN7sc_core18sc_signal_inout_ifIN5sc_dt5sc_bvILi3EEEEERNS_9allocatorIS7_EEEC1EmmSA_, symObjAddr: 0x21C84, symBinAddr: 0x1000251A0, symSize: 0x44 }
  - { offsetInCU: 0x74D89, offset: 0x74D89, size: 0x8, addend: 0x0, symName: __ZNSt3__114__split_bufferIPN7sc_core18sc_signal_inout_ifIN5sc_dt5sc_bvILi3EEEEERNS_9allocatorIS7_EEED1Ev, symObjAddr: 0x21DD8, symBinAddr: 0x1000252F4, symSize: 0x2C }
  - { offsetInCU: 0x74DB5, offset: 0x74DB5, size: 0x8, addend: 0x0, symName: __ZNKSt3__16vectorIPN7sc_core18sc_signal_inout_ifIN5sc_dt5sc_bvILi3EEEEENS_9allocatorIS7_EEE8max_sizeEv, symObjAddr: 0x21E04, symBinAddr: 0x100025320, symSize: 0x60 }
  - { offsetInCU: 0x74DDD, offset: 0x74DDD, size: 0x8, addend: 0x0, symName: __ZNKSt3__16vectorIPN7sc_core18sc_signal_inout_ifIN5sc_dt5sc_bvILi3EEEEENS_9allocatorIS7_EEE20__throw_length_errorB8ue170006Ev, symObjAddr: 0x21E64, symBinAddr: 0x100025380, symSize: 0x1C }
  - { offsetInCU: 0x74E0E, offset: 0x74E0E, size: 0x8, addend: 0x0, symName: __ZNSt3__116allocator_traitsINS_9allocatorIPN7sc_core18sc_signal_inout_ifIN5sc_dt5sc_bvILi3EEEEEEEE8max_sizeB8ue170006IS9_vEEmRKS9_, symObjAddr: 0x21E80, symBinAddr: 0x10002539C, symSize: 0x24 }
  - { offsetInCU: 0x74E3C, offset: 0x74E3C, size: 0x8, addend: 0x0, symName: __ZNKSt3__16vectorIPN7sc_core18sc_signal_inout_ifIN5sc_dt5sc_bvILi3EEEEENS_9allocatorIS7_EEE7__allocB8ue170006Ev, symObjAddr: 0x21EA4, symBinAddr: 0x1000253C0, symSize: 0x28 }
  - { offsetInCU: 0x74E62, offset: 0x74E62, size: 0x8, addend: 0x0, symName: __ZNKSt3__19allocatorIPN7sc_core18sc_signal_inout_ifIN5sc_dt5sc_bvILi3EEEEEE8max_sizeB8ue170006Ev, symObjAddr: 0x21ECC, symBinAddr: 0x1000253E8, symSize: 0x14 }
  - { offsetInCU: 0x74E88, offset: 0x74E88, size: 0x8, addend: 0x0, symName: __ZNKSt3__117__compressed_pairIPPN7sc_core18sc_signal_inout_ifIN5sc_dt5sc_bvILi3EEEEENS_9allocatorIS7_EEE6secondB8ue170006Ev, symObjAddr: 0x21EE0, symBinAddr: 0x1000253FC, symSize: 0x24 }
  - { offsetInCU: 0x74EAE, offset: 0x74EAE, size: 0x8, addend: 0x0, symName: __ZNKSt3__122__compressed_pair_elemINS_9allocatorIPN7sc_core18sc_signal_inout_ifIN5sc_dt5sc_bvILi3EEEEEEELi1ELb1EE5__getB8ue170006Ev, symObjAddr: 0x21F04, symBinAddr: 0x100025420, symSize: 0x14 }
  - { offsetInCU: 0x74ED4, offset: 0x74ED4, size: 0x8, addend: 0x0, symName: __ZNSt3__114__split_bufferIPN7sc_core18sc_signal_inout_ifIN5sc_dt5sc_bvILi3EEEEERNS_9allocatorIS7_EEEC2EmmSA_, symObjAddr: 0x21F18, symBinAddr: 0x100025434, symSize: 0xD4 }
  - { offsetInCU: 0x74F48, offset: 0x74F48, size: 0x8, addend: 0x0, symName: __ZNSt3__117__compressed_pairIPPN7sc_core18sc_signal_inout_ifIN5sc_dt5sc_bvILi3EEEEERNS_9allocatorIS7_EEEC1B8ue170006IDnSB_EEOT_OT0_, symObjAddr: 0x21FEC, symBinAddr: 0x100025508, symSize: 0x3C }
  - { offsetInCU: 0x74FA0, offset: 0x74FA0, size: 0x8, addend: 0x0, symName: __ZNSt3__114__split_bufferIPN7sc_core18sc_signal_inout_ifIN5sc_dt5sc_bvILi3EEEEERNS_9allocatorIS7_EEE7__allocB8ue170006Ev, symObjAddr: 0x22068, symBinAddr: 0x100025584, symSize: 0x28 }
  - { offsetInCU: 0x74FC6, offset: 0x74FC6, size: 0x8, addend: 0x0, symName: __ZNSt3__114__split_bufferIPN7sc_core18sc_signal_inout_ifIN5sc_dt5sc_bvILi3EEEEERNS_9allocatorIS7_EEE9__end_capB8ue170006Ev, symObjAddr: 0x22090, symBinAddr: 0x1000255AC, symSize: 0x28 }
  - { offsetInCU: 0x74FEC, offset: 0x74FEC, size: 0x8, addend: 0x0, symName: __ZNSt3__117__compressed_pairIPPN7sc_core18sc_signal_inout_ifIN5sc_dt5sc_bvILi3EEEEERNS_9allocatorIS7_EEEC2B8ue170006IDnSB_EEOT_OT0_, symObjAddr: 0x220B8, symBinAddr: 0x1000255D4, symSize: 0x48 }
  - { offsetInCU: 0x75044, offset: 0x75044, size: 0x8, addend: 0x0, symName: __ZNSt3__122__compressed_pair_elemIRNS_9allocatorIPN7sc_core18sc_signal_inout_ifIN5sc_dt5sc_bvILi3EEEEEEELi1ELb0EEC2B8ue170006ISA_vEEOT_, symObjAddr: 0x22100, symBinAddr: 0x10002561C, symSize: 0x20 }
  - { offsetInCU: 0x75086, offset: 0x75086, size: 0x8, addend: 0x0, symName: __ZNSt3__19allocatorIPN7sc_core18sc_signal_inout_ifIN5sc_dt5sc_bvILi3EEEEEE8allocateB8ue170006Em, symObjAddr: 0x22120, symBinAddr: 0x10002563C, symSize: 0x58 }
  - { offsetInCU: 0x750BA, offset: 0x750BA, size: 0x8, addend: 0x0, symName: __ZNSt3__117__compressed_pairIPPN7sc_core18sc_signal_inout_ifIN5sc_dt5sc_bvILi3EEEEERNS_9allocatorIS7_EEE6secondB8ue170006Ev, symObjAddr: 0x22178, symBinAddr: 0x100025694, symSize: 0x28 }
  - { offsetInCU: 0x750E0, offset: 0x750E0, size: 0x8, addend: 0x0, symName: __ZNSt3__122__compressed_pair_elemIRNS_9allocatorIPN7sc_core18sc_signal_inout_ifIN5sc_dt5sc_bvILi3EEEEEEELi1ELb0EE5__getB8ue170006Ev, symObjAddr: 0x221A0, symBinAddr: 0x1000256BC, symSize: 0x18 }
  - { offsetInCU: 0x75106, offset: 0x75106, size: 0x8, addend: 0x0, symName: __ZNSt3__117__compressed_pairIPPN7sc_core18sc_signal_inout_ifIN5sc_dt5sc_bvILi3EEEEERNS_9allocatorIS7_EEE5firstB8ue170006Ev, symObjAddr: 0x221B8, symBinAddr: 0x1000256D4, symSize: 0x24 }
  - { offsetInCU: 0x7512C, offset: 0x7512C, size: 0x8, addend: 0x0, symName: __ZNSt3__116reverse_iteratorIPPN7sc_core18sc_signal_inout_ifIN5sc_dt5sc_bvILi3EEEEEEC1B8ue170006ES8_, symObjAddr: 0x22254, symBinAddr: 0x100025770, symSize: 0x34 }
  - { offsetInCU: 0x75164, offset: 0x75164, size: 0x8, addend: 0x0, symName: __ZNKSt3__116reverse_iteratorIPPN7sc_core18sc_signal_inout_ifIN5sc_dt5sc_bvILi3EEEEEE4baseB8ue170006Ev, symObjAddr: 0x22288, symBinAddr: 0x1000257A4, symSize: 0x18 }
  - { offsetInCU: 0x7518A, offset: 0x7518A, size: 0x8, addend: 0x0, symName: __ZNKSt3__16vectorIPN7sc_core18sc_signal_inout_ifIN5sc_dt5sc_bvILi3EEEEENS_9allocatorIS7_EEE14__annotate_newB8ue170006Em, symObjAddr: 0x222DC, symBinAddr: 0x1000257F8, symSize: 0xAC }
  - { offsetInCU: 0x751DB, offset: 0x751DB, size: 0x8, addend: 0x0, symName: __ZNKSt3__111__move_loopINS_17_ClassicAlgPolicyEEclB8ue170006INS_16reverse_iteratorIPPN7sc_core18sc_signal_inout_ifIN5sc_dt5sc_bvILi3EEEEEEESD_SD_EENS_4pairIT_T1_EESF_T0_SG_, symObjAddr: 0x22678, symBinAddr: 0x100025B94, symSize: 0xA0 }
  - { offsetInCU: 0x7524C, offset: 0x7524C, size: 0x8, addend: 0x0, symName: __ZNSt3__18_IterOpsINS_17_ClassicAlgPolicyEE11__iter_moveB8ue170006IRNS_16reverse_iteratorIPPN7sc_core18sc_signal_inout_ifIN5sc_dt5sc_bvILi3EEEEEEEEENS_9enable_ifIXsr12is_referenceIDTdeclsr3stdE7declvalIRT_EEEEE5valueEDTclsr3stdE4movedeclsr3stdE7declvalISH_EEEEE4typeEOSG_, symObjAddr: 0x228AC, symBinAddr: 0x100025DC8, symSize: 0x28 }
  - { offsetInCU: 0x75278, offset: 0x75278, size: 0x8, addend: 0x0, symName: __ZNKSt3__116reverse_iteratorIPPN7sc_core18sc_signal_inout_ifIN5sc_dt5sc_bvILi3EEEEEEdeB8ue170006Ev, symObjAddr: 0x228D4, symBinAddr: 0x100025DF0, symSize: 0x28 }
  - { offsetInCU: 0x752AC, offset: 0x752AC, size: 0x8, addend: 0x0, symName: __ZNSt3__116reverse_iteratorIPPN7sc_core18sc_signal_inout_ifIN5sc_dt5sc_bvILi3EEEEEEppB8ue170006Ev, symObjAddr: 0x228FC, symBinAddr: 0x100025E18, symSize: 0x20 }
  - { offsetInCU: 0x752D2, offset: 0x752D2, size: 0x8, addend: 0x0, symName: __ZNSt3__18_IterOpsINS_17_ClassicAlgPolicyEE25__validate_iter_referenceB8ue170006IRNS_16reverse_iteratorIPPN7sc_core18sc_signal_inout_ifIN5sc_dt5sc_bvILi3EEEEEEEEEvv, symObjAddr: 0x2291C, symBinAddr: 0x100025E38, symSize: 0x4 }
  - { offsetInCU: 0x752F0, offset: 0x752F0, size: 0x8, addend: 0x0, symName: __ZNSt3__118__unwrap_iter_implINS_16reverse_iteratorIPPN7sc_core18sc_signal_inout_ifIN5sc_dt5sc_bvILi3EEEEEEELb0EE8__unwrapB8ue170006ESA_, symObjAddr: 0x22920, symBinAddr: 0x100025E3C, symSize: 0x24 }
  - { offsetInCU: 0x75319, offset: 0x75319, size: 0x8, addend: 0x0, symName: __ZNSt3__14pairINS_16reverse_iteratorIPPN7sc_core18sc_signal_inout_ifIN5sc_dt5sc_bvILi3EEEEEEESA_EC1B8ue170006ISA_SA_LPv0EEEOT_OT0_, symObjAddr: 0x22944, symBinAddr: 0x100025E60, symSize: 0x3C }
  - { offsetInCU: 0x75377, offset: 0x75377, size: 0x8, addend: 0x0, symName: __ZNSt3__14pairINS_16reverse_iteratorIPPN7sc_core18sc_signal_inout_ifIN5sc_dt5sc_bvILi3EEEEEEESA_EC2B8ue170006ISA_SA_LPv0EEEOT_OT0_, symObjAddr: 0x22980, symBinAddr: 0x100025E9C, symSize: 0x34 }
  - { offsetInCU: 0x753D5, offset: 0x753D5, size: 0x8, addend: 0x0, symName: __ZNSt3__118__unwrap_iter_implINS_16reverse_iteratorIPPN7sc_core18sc_signal_inout_ifIN5sc_dt5sc_bvILi3EEEEEEELb0EE8__rewrapB8ue170006ESA_SA_, symObjAddr: 0x229B4, symBinAddr: 0x100025ED0, symSize: 0x2C }
  - { offsetInCU: 0x75403, offset: 0x75403, size: 0x8, addend: 0x0, symName: __ZNSt3__116reverse_iteratorIPPN7sc_core18sc_signal_inout_ifIN5sc_dt5sc_bvILi3EEEEEEC2B8ue170006ES8_, symObjAddr: 0x229E0, symBinAddr: 0x100025EFC, symSize: 0x28 }
  - { offsetInCU: 0x7543B, offset: 0x7543B, size: 0x8, addend: 0x0, symName: __ZNSt3__114__split_bufferIPN7sc_core18sc_signal_inout_ifIN5sc_dt5sc_bvILi3EEEEERNS_9allocatorIS7_EEED2Ev, symObjAddr: 0x22A08, symBinAddr: 0x100025F24, symSize: 0x8C }
  - { offsetInCU: 0x75467, offset: 0x75467, size: 0x8, addend: 0x0, symName: __ZNSt3__114__split_bufferIPN7sc_core18sc_signal_inout_ifIN5sc_dt5sc_bvILi3EEEEERNS_9allocatorIS7_EEE5clearB8ue170006Ev, symObjAddr: 0x22A94, symBinAddr: 0x100025FB0, symSize: 0x28 }
  - { offsetInCU: 0x7548D, offset: 0x7548D, size: 0x8, addend: 0x0, symName: __ZNKSt3__114__split_bufferIPN7sc_core18sc_signal_inout_ifIN5sc_dt5sc_bvILi3EEEEERNS_9allocatorIS7_EEE8capacityB8ue170006Ev, symObjAddr: 0x22ABC, symBinAddr: 0x100025FD8, symSize: 0x40 }
  - { offsetInCU: 0x754B3, offset: 0x754B3, size: 0x8, addend: 0x0, symName: __ZNSt3__114__split_bufferIPN7sc_core18sc_signal_inout_ifIN5sc_dt5sc_bvILi3EEEEERNS_9allocatorIS7_EEE17__destruct_at_endB8ue170006EPS7_, symObjAddr: 0x22AFC, symBinAddr: 0x100026018, symSize: 0x2C }
  - { offsetInCU: 0x754E7, offset: 0x754E7, size: 0x8, addend: 0x0, symName: __ZNSt3__114__split_bufferIPN7sc_core18sc_signal_inout_ifIN5sc_dt5sc_bvILi3EEEEERNS_9allocatorIS7_EEE17__destruct_at_endB8ue170006EPS7_NS_17integral_constantIbLb0EEE, symObjAddr: 0x22B28, symBinAddr: 0x100026044, symSize: 0x80 }
  - { offsetInCU: 0x75528, offset: 0x75528, size: 0x8, addend: 0x0, symName: __ZNKSt3__114__split_bufferIPN7sc_core18sc_signal_inout_ifIN5sc_dt5sc_bvILi3EEEEERNS_9allocatorIS7_EEE9__end_capB8ue170006Ev, symObjAddr: 0x22BA8, symBinAddr: 0x1000260C4, symSize: 0x28 }
  - { offsetInCU: 0x7554E, offset: 0x7554E, size: 0x8, addend: 0x0, symName: __ZNKSt3__117__compressed_pairIPPN7sc_core18sc_signal_inout_ifIN5sc_dt5sc_bvILi3EEEEERNS_9allocatorIS7_EEE5firstB8ue170006Ev, symObjAddr: 0x22BD0, symBinAddr: 0x1000260EC, symSize: 0x24 }
  - { offsetInCU: 0x75574, offset: 0x75574, size: 0x8, addend: 0x0, symName: __ZN7sc_core8sc_inoutIN5sc_dt5sc_bvILi3EEEE5writeERKS3_, symObjAddr: 0x22BF4, symBinAddr: 0x100026110, symSize: 0x40 }
  - { offsetInCU: 0x755A9, offset: 0x755A9, size: 0x8, addend: 0x0, symName: __ZN7sc_core9sc_port_bINS_18sc_signal_inout_ifIN5sc_dt5sc_bvILi3EEEEEEptEv, symObjAddr: 0x22C34, symBinAddr: 0x100026150, symSize: 0x5C }
  - { offsetInCU: 0x755D1, offset: 0x755D1, size: 0x8, addend: 0x0, symName: __ZNKSt3__16vectorIPN7sc_core18sc_signal_inout_ifIN5sc_dt5sc_bvILi3EEEEENS_9allocatorIS7_EEEixB8ue170006Em, symObjAddr: 0x22C90, symBinAddr: 0x1000261AC, symSize: 0x24 }
  - { offsetInCU: 0x75608, offset: 0x75608, size: 0x8, addend: 0x0, symName: __ZN7sc_core6sc_outIN5sc_dt5sc_bvILi5EEEEC2Ev, symObjAddr: 0x22CB4, symBinAddr: 0x1000261D0, symSize: 0x44 }
  - { offsetInCU: 0x75632, offset: 0x75632, size: 0x8, addend: 0x0, symName: __ZN7sc_core8sc_inoutIN5sc_dt5sc_bvILi5EEEEC2Ev, symObjAddr: 0x22CF8, symBinAddr: 0x100026214, symSize: 0x50 }
  - { offsetInCU: 0x7565C, offset: 0x7565C, size: 0x8, addend: 0x0, symName: __ZNK7sc_core6sc_outIN5sc_dt5sc_bvILi5EEEE4kindEv, symObjAddr: 0x22D48, symBinAddr: 0x100026264, symSize: 0x18 }
  - { offsetInCU: 0x75682, offset: 0x75682, size: 0x8, addend: 0x0, symName: __ZN7sc_core6sc_outIN5sc_dt5sc_bvILi5EEEED0Ev, symObjAddr: 0x22D60, symBinAddr: 0x10002627C, symSize: 0x30 }
  - { offsetInCU: 0x756AC, offset: 0x756AC, size: 0x8, addend: 0x0, symName: __ZN7sc_core9sc_port_bINS_18sc_signal_inout_ifIN5sc_dt5sc_bvILi5EEEEEE13get_interfaceEv, symObjAddr: 0x22D90, symBinAddr: 0x1000262AC, symSize: 0x50 }
  - { offsetInCU: 0x756D2, offset: 0x756D2, size: 0x8, addend: 0x0, symName: __ZNK7sc_core9sc_port_bINS_18sc_signal_inout_ifIN5sc_dt5sc_bvILi5EEEEEE13get_interfaceEv, symObjAddr: 0x22DE0, symBinAddr: 0x1000262FC, symSize: 0x50 }
  - { offsetInCU: 0x756F8, offset: 0x756F8, size: 0x8, addend: 0x0, symName: __ZNK7sc_core9sc_port_bINS_18sc_signal_inout_ifIN5sc_dt5sc_bvILi5EEEEEE18get_interface_typeEv, symObjAddr: 0x22E30, symBinAddr: 0x10002634C, symSize: 0x30 }
  - { offsetInCU: 0x75720, offset: 0x75720, size: 0x8, addend: 0x0, symName: __ZN7sc_core9sc_port_bINS_18sc_signal_inout_ifIN5sc_dt5sc_bvILi5EEEEEE5vbindERNS_12sc_interfaceE, symObjAddr: 0x22E60, symBinAddr: 0x10002637C, symSize: 0xBC }
  - { offsetInCU: 0x75766, offset: 0x75766, size: 0x8, addend: 0x0, symName: __ZN7sc_core9sc_port_bINS_18sc_signal_inout_ifIN5sc_dt5sc_bvILi5EEEEEE5vbindERNS_12sc_port_baseE, symObjAddr: 0x22F1C, symBinAddr: 0x100026438, symSize: 0xB0 }
  - { offsetInCU: 0x757AC, offset: 0x757AC, size: 0x8, addend: 0x0, symName: __ZN7sc_core9sc_port_bINS_18sc_signal_inout_ifIN5sc_dt5sc_bvILi5EEEEEE13add_interfaceEPNS_12sc_interfaceE, symObjAddr: 0x22FCC, symBinAddr: 0x1000264E8, symSize: 0x160 }
  - { offsetInCU: 0x7581F, offset: 0x7581F, size: 0x8, addend: 0x0, symName: __ZNK7sc_core9sc_port_bINS_18sc_signal_inout_ifIN5sc_dt5sc_bvILi5EEEEEE15interface_countEv, symObjAddr: 0x2312C, symBinAddr: 0x100026648, symSize: 0x24 }
  - { offsetInCU: 0x75847, offset: 0x75847, size: 0x8, addend: 0x0, symName: __ZN7sc_core8sc_inoutIN5sc_dt5sc_bvILi5EEEE18end_of_elaborationEv, symObjAddr: 0x23150, symBinAddr: 0x10002666C, symSize: 0x194 }
  - { offsetInCU: 0x758BA, offset: 0x758BA, size: 0x8, addend: 0x0, symName: __ZNK7sc_core9sc_port_bINS_18sc_signal_inout_ifIN5sc_dt5sc_bvILi5EEEEEE14make_sensitiveEPNS_17sc_thread_processEPNS_15sc_event_finderE, symObjAddr: 0x232E4, symBinAddr: 0x100026800, symSize: 0x114 }
  - { offsetInCU: 0x7595A, offset: 0x7595A, size: 0x8, addend: 0x0, symName: __ZNK7sc_core9sc_port_bINS_18sc_signal_inout_ifIN5sc_dt5sc_bvILi5EEEEEE14make_sensitiveEPNS_17sc_method_processEPNS_15sc_event_finderE, symObjAddr: 0x233F8, symBinAddr: 0x100026914, symSize: 0x114 }
  - { offsetInCU: 0x759FA, offset: 0x759FA, size: 0x8, addend: 0x0, symName: __ZN7sc_core9sc_port_bINS_18sc_signal_inout_ifIN5sc_dt5sc_bvILi5EEEEEE4bindERS6_, symObjAddr: 0x2350C, symBinAddr: 0x100026A28, symSize: 0x2C }
  - { offsetInCU: 0x75A2F, offset: 0x75A2F, size: 0x8, addend: 0x0, symName: __ZN7sc_core7sc_portINS_18sc_signal_inout_ifIN5sc_dt5sc_bvILi5EEEEELi1ELNS_14sc_port_policyE0EEC2Ev, symObjAddr: 0x23538, symBinAddr: 0x100026A54, symSize: 0x4C }
  - { offsetInCU: 0x75A59, offset: 0x75A59, size: 0x8, addend: 0x0, symName: __ZNK7sc_core8sc_inoutIN5sc_dt5sc_bvILi5EEEE4kindEv, symObjAddr: 0x23584, symBinAddr: 0x100026AA0, symSize: 0x18 }
  - { offsetInCU: 0x75A7F, offset: 0x75A7F, size: 0x8, addend: 0x0, symName: __ZN7sc_core8sc_inoutIN5sc_dt5sc_bvILi5EEEED1Ev, symObjAddr: 0x2359C, symBinAddr: 0x100026AB8, symSize: 0x2C }
  - { offsetInCU: 0x75AAB, offset: 0x75AAB, size: 0x8, addend: 0x0, symName: __ZN7sc_core8sc_inoutIN5sc_dt5sc_bvILi5EEEED0Ev, symObjAddr: 0x235C8, symBinAddr: 0x100026AE4, symSize: 0x30 }
  - { offsetInCU: 0x75AD7, offset: 0x75AD7, size: 0x8, addend: 0x0, symName: __ZN7sc_core9sc_port_bINS_18sc_signal_inout_ifIN5sc_dt5sc_bvILi5EEEEEEC2EiNS_14sc_port_policyE, symObjAddr: 0x235F8, symBinAddr: 0x100026B14, symSize: 0x64 }
  - { offsetInCU: 0x75B1F, offset: 0x75B1F, size: 0x8, addend: 0x0, symName: __ZNK7sc_core7sc_portINS_18sc_signal_inout_ifIN5sc_dt5sc_bvILi5EEEEELi1ELNS_14sc_port_policyE0EE4kindEv, symObjAddr: 0x2365C, symBinAddr: 0x100026B78, symSize: 0x18 }
  - { offsetInCU: 0x75B45, offset: 0x75B45, size: 0x8, addend: 0x0, symName: __ZN7sc_core7sc_portINS_18sc_signal_inout_ifIN5sc_dt5sc_bvILi5EEEEELi1ELNS_14sc_port_policyE0EED1Ev, symObjAddr: 0x23674, symBinAddr: 0x100026B90, symSize: 0x2C }
  - { offsetInCU: 0x75B6F, offset: 0x75B6F, size: 0x8, addend: 0x0, symName: __ZN7sc_core7sc_portINS_18sc_signal_inout_ifIN5sc_dt5sc_bvILi5EEEEELi1ELNS_14sc_port_policyE0EED0Ev, symObjAddr: 0x236A0, symBinAddr: 0x100026BBC, symSize: 0x30 }
  - { offsetInCU: 0x75B99, offset: 0x75B99, size: 0x8, addend: 0x0, symName: __ZNSt3__16vectorIPN7sc_core18sc_signal_inout_ifIN5sc_dt5sc_bvILi5EEEEENS_9allocatorIS7_EEEC1B8ue170006Ev, symObjAddr: 0x236D0, symBinAddr: 0x100026BEC, symSize: 0x2C }
  - { offsetInCU: 0x75BC3, offset: 0x75BC3, size: 0x8, addend: 0x0, symName: __ZN7sc_core9sc_port_bINS_18sc_signal_inout_ifIN5sc_dt5sc_bvILi5EEEEEED1Ev, symObjAddr: 0x236FC, symBinAddr: 0x100026C18, symSize: 0x2C }
  - { offsetInCU: 0x75BED, offset: 0x75BED, size: 0x8, addend: 0x0, symName: __ZN7sc_core9sc_port_bINS_18sc_signal_inout_ifIN5sc_dt5sc_bvILi5EEEEEED0Ev, symObjAddr: 0x23728, symBinAddr: 0x100026C44, symSize: 0x30 }
  - { offsetInCU: 0x75C17, offset: 0x75C17, size: 0x8, addend: 0x0, symName: __ZNSt3__16vectorIPN7sc_core18sc_signal_inout_ifIN5sc_dt5sc_bvILi5EEEEENS_9allocatorIS7_EEEC2B8ue170006Ev, symObjAddr: 0x23758, symBinAddr: 0x100026C74, symSize: 0x4C }
  - { offsetInCU: 0x75C41, offset: 0x75C41, size: 0x8, addend: 0x0, symName: __ZNSt3__117__compressed_pairIPPN7sc_core18sc_signal_inout_ifIN5sc_dt5sc_bvILi5EEEEENS_9allocatorIS7_EEEC1B8ue170006IDnNS_18__default_init_tagEEEOT_OT0_, symObjAddr: 0x237A4, symBinAddr: 0x100026CC0, symSize: 0x3C }
  - { offsetInCU: 0x75C99, offset: 0x75C99, size: 0x8, addend: 0x0, symName: __ZNSt3__117__compressed_pairIPPN7sc_core18sc_signal_inout_ifIN5sc_dt5sc_bvILi5EEEEENS_9allocatorIS7_EEEC2B8ue170006IDnNS_18__default_init_tagEEEOT_OT0_, symObjAddr: 0x237E0, symBinAddr: 0x100026CFC, symSize: 0x40 }
  - { offsetInCU: 0x75CF1, offset: 0x75CF1, size: 0x8, addend: 0x0, symName: __ZNSt3__122__compressed_pair_elemIPPN7sc_core18sc_signal_inout_ifIN5sc_dt5sc_bvILi5EEEEELi0ELb0EEC2B8ue170006IDnvEEOT_, symObjAddr: 0x23820, symBinAddr: 0x100026D3C, symSize: 0x1C }
  - { offsetInCU: 0x75D33, offset: 0x75D33, size: 0x8, addend: 0x0, symName: __ZNSt3__122__compressed_pair_elemINS_9allocatorIPN7sc_core18sc_signal_inout_ifIN5sc_dt5sc_bvILi5EEEEEEELi1ELb1EEC2B8ue170006ENS_18__default_init_tagE, symObjAddr: 0x2383C, symBinAddr: 0x100026D58, symSize: 0x2C }
  - { offsetInCU: 0x75D68, offset: 0x75D68, size: 0x8, addend: 0x0, symName: __ZNSt3__19allocatorIPN7sc_core18sc_signal_inout_ifIN5sc_dt5sc_bvILi5EEEEEEC2B8ue170006Ev, symObjAddr: 0x23868, symBinAddr: 0x100026D84, symSize: 0x2C }
  - { offsetInCU: 0x75D92, offset: 0x75D92, size: 0x8, addend: 0x0, symName: __ZNSt3__116__non_trivial_ifILb1ENS_9allocatorIPN7sc_core18sc_signal_inout_ifIN5sc_dt5sc_bvILi5EEEEEEEEC2B8ue170006Ev, symObjAddr: 0x23894, symBinAddr: 0x100026DB0, symSize: 0x14 }
  - { offsetInCU: 0x75DBC, offset: 0x75DBC, size: 0x8, addend: 0x0, symName: __ZN7sc_core9sc_port_bINS_18sc_signal_inout_ifIN5sc_dt5sc_bvILi5EEEEEED2Ev, symObjAddr: 0x238A8, symBinAddr: 0x100026DC4, symSize: 0x48 }
  - { offsetInCU: 0x75DE6, offset: 0x75DE6, size: 0x8, addend: 0x0, symName: __ZNSt3__16vectorIPN7sc_core18sc_signal_inout_ifIN5sc_dt5sc_bvILi5EEEEENS_9allocatorIS7_EEED1B8ue170006Ev, symObjAddr: 0x238F0, symBinAddr: 0x100026E0C, symSize: 0x2C }
  - { offsetInCU: 0x75E10, offset: 0x75E10, size: 0x8, addend: 0x0, symName: __ZNSt3__16vectorIPN7sc_core18sc_signal_inout_ifIN5sc_dt5sc_bvILi5EEEEENS_9allocatorIS7_EEED2B8ue170006Ev, symObjAddr: 0x2391C, symBinAddr: 0x100026E38, symSize: 0x44 }
  - { offsetInCU: 0x75E3A, offset: 0x75E3A, size: 0x8, addend: 0x0, symName: __ZNSt3__16vectorIPN7sc_core18sc_signal_inout_ifIN5sc_dt5sc_bvILi5EEEEENS_9allocatorIS7_EEE16__destroy_vectorC1B8ue170006ERSA_, symObjAddr: 0x23960, symBinAddr: 0x100026E7C, symSize: 0x34 }
  - { offsetInCU: 0x75E73, offset: 0x75E73, size: 0x8, addend: 0x0, symName: __ZNSt3__16vectorIPN7sc_core18sc_signal_inout_ifIN5sc_dt5sc_bvILi5EEEEENS_9allocatorIS7_EEE16__destroy_vectorclB8ue170006Ev, symObjAddr: 0x23994, symBinAddr: 0x100026EB0, symSize: 0x90 }
  - { offsetInCU: 0x75E99, offset: 0x75E99, size: 0x8, addend: 0x0, symName: __ZNSt3__16vectorIPN7sc_core18sc_signal_inout_ifIN5sc_dt5sc_bvILi5EEEEENS_9allocatorIS7_EEE16__destroy_vectorC2B8ue170006ERSA_, symObjAddr: 0x23A24, symBinAddr: 0x100026F40, symSize: 0x20 }
  - { offsetInCU: 0x75ED2, offset: 0x75ED2, size: 0x8, addend: 0x0, symName: __ZNSt3__16vectorIPN7sc_core18sc_signal_inout_ifIN5sc_dt5sc_bvILi5EEEEENS_9allocatorIS7_EEE7__clearB8ue170006Ev, symObjAddr: 0x23A44, symBinAddr: 0x100026F60, symSize: 0x28 }
  - { offsetInCU: 0x75EF8, offset: 0x75EF8, size: 0x8, addend: 0x0, symName: __ZNKSt3__16vectorIPN7sc_core18sc_signal_inout_ifIN5sc_dt5sc_bvILi5EEEEENS_9allocatorIS7_EEE17__annotate_deleteB8ue170006Ev, symObjAddr: 0x23A6C, symBinAddr: 0x100026F88, symSize: 0xB8 }
  - { offsetInCU: 0x75F1E, offset: 0x75F1E, size: 0x8, addend: 0x0, symName: __ZNSt3__116allocator_traitsINS_9allocatorIPN7sc_core18sc_signal_inout_ifIN5sc_dt5sc_bvILi5EEEEEEEE10deallocateB8ue170006ERS9_PS8_m, symObjAddr: 0x23B24, symBinAddr: 0x100027040, symSize: 0x34 }
  - { offsetInCU: 0x75F60, offset: 0x75F60, size: 0x8, addend: 0x0, symName: __ZNSt3__16vectorIPN7sc_core18sc_signal_inout_ifIN5sc_dt5sc_bvILi5EEEEENS_9allocatorIS7_EEE7__allocB8ue170006Ev, symObjAddr: 0x23B58, symBinAddr: 0x100027074, symSize: 0x28 }
  - { offsetInCU: 0x75F86, offset: 0x75F86, size: 0x8, addend: 0x0, symName: __ZNKSt3__16vectorIPN7sc_core18sc_signal_inout_ifIN5sc_dt5sc_bvILi5EEEEENS_9allocatorIS7_EEE8capacityB8ue170006Ev, symObjAddr: 0x23B80, symBinAddr: 0x10002709C, symSize: 0x40 }
  - { offsetInCU: 0x75FAC, offset: 0x75FAC, size: 0x8, addend: 0x0, symName: __ZNSt3__16vectorIPN7sc_core18sc_signal_inout_ifIN5sc_dt5sc_bvILi5EEEEENS_9allocatorIS7_EEE22__base_destruct_at_endB8ue170006EPS7_, symObjAddr: 0x23BC0, symBinAddr: 0x1000270DC, symSize: 0x8C }
  - { offsetInCU: 0x75FF0, offset: 0x75FF0, size: 0x8, addend: 0x0, symName: __ZNSt3__116allocator_traitsINS_9allocatorIPN7sc_core18sc_signal_inout_ifIN5sc_dt5sc_bvILi5EEEEEEEE7destroyB8ue170006IS8_vEEvRS9_PT_, symObjAddr: 0x23C4C, symBinAddr: 0x100027168, symSize: 0x2C }
  - { offsetInCU: 0x7602D, offset: 0x7602D, size: 0x8, addend: 0x0, symName: __ZNSt3__19allocatorIPN7sc_core18sc_signal_inout_ifIN5sc_dt5sc_bvILi5EEEEEE7destroyB8ue170006EPS7_, symObjAddr: 0x23C8C, symBinAddr: 0x1000271A8, symSize: 0x14 }
  - { offsetInCU: 0x76061, offset: 0x76061, size: 0x8, addend: 0x0, symName: __ZNKSt3__16vectorIPN7sc_core18sc_signal_inout_ifIN5sc_dt5sc_bvILi5EEEEENS_9allocatorIS7_EEE31__annotate_contiguous_containerB8ue170006EPKvSC_SC_SC_, symObjAddr: 0x23CA0, symBinAddr: 0x1000271BC, symSize: 0x20 }
  - { offsetInCU: 0x760B7, offset: 0x760B7, size: 0x8, addend: 0x0, symName: __ZNKSt3__16vectorIPN7sc_core18sc_signal_inout_ifIN5sc_dt5sc_bvILi5EEEEENS_9allocatorIS7_EEE4dataB8ue170006Ev, symObjAddr: 0x23CC0, symBinAddr: 0x1000271DC, symSize: 0x28 }
  - { offsetInCU: 0x760DD, offset: 0x760DD, size: 0x8, addend: 0x0, symName: __ZNKSt3__16vectorIPN7sc_core18sc_signal_inout_ifIN5sc_dt5sc_bvILi5EEEEENS_9allocatorIS7_EEE4sizeB8ue170006Ev, symObjAddr: 0x23CE8, symBinAddr: 0x100027204, symSize: 0x28 }
  - { offsetInCU: 0x76103, offset: 0x76103, size: 0x8, addend: 0x0, symName: __ZNSt3__19allocatorIPN7sc_core18sc_signal_inout_ifIN5sc_dt5sc_bvILi5EEEEEE10deallocateB8ue170006EPS7_m, symObjAddr: 0x23D10, symBinAddr: 0x10002722C, symSize: 0x40 }
  - { offsetInCU: 0x76145, offset: 0x76145, size: 0x8, addend: 0x0, symName: __ZNSt3__117__compressed_pairIPPN7sc_core18sc_signal_inout_ifIN5sc_dt5sc_bvILi5EEEEENS_9allocatorIS7_EEE6secondB8ue170006Ev, symObjAddr: 0x23D50, symBinAddr: 0x10002726C, symSize: 0x24 }
  - { offsetInCU: 0x7616B, offset: 0x7616B, size: 0x8, addend: 0x0, symName: __ZNSt3__122__compressed_pair_elemINS_9allocatorIPN7sc_core18sc_signal_inout_ifIN5sc_dt5sc_bvILi5EEEEEEELi1ELb1EE5__getB8ue170006Ev, symObjAddr: 0x23D74, symBinAddr: 0x100027290, symSize: 0x14 }
  - { offsetInCU: 0x76191, offset: 0x76191, size: 0x8, addend: 0x0, symName: __ZNKSt3__16vectorIPN7sc_core18sc_signal_inout_ifIN5sc_dt5sc_bvILi5EEEEENS_9allocatorIS7_EEE9__end_capB8ue170006Ev, symObjAddr: 0x23D88, symBinAddr: 0x1000272A4, symSize: 0x28 }
  - { offsetInCU: 0x761B7, offset: 0x761B7, size: 0x8, addend: 0x0, symName: __ZNKSt3__117__compressed_pairIPPN7sc_core18sc_signal_inout_ifIN5sc_dt5sc_bvILi5EEEEENS_9allocatorIS7_EEE5firstB8ue170006Ev, symObjAddr: 0x23DB0, symBinAddr: 0x1000272CC, symSize: 0x24 }
  - { offsetInCU: 0x761DD, offset: 0x761DD, size: 0x8, addend: 0x0, symName: __ZNKSt3__122__compressed_pair_elemIPPN7sc_core18sc_signal_inout_ifIN5sc_dt5sc_bvILi5EEEEELi0ELb0EE5__getB8ue170006Ev, symObjAddr: 0x23DD4, symBinAddr: 0x1000272F0, symSize: 0x14 }
  - { offsetInCU: 0x76203, offset: 0x76203, size: 0x8, addend: 0x0, symName: __ZN7sc_core7sc_portINS_18sc_signal_inout_ifIN5sc_dt5sc_bvILi5EEEEELi1ELNS_14sc_port_policyE0EED2Ev, symObjAddr: 0x23DE8, symBinAddr: 0x100027304, symSize: 0x2C }
  - { offsetInCU: 0x7622D, offset: 0x7622D, size: 0x8, addend: 0x0, symName: __ZN7sc_core8sc_inoutIN5sc_dt5sc_bvILi5EEEED2Ev, symObjAddr: 0x23E14, symBinAddr: 0x100027330, symSize: 0xB4 }
  - { offsetInCU: 0x76259, offset: 0x76259, size: 0x8, addend: 0x0, symName: __ZNK7sc_core8sc_inoutIN5sc_dt5sc_bvILi5EEEE13remove_tracesEv, symObjAddr: 0x23EC8, symBinAddr: 0x1000273E4, symSize: 0xF4 }
  - { offsetInCU: 0x7629F, offset: 0x7629F, size: 0x8, addend: 0x0, symName: __ZNK7sc_core9sc_port_bINS_18sc_signal_inout_ifIN5sc_dt5sc_bvILi5EEEEEE4sizeEv, symObjAddr: 0x23FBC, symBinAddr: 0x1000274D8, symSize: 0x28 }
  - { offsetInCU: 0x762C5, offset: 0x762C5, size: 0x8, addend: 0x0, symName: __ZNSt3__16vectorIPN7sc_core18sc_signal_inout_ifIN5sc_dt5sc_bvILi5EEEEENS_9allocatorIS7_EEEixB8ue170006Em, symObjAddr: 0x23FE4, symBinAddr: 0x100027500, symSize: 0x24 }
  - { offsetInCU: 0x762FC, offset: 0x762FC, size: 0x8, addend: 0x0, symName: __ZNSt3__16vectorIPN7sc_core18sc_signal_inout_ifIN5sc_dt5sc_bvILi5EEEEENS_9allocatorIS7_EEE9push_backB8ue170006ERKS7_, symObjAddr: 0x24008, symBinAddr: 0x100027524, symSize: 0x6C }
  - { offsetInCU: 0x76333, offset: 0x76333, size: 0x8, addend: 0x0, symName: __ZNSt3__16vectorIPN7sc_core18sc_signal_inout_ifIN5sc_dt5sc_bvILi5EEEEENS_9allocatorIS7_EEE9__end_capB8ue170006Ev, symObjAddr: 0x24074, symBinAddr: 0x100027590, symSize: 0x28 }
  - { offsetInCU: 0x76359, offset: 0x76359, size: 0x8, addend: 0x0, symName: __ZNSt3__16vectorIPN7sc_core18sc_signal_inout_ifIN5sc_dt5sc_bvILi5EEEEENS_9allocatorIS7_EEE22__construct_one_at_endB8ue170006IJRKS7_EEEvDpOT_, symObjAddr: 0x2409C, symBinAddr: 0x1000275B8, symSize: 0x90 }
  - { offsetInCU: 0x763A8, offset: 0x763A8, size: 0x8, addend: 0x0, symName: __ZNSt3__16vectorIPN7sc_core18sc_signal_inout_ifIN5sc_dt5sc_bvILi5EEEEENS_9allocatorIS7_EEE21__push_back_slow_pathIRKS7_EEvOT_, symObjAddr: 0x2412C, symBinAddr: 0x100027648, symSize: 0xD8 }
  - { offsetInCU: 0x76406, offset: 0x76406, size: 0x8, addend: 0x0, symName: __ZNSt3__117__compressed_pairIPPN7sc_core18sc_signal_inout_ifIN5sc_dt5sc_bvILi5EEEEENS_9allocatorIS7_EEE5firstB8ue170006Ev, symObjAddr: 0x24204, symBinAddr: 0x100027720, symSize: 0x24 }
  - { offsetInCU: 0x7642C, offset: 0x7642C, size: 0x8, addend: 0x0, symName: __ZNSt3__122__compressed_pair_elemIPPN7sc_core18sc_signal_inout_ifIN5sc_dt5sc_bvILi5EEEEELi0ELb0EE5__getB8ue170006Ev, symObjAddr: 0x24228, symBinAddr: 0x100027744, symSize: 0x14 }
  - { offsetInCU: 0x7646D, offset: 0x7646D, size: 0x8, addend: 0x0, symName: __ZNSt3__16vectorIPN7sc_core18sc_signal_inout_ifIN5sc_dt5sc_bvILi5EEEEENS_9allocatorIS7_EEE21_ConstructTransactionC1B8ue170006ERSA_m, symObjAddr: 0x2423C, symBinAddr: 0x100027758, symSize: 0x3C }
  - { offsetInCU: 0x764B5, offset: 0x764B5, size: 0x8, addend: 0x0, symName: __ZNSt3__116allocator_traitsINS_9allocatorIPN7sc_core18sc_signal_inout_ifIN5sc_dt5sc_bvILi5EEEEEEEE9constructB8ue170006IS8_JRKS8_EvEEvRS9_PT_DpOT0_, symObjAddr: 0x24278, symBinAddr: 0x100027794, symSize: 0x34 }
  - { offsetInCU: 0x7650C, offset: 0x7650C, size: 0x8, addend: 0x0, symName: __ZNSt3__16vectorIPN7sc_core18sc_signal_inout_ifIN5sc_dt5sc_bvILi5EEEEENS_9allocatorIS7_EEE21_ConstructTransactionD1B8ue170006Ev, symObjAddr: 0x242AC, symBinAddr: 0x1000277C8, symSize: 0x2C }
  - { offsetInCU: 0x76536, offset: 0x76536, size: 0x8, addend: 0x0, symName: __ZNSt3__16vectorIPN7sc_core18sc_signal_inout_ifIN5sc_dt5sc_bvILi5EEEEENS_9allocatorIS7_EEE21_ConstructTransactionC2B8ue170006ERSA_m, symObjAddr: 0x242D8, symBinAddr: 0x1000277F4, symSize: 0x44 }
  - { offsetInCU: 0x7657E, offset: 0x7657E, size: 0x8, addend: 0x0, symName: __ZNSt3__19allocatorIPN7sc_core18sc_signal_inout_ifIN5sc_dt5sc_bvILi5EEEEEE9constructB8ue170006IS7_JRKS7_EEEvPT_DpOT0_, symObjAddr: 0x2431C, symBinAddr: 0x100027838, symSize: 0x28 }
  - { offsetInCU: 0x765D4, offset: 0x765D4, size: 0x8, addend: 0x0, symName: __ZNSt3__16vectorIPN7sc_core18sc_signal_inout_ifIN5sc_dt5sc_bvILi5EEEEENS_9allocatorIS7_EEE21_ConstructTransactionD2B8ue170006Ev, symObjAddr: 0x24344, symBinAddr: 0x100027860, symSize: 0x20 }
  - { offsetInCU: 0x765FE, offset: 0x765FE, size: 0x8, addend: 0x0, symName: __ZNKSt3__16vectorIPN7sc_core18sc_signal_inout_ifIN5sc_dt5sc_bvILi5EEEEENS_9allocatorIS7_EEE11__recommendB8ue170006Em, symObjAddr: 0x24364, symBinAddr: 0x100027880, symSize: 0xB4 }
  - { offsetInCU: 0x76653, offset: 0x76653, size: 0x8, addend: 0x0, symName: __ZNSt3__114__split_bufferIPN7sc_core18sc_signal_inout_ifIN5sc_dt5sc_bvILi5EEEEERNS_9allocatorIS7_EEEC1EmmSA_, symObjAddr: 0x24418, symBinAddr: 0x100027934, symSize: 0x44 }
  - { offsetInCU: 0x766A9, offset: 0x766A9, size: 0x8, addend: 0x0, symName: __ZNSt3__114__split_bufferIPN7sc_core18sc_signal_inout_ifIN5sc_dt5sc_bvILi5EEEEERNS_9allocatorIS7_EEED1Ev, symObjAddr: 0x2456C, symBinAddr: 0x100027A88, symSize: 0x2C }
  - { offsetInCU: 0x766D5, offset: 0x766D5, size: 0x8, addend: 0x0, symName: __ZNKSt3__16vectorIPN7sc_core18sc_signal_inout_ifIN5sc_dt5sc_bvILi5EEEEENS_9allocatorIS7_EEE8max_sizeEv, symObjAddr: 0x24598, symBinAddr: 0x100027AB4, symSize: 0x60 }
  - { offsetInCU: 0x766FD, offset: 0x766FD, size: 0x8, addend: 0x0, symName: __ZNKSt3__16vectorIPN7sc_core18sc_signal_inout_ifIN5sc_dt5sc_bvILi5EEEEENS_9allocatorIS7_EEE20__throw_length_errorB8ue170006Ev, symObjAddr: 0x245F8, symBinAddr: 0x100027B14, symSize: 0x1C }
  - { offsetInCU: 0x7672E, offset: 0x7672E, size: 0x8, addend: 0x0, symName: __ZNSt3__116allocator_traitsINS_9allocatorIPN7sc_core18sc_signal_inout_ifIN5sc_dt5sc_bvILi5EEEEEEEE8max_sizeB8ue170006IS9_vEEmRKS9_, symObjAddr: 0x24614, symBinAddr: 0x100027B30, symSize: 0x24 }
  - { offsetInCU: 0x7675C, offset: 0x7675C, size: 0x8, addend: 0x0, symName: __ZNKSt3__16vectorIPN7sc_core18sc_signal_inout_ifIN5sc_dt5sc_bvILi5EEEEENS_9allocatorIS7_EEE7__allocB8ue170006Ev, symObjAddr: 0x24638, symBinAddr: 0x100027B54, symSize: 0x28 }
  - { offsetInCU: 0x76782, offset: 0x76782, size: 0x8, addend: 0x0, symName: __ZNKSt3__19allocatorIPN7sc_core18sc_signal_inout_ifIN5sc_dt5sc_bvILi5EEEEEE8max_sizeB8ue170006Ev, symObjAddr: 0x24660, symBinAddr: 0x100027B7C, symSize: 0x14 }
  - { offsetInCU: 0x767A8, offset: 0x767A8, size: 0x8, addend: 0x0, symName: __ZNKSt3__117__compressed_pairIPPN7sc_core18sc_signal_inout_ifIN5sc_dt5sc_bvILi5EEEEENS_9allocatorIS7_EEE6secondB8ue170006Ev, symObjAddr: 0x24674, symBinAddr: 0x100027B90, symSize: 0x24 }
  - { offsetInCU: 0x767CE, offset: 0x767CE, size: 0x8, addend: 0x0, symName: __ZNKSt3__122__compressed_pair_elemINS_9allocatorIPN7sc_core18sc_signal_inout_ifIN5sc_dt5sc_bvILi5EEEEEEELi1ELb1EE5__getB8ue170006Ev, symObjAddr: 0x24698, symBinAddr: 0x100027BB4, symSize: 0x14 }
  - { offsetInCU: 0x767F4, offset: 0x767F4, size: 0x8, addend: 0x0, symName: __ZNSt3__114__split_bufferIPN7sc_core18sc_signal_inout_ifIN5sc_dt5sc_bvILi5EEEEERNS_9allocatorIS7_EEEC2EmmSA_, symObjAddr: 0x246AC, symBinAddr: 0x100027BC8, symSize: 0xD4 }
  - { offsetInCU: 0x76868, offset: 0x76868, size: 0x8, addend: 0x0, symName: __ZNSt3__117__compressed_pairIPPN7sc_core18sc_signal_inout_ifIN5sc_dt5sc_bvILi5EEEEERNS_9allocatorIS7_EEEC1B8ue170006IDnSB_EEOT_OT0_, symObjAddr: 0x24780, symBinAddr: 0x100027C9C, symSize: 0x3C }
  - { offsetInCU: 0x768C0, offset: 0x768C0, size: 0x8, addend: 0x0, symName: __ZNSt3__114__split_bufferIPN7sc_core18sc_signal_inout_ifIN5sc_dt5sc_bvILi5EEEEERNS_9allocatorIS7_EEE7__allocB8ue170006Ev, symObjAddr: 0x247FC, symBinAddr: 0x100027D18, symSize: 0x28 }
  - { offsetInCU: 0x768E6, offset: 0x768E6, size: 0x8, addend: 0x0, symName: __ZNSt3__114__split_bufferIPN7sc_core18sc_signal_inout_ifIN5sc_dt5sc_bvILi5EEEEERNS_9allocatorIS7_EEE9__end_capB8ue170006Ev, symObjAddr: 0x24824, symBinAddr: 0x100027D40, symSize: 0x28 }
  - { offsetInCU: 0x7690C, offset: 0x7690C, size: 0x8, addend: 0x0, symName: __ZNSt3__117__compressed_pairIPPN7sc_core18sc_signal_inout_ifIN5sc_dt5sc_bvILi5EEEEERNS_9allocatorIS7_EEEC2B8ue170006IDnSB_EEOT_OT0_, symObjAddr: 0x2484C, symBinAddr: 0x100027D68, symSize: 0x48 }
  - { offsetInCU: 0x76964, offset: 0x76964, size: 0x8, addend: 0x0, symName: __ZNSt3__122__compressed_pair_elemIRNS_9allocatorIPN7sc_core18sc_signal_inout_ifIN5sc_dt5sc_bvILi5EEEEEEELi1ELb0EEC2B8ue170006ISA_vEEOT_, symObjAddr: 0x24894, symBinAddr: 0x100027DB0, symSize: 0x20 }
  - { offsetInCU: 0x769A6, offset: 0x769A6, size: 0x8, addend: 0x0, symName: __ZNSt3__19allocatorIPN7sc_core18sc_signal_inout_ifIN5sc_dt5sc_bvILi5EEEEEE8allocateB8ue170006Em, symObjAddr: 0x248B4, symBinAddr: 0x100027DD0, symSize: 0x58 }
  - { offsetInCU: 0x769DA, offset: 0x769DA, size: 0x8, addend: 0x0, symName: __ZNSt3__117__compressed_pairIPPN7sc_core18sc_signal_inout_ifIN5sc_dt5sc_bvILi5EEEEERNS_9allocatorIS7_EEE6secondB8ue170006Ev, symObjAddr: 0x2490C, symBinAddr: 0x100027E28, symSize: 0x28 }
  - { offsetInCU: 0x76A00, offset: 0x76A00, size: 0x8, addend: 0x0, symName: __ZNSt3__122__compressed_pair_elemIRNS_9allocatorIPN7sc_core18sc_signal_inout_ifIN5sc_dt5sc_bvILi5EEEEEEELi1ELb0EE5__getB8ue170006Ev, symObjAddr: 0x24934, symBinAddr: 0x100027E50, symSize: 0x18 }
  - { offsetInCU: 0x76A26, offset: 0x76A26, size: 0x8, addend: 0x0, symName: __ZNSt3__117__compressed_pairIPPN7sc_core18sc_signal_inout_ifIN5sc_dt5sc_bvILi5EEEEERNS_9allocatorIS7_EEE5firstB8ue170006Ev, symObjAddr: 0x2494C, symBinAddr: 0x100027E68, symSize: 0x24 }
  - { offsetInCU: 0x76A4C, offset: 0x76A4C, size: 0x8, addend: 0x0, symName: __ZNSt3__116reverse_iteratorIPPN7sc_core18sc_signal_inout_ifIN5sc_dt5sc_bvILi5EEEEEEC1B8ue170006ES8_, symObjAddr: 0x249E8, symBinAddr: 0x100027F04, symSize: 0x34 }
  - { offsetInCU: 0x76A84, offset: 0x76A84, size: 0x8, addend: 0x0, symName: __ZNKSt3__116reverse_iteratorIPPN7sc_core18sc_signal_inout_ifIN5sc_dt5sc_bvILi5EEEEEE4baseB8ue170006Ev, symObjAddr: 0x24A1C, symBinAddr: 0x100027F38, symSize: 0x18 }
  - { offsetInCU: 0x76AAA, offset: 0x76AAA, size: 0x8, addend: 0x0, symName: __ZNKSt3__16vectorIPN7sc_core18sc_signal_inout_ifIN5sc_dt5sc_bvILi5EEEEENS_9allocatorIS7_EEE14__annotate_newB8ue170006Em, symObjAddr: 0x24A70, symBinAddr: 0x100027F8C, symSize: 0xAC }
  - { offsetInCU: 0x76AFB, offset: 0x76AFB, size: 0x8, addend: 0x0, symName: __ZNKSt3__111__move_loopINS_17_ClassicAlgPolicyEEclB8ue170006INS_16reverse_iteratorIPPN7sc_core18sc_signal_inout_ifIN5sc_dt5sc_bvILi5EEEEEEESD_SD_EENS_4pairIT_T1_EESF_T0_SG_, symObjAddr: 0x24E0C, symBinAddr: 0x100028328, symSize: 0xA0 }
  - { offsetInCU: 0x76B6C, offset: 0x76B6C, size: 0x8, addend: 0x0, symName: __ZNSt3__18_IterOpsINS_17_ClassicAlgPolicyEE11__iter_moveB8ue170006IRNS_16reverse_iteratorIPPN7sc_core18sc_signal_inout_ifIN5sc_dt5sc_bvILi5EEEEEEEEENS_9enable_ifIXsr12is_referenceIDTdeclsr3stdE7declvalIRT_EEEEE5valueEDTclsr3stdE4movedeclsr3stdE7declvalISH_EEEEE4typeEOSG_, symObjAddr: 0x25040, symBinAddr: 0x10002855C, symSize: 0x28 }
  - { offsetInCU: 0x76B98, offset: 0x76B98, size: 0x8, addend: 0x0, symName: __ZNKSt3__116reverse_iteratorIPPN7sc_core18sc_signal_inout_ifIN5sc_dt5sc_bvILi5EEEEEEdeB8ue170006Ev, symObjAddr: 0x25068, symBinAddr: 0x100028584, symSize: 0x28 }
  - { offsetInCU: 0x76BCC, offset: 0x76BCC, size: 0x8, addend: 0x0, symName: __ZNSt3__116reverse_iteratorIPPN7sc_core18sc_signal_inout_ifIN5sc_dt5sc_bvILi5EEEEEEppB8ue170006Ev, symObjAddr: 0x25090, symBinAddr: 0x1000285AC, symSize: 0x20 }
  - { offsetInCU: 0x76BF2, offset: 0x76BF2, size: 0x8, addend: 0x0, symName: __ZNSt3__18_IterOpsINS_17_ClassicAlgPolicyEE25__validate_iter_referenceB8ue170006IRNS_16reverse_iteratorIPPN7sc_core18sc_signal_inout_ifIN5sc_dt5sc_bvILi5EEEEEEEEEvv, symObjAddr: 0x250B0, symBinAddr: 0x1000285CC, symSize: 0x4 }
  - { offsetInCU: 0x76C10, offset: 0x76C10, size: 0x8, addend: 0x0, symName: __ZNSt3__118__unwrap_iter_implINS_16reverse_iteratorIPPN7sc_core18sc_signal_inout_ifIN5sc_dt5sc_bvILi5EEEEEEELb0EE8__unwrapB8ue170006ESA_, symObjAddr: 0x250B4, symBinAddr: 0x1000285D0, symSize: 0x24 }
  - { offsetInCU: 0x76C39, offset: 0x76C39, size: 0x8, addend: 0x0, symName: __ZNSt3__14pairINS_16reverse_iteratorIPPN7sc_core18sc_signal_inout_ifIN5sc_dt5sc_bvILi5EEEEEEESA_EC1B8ue170006ISA_SA_LPv0EEEOT_OT0_, symObjAddr: 0x250D8, symBinAddr: 0x1000285F4, symSize: 0x3C }
  - { offsetInCU: 0x76C97, offset: 0x76C97, size: 0x8, addend: 0x0, symName: __ZNSt3__14pairINS_16reverse_iteratorIPPN7sc_core18sc_signal_inout_ifIN5sc_dt5sc_bvILi5EEEEEEESA_EC2B8ue170006ISA_SA_LPv0EEEOT_OT0_, symObjAddr: 0x25114, symBinAddr: 0x100028630, symSize: 0x34 }
  - { offsetInCU: 0x76CF5, offset: 0x76CF5, size: 0x8, addend: 0x0, symName: __ZNSt3__118__unwrap_iter_implINS_16reverse_iteratorIPPN7sc_core18sc_signal_inout_ifIN5sc_dt5sc_bvILi5EEEEEEELb0EE8__rewrapB8ue170006ESA_SA_, symObjAddr: 0x25148, symBinAddr: 0x100028664, symSize: 0x2C }
  - { offsetInCU: 0x76D23, offset: 0x76D23, size: 0x8, addend: 0x0, symName: __ZNSt3__116reverse_iteratorIPPN7sc_core18sc_signal_inout_ifIN5sc_dt5sc_bvILi5EEEEEEC2B8ue170006ES8_, symObjAddr: 0x25174, symBinAddr: 0x100028690, symSize: 0x28 }
  - { offsetInCU: 0x76D5B, offset: 0x76D5B, size: 0x8, addend: 0x0, symName: __ZNSt3__114__split_bufferIPN7sc_core18sc_signal_inout_ifIN5sc_dt5sc_bvILi5EEEEERNS_9allocatorIS7_EEED2Ev, symObjAddr: 0x2519C, symBinAddr: 0x1000286B8, symSize: 0x8C }
  - { offsetInCU: 0x76D87, offset: 0x76D87, size: 0x8, addend: 0x0, symName: __ZNSt3__114__split_bufferIPN7sc_core18sc_signal_inout_ifIN5sc_dt5sc_bvILi5EEEEERNS_9allocatorIS7_EEE5clearB8ue170006Ev, symObjAddr: 0x25228, symBinAddr: 0x100028744, symSize: 0x28 }
  - { offsetInCU: 0x76DAD, offset: 0x76DAD, size: 0x8, addend: 0x0, symName: __ZNKSt3__114__split_bufferIPN7sc_core18sc_signal_inout_ifIN5sc_dt5sc_bvILi5EEEEERNS_9allocatorIS7_EEE8capacityB8ue170006Ev, symObjAddr: 0x25250, symBinAddr: 0x10002876C, symSize: 0x40 }
  - { offsetInCU: 0x76DD3, offset: 0x76DD3, size: 0x8, addend: 0x0, symName: __ZNSt3__114__split_bufferIPN7sc_core18sc_signal_inout_ifIN5sc_dt5sc_bvILi5EEEEERNS_9allocatorIS7_EEE17__destruct_at_endB8ue170006EPS7_, symObjAddr: 0x25290, symBinAddr: 0x1000287AC, symSize: 0x2C }
  - { offsetInCU: 0x76E07, offset: 0x76E07, size: 0x8, addend: 0x0, symName: __ZNSt3__114__split_bufferIPN7sc_core18sc_signal_inout_ifIN5sc_dt5sc_bvILi5EEEEERNS_9allocatorIS7_EEE17__destruct_at_endB8ue170006EPS7_NS_17integral_constantIbLb0EEE, symObjAddr: 0x252BC, symBinAddr: 0x1000287D8, symSize: 0x80 }
  - { offsetInCU: 0x76E48, offset: 0x76E48, size: 0x8, addend: 0x0, symName: __ZNKSt3__114__split_bufferIPN7sc_core18sc_signal_inout_ifIN5sc_dt5sc_bvILi5EEEEERNS_9allocatorIS7_EEE9__end_capB8ue170006Ev, symObjAddr: 0x2533C, symBinAddr: 0x100028858, symSize: 0x28 }
  - { offsetInCU: 0x76E6E, offset: 0x76E6E, size: 0x8, addend: 0x0, symName: __ZNKSt3__117__compressed_pairIPPN7sc_core18sc_signal_inout_ifIN5sc_dt5sc_bvILi5EEEEERNS_9allocatorIS7_EEE5firstB8ue170006Ev, symObjAddr: 0x25364, symBinAddr: 0x100028880, symSize: 0x24 }
  - { offsetInCU: 0x76E94, offset: 0x76E94, size: 0x8, addend: 0x0, symName: __ZN7sc_core8sc_inoutIN5sc_dt5sc_bvILi5EEEE5writeERKS3_, symObjAddr: 0x25388, symBinAddr: 0x1000288A4, symSize: 0x40 }
  - { offsetInCU: 0x76EC9, offset: 0x76EC9, size: 0x8, addend: 0x0, symName: __ZN7sc_core9sc_port_bINS_18sc_signal_inout_ifIN5sc_dt5sc_bvILi5EEEEEEptEv, symObjAddr: 0x253C8, symBinAddr: 0x1000288E4, symSize: 0x5C }
  - { offsetInCU: 0x76EF1, offset: 0x76EF1, size: 0x8, addend: 0x0, symName: __ZNKSt3__16vectorIPN7sc_core18sc_signal_inout_ifIN5sc_dt5sc_bvILi5EEEEENS_9allocatorIS7_EEEixB8ue170006Em, symObjAddr: 0x25424, symBinAddr: 0x100028940, symSize: 0x24 }
  - { offsetInCU: 0x76F28, offset: 0x76F28, size: 0x8, addend: 0x0, symName: __ZN7sc_core6sc_outIhEC2Ev, symObjAddr: 0x25448, symBinAddr: 0x100028964, symSize: 0x44 }
  - { offsetInCU: 0x76F52, offset: 0x76F52, size: 0x8, addend: 0x0, symName: __ZN7sc_core8sc_inoutIhEC2Ev, symObjAddr: 0x2548C, symBinAddr: 0x1000289A8, symSize: 0x50 }
  - { offsetInCU: 0x76F7C, offset: 0x76F7C, size: 0x8, addend: 0x0, symName: __ZNK7sc_core6sc_outIhE4kindEv, symObjAddr: 0x254DC, symBinAddr: 0x1000289F8, symSize: 0x18 }
  - { offsetInCU: 0x76FA2, offset: 0x76FA2, size: 0x8, addend: 0x0, symName: __ZN7sc_core6sc_outIhED0Ev, symObjAddr: 0x254F4, symBinAddr: 0x100028A10, symSize: 0x30 }
  - { offsetInCU: 0x76FCC, offset: 0x76FCC, size: 0x8, addend: 0x0, symName: __ZN7sc_core9sc_port_bINS_18sc_signal_inout_ifIhEEE13get_interfaceEv, symObjAddr: 0x25524, symBinAddr: 0x100028A40, symSize: 0x50 }
  - { offsetInCU: 0x76FF2, offset: 0x76FF2, size: 0x8, addend: 0x0, symName: __ZNK7sc_core9sc_port_bINS_18sc_signal_inout_ifIhEEE13get_interfaceEv, symObjAddr: 0x25574, symBinAddr: 0x100028A90, symSize: 0x50 }
  - { offsetInCU: 0x77018, offset: 0x77018, size: 0x8, addend: 0x0, symName: __ZNK7sc_core9sc_port_bINS_18sc_signal_inout_ifIhEEE18get_interface_typeEv, symObjAddr: 0x255C4, symBinAddr: 0x100028AE0, symSize: 0x30 }
  - { offsetInCU: 0x77040, offset: 0x77040, size: 0x8, addend: 0x0, symName: __ZN7sc_core9sc_port_bINS_18sc_signal_inout_ifIhEEE5vbindERNS_12sc_interfaceE, symObjAddr: 0x255F4, symBinAddr: 0x100028B10, symSize: 0xBC }
  - { offsetInCU: 0x77086, offset: 0x77086, size: 0x8, addend: 0x0, symName: __ZN7sc_core9sc_port_bINS_18sc_signal_inout_ifIhEEE5vbindERNS_12sc_port_baseE, symObjAddr: 0x256B0, symBinAddr: 0x100028BCC, symSize: 0xB0 }
  - { offsetInCU: 0x770CC, offset: 0x770CC, size: 0x8, addend: 0x0, symName: __ZN7sc_core9sc_port_bINS_18sc_signal_inout_ifIhEEE13add_interfaceEPNS_12sc_interfaceE, symObjAddr: 0x25760, symBinAddr: 0x100028C7C, symSize: 0x160 }
  - { offsetInCU: 0x7713F, offset: 0x7713F, size: 0x8, addend: 0x0, symName: __ZNK7sc_core9sc_port_bINS_18sc_signal_inout_ifIhEEE15interface_countEv, symObjAddr: 0x258C0, symBinAddr: 0x100028DDC, symSize: 0x24 }
  - { offsetInCU: 0x77167, offset: 0x77167, size: 0x8, addend: 0x0, symName: __ZN7sc_core8sc_inoutIhE18end_of_elaborationEv, symObjAddr: 0x258E4, symBinAddr: 0x100028E00, symSize: 0x190 }
  - { offsetInCU: 0x771DA, offset: 0x771DA, size: 0x8, addend: 0x0, symName: __ZNK7sc_core9sc_port_bINS_18sc_signal_inout_ifIhEEE14make_sensitiveEPNS_17sc_thread_processEPNS_15sc_event_finderE, symObjAddr: 0x25A74, symBinAddr: 0x100028F90, symSize: 0x114 }
  - { offsetInCU: 0x7727A, offset: 0x7727A, size: 0x8, addend: 0x0, symName: __ZNK7sc_core9sc_port_bINS_18sc_signal_inout_ifIhEEE14make_sensitiveEPNS_17sc_method_processEPNS_15sc_event_finderE, symObjAddr: 0x25B88, symBinAddr: 0x1000290A4, symSize: 0x114 }
  - { offsetInCU: 0x7731A, offset: 0x7731A, size: 0x8, addend: 0x0, symName: __ZN7sc_core9sc_port_bINS_18sc_signal_inout_ifIhEEE4bindERS3_, symObjAddr: 0x25C9C, symBinAddr: 0x1000291B8, symSize: 0x2C }
  - { offsetInCU: 0x7734F, offset: 0x7734F, size: 0x8, addend: 0x0, symName: __ZN7sc_core7sc_portINS_18sc_signal_inout_ifIhEELi1ELNS_14sc_port_policyE0EEC2Ev, symObjAddr: 0x25CC8, symBinAddr: 0x1000291E4, symSize: 0x4C }
  - { offsetInCU: 0x77379, offset: 0x77379, size: 0x8, addend: 0x0, symName: __ZNK7sc_core8sc_inoutIhE4kindEv, symObjAddr: 0x25D14, symBinAddr: 0x100029230, symSize: 0x18 }
  - { offsetInCU: 0x7739F, offset: 0x7739F, size: 0x8, addend: 0x0, symName: __ZN7sc_core8sc_inoutIhED1Ev, symObjAddr: 0x25D2C, symBinAddr: 0x100029248, symSize: 0x2C }
  - { offsetInCU: 0x773CB, offset: 0x773CB, size: 0x8, addend: 0x0, symName: __ZN7sc_core8sc_inoutIhED0Ev, symObjAddr: 0x25D58, symBinAddr: 0x100029274, symSize: 0x30 }
  - { offsetInCU: 0x773F7, offset: 0x773F7, size: 0x8, addend: 0x0, symName: __ZN7sc_core9sc_port_bINS_18sc_signal_inout_ifIhEEEC2EiNS_14sc_port_policyE, symObjAddr: 0x25D88, symBinAddr: 0x1000292A4, symSize: 0x64 }
  - { offsetInCU: 0x7743F, offset: 0x7743F, size: 0x8, addend: 0x0, symName: __ZNK7sc_core7sc_portINS_18sc_signal_inout_ifIhEELi1ELNS_14sc_port_policyE0EE4kindEv, symObjAddr: 0x25DEC, symBinAddr: 0x100029308, symSize: 0x18 }
  - { offsetInCU: 0x77465, offset: 0x77465, size: 0x8, addend: 0x0, symName: __ZN7sc_core7sc_portINS_18sc_signal_inout_ifIhEELi1ELNS_14sc_port_policyE0EED1Ev, symObjAddr: 0x25E04, symBinAddr: 0x100029320, symSize: 0x2C }
  - { offsetInCU: 0x7748F, offset: 0x7748F, size: 0x8, addend: 0x0, symName: __ZN7sc_core7sc_portINS_18sc_signal_inout_ifIhEELi1ELNS_14sc_port_policyE0EED0Ev, symObjAddr: 0x25E30, symBinAddr: 0x10002934C, symSize: 0x30 }
  - { offsetInCU: 0x774B9, offset: 0x774B9, size: 0x8, addend: 0x0, symName: __ZNSt3__16vectorIPN7sc_core18sc_signal_inout_ifIhEENS_9allocatorIS4_EEEC1B8ue170006Ev, symObjAddr: 0x25E60, symBinAddr: 0x10002937C, symSize: 0x2C }
  - { offsetInCU: 0x774E3, offset: 0x774E3, size: 0x8, addend: 0x0, symName: __ZN7sc_core9sc_port_bINS_18sc_signal_inout_ifIhEEED1Ev, symObjAddr: 0x25E8C, symBinAddr: 0x1000293A8, symSize: 0x2C }
  - { offsetInCU: 0x7750D, offset: 0x7750D, size: 0x8, addend: 0x0, symName: __ZN7sc_core9sc_port_bINS_18sc_signal_inout_ifIhEEED0Ev, symObjAddr: 0x25EB8, symBinAddr: 0x1000293D4, symSize: 0x30 }
  - { offsetInCU: 0x77537, offset: 0x77537, size: 0x8, addend: 0x0, symName: __ZNSt3__16vectorIPN7sc_core18sc_signal_inout_ifIhEENS_9allocatorIS4_EEEC2B8ue170006Ev, symObjAddr: 0x25EE8, symBinAddr: 0x100029404, symSize: 0x4C }
  - { offsetInCU: 0x77561, offset: 0x77561, size: 0x8, addend: 0x0, symName: __ZNSt3__117__compressed_pairIPPN7sc_core18sc_signal_inout_ifIhEENS_9allocatorIS4_EEEC1B8ue170006IDnNS_18__default_init_tagEEEOT_OT0_, symObjAddr: 0x25F34, symBinAddr: 0x100029450, symSize: 0x3C }
  - { offsetInCU: 0x775B9, offset: 0x775B9, size: 0x8, addend: 0x0, symName: __ZNSt3__117__compressed_pairIPPN7sc_core18sc_signal_inout_ifIhEENS_9allocatorIS4_EEEC2B8ue170006IDnNS_18__default_init_tagEEEOT_OT0_, symObjAddr: 0x25F70, symBinAddr: 0x10002948C, symSize: 0x40 }
  - { offsetInCU: 0x77611, offset: 0x77611, size: 0x8, addend: 0x0, symName: __ZNSt3__122__compressed_pair_elemIPPN7sc_core18sc_signal_inout_ifIhEELi0ELb0EEC2B8ue170006IDnvEEOT_, symObjAddr: 0x25FB0, symBinAddr: 0x1000294CC, symSize: 0x1C }
  - { offsetInCU: 0x77653, offset: 0x77653, size: 0x8, addend: 0x0, symName: __ZNSt3__122__compressed_pair_elemINS_9allocatorIPN7sc_core18sc_signal_inout_ifIhEEEELi1ELb1EEC2B8ue170006ENS_18__default_init_tagE, symObjAddr: 0x25FCC, symBinAddr: 0x1000294E8, symSize: 0x2C }
  - { offsetInCU: 0x77688, offset: 0x77688, size: 0x8, addend: 0x0, symName: __ZNSt3__19allocatorIPN7sc_core18sc_signal_inout_ifIhEEEC2B8ue170006Ev, symObjAddr: 0x25FF8, symBinAddr: 0x100029514, symSize: 0x2C }
  - { offsetInCU: 0x776B2, offset: 0x776B2, size: 0x8, addend: 0x0, symName: __ZNSt3__116__non_trivial_ifILb1ENS_9allocatorIPN7sc_core18sc_signal_inout_ifIhEEEEEC2B8ue170006Ev, symObjAddr: 0x26024, symBinAddr: 0x100029540, symSize: 0x14 }
  - { offsetInCU: 0x776DC, offset: 0x776DC, size: 0x8, addend: 0x0, symName: __ZN7sc_core9sc_port_bINS_18sc_signal_inout_ifIhEEED2Ev, symObjAddr: 0x26038, symBinAddr: 0x100029554, symSize: 0x48 }
  - { offsetInCU: 0x77706, offset: 0x77706, size: 0x8, addend: 0x0, symName: __ZNSt3__16vectorIPN7sc_core18sc_signal_inout_ifIhEENS_9allocatorIS4_EEED1B8ue170006Ev, symObjAddr: 0x26080, symBinAddr: 0x10002959C, symSize: 0x2C }
  - { offsetInCU: 0x77730, offset: 0x77730, size: 0x8, addend: 0x0, symName: __ZNSt3__16vectorIPN7sc_core18sc_signal_inout_ifIhEENS_9allocatorIS4_EEED2B8ue170006Ev, symObjAddr: 0x260AC, symBinAddr: 0x1000295C8, symSize: 0x44 }
  - { offsetInCU: 0x7775A, offset: 0x7775A, size: 0x8, addend: 0x0, symName: __ZNSt3__16vectorIPN7sc_core18sc_signal_inout_ifIhEENS_9allocatorIS4_EEE16__destroy_vectorC1B8ue170006ERS7_, symObjAddr: 0x260F0, symBinAddr: 0x10002960C, symSize: 0x34 }
  - { offsetInCU: 0x77793, offset: 0x77793, size: 0x8, addend: 0x0, symName: __ZNSt3__16vectorIPN7sc_core18sc_signal_inout_ifIhEENS_9allocatorIS4_EEE16__destroy_vectorclB8ue170006Ev, symObjAddr: 0x26124, symBinAddr: 0x100029640, symSize: 0x90 }
  - { offsetInCU: 0x777B9, offset: 0x777B9, size: 0x8, addend: 0x0, symName: __ZNSt3__16vectorIPN7sc_core18sc_signal_inout_ifIhEENS_9allocatorIS4_EEE16__destroy_vectorC2B8ue170006ERS7_, symObjAddr: 0x261B4, symBinAddr: 0x1000296D0, symSize: 0x20 }
  - { offsetInCU: 0x777F2, offset: 0x777F2, size: 0x8, addend: 0x0, symName: __ZNSt3__16vectorIPN7sc_core18sc_signal_inout_ifIhEENS_9allocatorIS4_EEE7__clearB8ue170006Ev, symObjAddr: 0x261D4, symBinAddr: 0x1000296F0, symSize: 0x28 }
  - { offsetInCU: 0x77818, offset: 0x77818, size: 0x8, addend: 0x0, symName: __ZNKSt3__16vectorIPN7sc_core18sc_signal_inout_ifIhEENS_9allocatorIS4_EEE17__annotate_deleteB8ue170006Ev, symObjAddr: 0x261FC, symBinAddr: 0x100029718, symSize: 0xB8 }
  - { offsetInCU: 0x7783E, offset: 0x7783E, size: 0x8, addend: 0x0, symName: __ZNSt3__116allocator_traitsINS_9allocatorIPN7sc_core18sc_signal_inout_ifIhEEEEE10deallocateB8ue170006ERS6_PS5_m, symObjAddr: 0x262B4, symBinAddr: 0x1000297D0, symSize: 0x34 }
  - { offsetInCU: 0x77880, offset: 0x77880, size: 0x8, addend: 0x0, symName: __ZNSt3__16vectorIPN7sc_core18sc_signal_inout_ifIhEENS_9allocatorIS4_EEE7__allocB8ue170006Ev, symObjAddr: 0x262E8, symBinAddr: 0x100029804, symSize: 0x28 }
  - { offsetInCU: 0x778A6, offset: 0x778A6, size: 0x8, addend: 0x0, symName: __ZNKSt3__16vectorIPN7sc_core18sc_signal_inout_ifIhEENS_9allocatorIS4_EEE8capacityB8ue170006Ev, symObjAddr: 0x26310, symBinAddr: 0x10002982C, symSize: 0x40 }
  - { offsetInCU: 0x778CC, offset: 0x778CC, size: 0x8, addend: 0x0, symName: __ZNSt3__16vectorIPN7sc_core18sc_signal_inout_ifIhEENS_9allocatorIS4_EEE22__base_destruct_at_endB8ue170006EPS4_, symObjAddr: 0x26350, symBinAddr: 0x10002986C, symSize: 0x8C }
  - { offsetInCU: 0x77910, offset: 0x77910, size: 0x8, addend: 0x0, symName: __ZNSt3__116allocator_traitsINS_9allocatorIPN7sc_core18sc_signal_inout_ifIhEEEEE7destroyB8ue170006IS5_vEEvRS6_PT_, symObjAddr: 0x263DC, symBinAddr: 0x1000298F8, symSize: 0x2C }
  - { offsetInCU: 0x7794D, offset: 0x7794D, size: 0x8, addend: 0x0, symName: __ZNSt3__19allocatorIPN7sc_core18sc_signal_inout_ifIhEEE7destroyB8ue170006EPS4_, symObjAddr: 0x2641C, symBinAddr: 0x100029938, symSize: 0x14 }
  - { offsetInCU: 0x77981, offset: 0x77981, size: 0x8, addend: 0x0, symName: __ZNKSt3__16vectorIPN7sc_core18sc_signal_inout_ifIhEENS_9allocatorIS4_EEE31__annotate_contiguous_containerB8ue170006EPKvS9_S9_S9_, symObjAddr: 0x26430, symBinAddr: 0x10002994C, symSize: 0x20 }
  - { offsetInCU: 0x779D7, offset: 0x779D7, size: 0x8, addend: 0x0, symName: __ZNKSt3__16vectorIPN7sc_core18sc_signal_inout_ifIhEENS_9allocatorIS4_EEE4dataB8ue170006Ev, symObjAddr: 0x26450, symBinAddr: 0x10002996C, symSize: 0x28 }
  - { offsetInCU: 0x779FD, offset: 0x779FD, size: 0x8, addend: 0x0, symName: __ZNKSt3__16vectorIPN7sc_core18sc_signal_inout_ifIhEENS_9allocatorIS4_EEE4sizeB8ue170006Ev, symObjAddr: 0x26478, symBinAddr: 0x100029994, symSize: 0x28 }
  - { offsetInCU: 0x77A23, offset: 0x77A23, size: 0x8, addend: 0x0, symName: __ZNSt3__19allocatorIPN7sc_core18sc_signal_inout_ifIhEEE10deallocateB8ue170006EPS4_m, symObjAddr: 0x264A0, symBinAddr: 0x1000299BC, symSize: 0x40 }
  - { offsetInCU: 0x77A65, offset: 0x77A65, size: 0x8, addend: 0x0, symName: __ZNSt3__117__compressed_pairIPPN7sc_core18sc_signal_inout_ifIhEENS_9allocatorIS4_EEE6secondB8ue170006Ev, symObjAddr: 0x264E0, symBinAddr: 0x1000299FC, symSize: 0x24 }
  - { offsetInCU: 0x77A8B, offset: 0x77A8B, size: 0x8, addend: 0x0, symName: __ZNSt3__122__compressed_pair_elemINS_9allocatorIPN7sc_core18sc_signal_inout_ifIhEEEELi1ELb1EE5__getB8ue170006Ev, symObjAddr: 0x26504, symBinAddr: 0x100029A20, symSize: 0x14 }
  - { offsetInCU: 0x77AB1, offset: 0x77AB1, size: 0x8, addend: 0x0, symName: __ZNKSt3__16vectorIPN7sc_core18sc_signal_inout_ifIhEENS_9allocatorIS4_EEE9__end_capB8ue170006Ev, symObjAddr: 0x26518, symBinAddr: 0x100029A34, symSize: 0x28 }
  - { offsetInCU: 0x77AD7, offset: 0x77AD7, size: 0x8, addend: 0x0, symName: __ZNKSt3__117__compressed_pairIPPN7sc_core18sc_signal_inout_ifIhEENS_9allocatorIS4_EEE5firstB8ue170006Ev, symObjAddr: 0x26540, symBinAddr: 0x100029A5C, symSize: 0x24 }
  - { offsetInCU: 0x77AFD, offset: 0x77AFD, size: 0x8, addend: 0x0, symName: __ZNKSt3__122__compressed_pair_elemIPPN7sc_core18sc_signal_inout_ifIhEELi0ELb0EE5__getB8ue170006Ev, symObjAddr: 0x26564, symBinAddr: 0x100029A80, symSize: 0x14 }
  - { offsetInCU: 0x77B23, offset: 0x77B23, size: 0x8, addend: 0x0, symName: __ZN7sc_core7sc_portINS_18sc_signal_inout_ifIhEELi1ELNS_14sc_port_policyE0EED2Ev, symObjAddr: 0x26578, symBinAddr: 0x100029A94, symSize: 0x2C }
  - { offsetInCU: 0x77B4D, offset: 0x77B4D, size: 0x8, addend: 0x0, symName: __ZN7sc_core8sc_inoutIhED2Ev, symObjAddr: 0x265A4, symBinAddr: 0x100029AC0, symSize: 0xAC }
  - { offsetInCU: 0x77B79, offset: 0x77B79, size: 0x8, addend: 0x0, symName: __ZNK7sc_core8sc_inoutIhE13remove_tracesEv, symObjAddr: 0x26650, symBinAddr: 0x100029B6C, symSize: 0xF4 }
  - { offsetInCU: 0x77BBF, offset: 0x77BBF, size: 0x8, addend: 0x0, symName: __ZNK7sc_core9sc_port_bINS_18sc_signal_inout_ifIhEEE4sizeEv, symObjAddr: 0x26744, symBinAddr: 0x100029C60, symSize: 0x28 }
  - { offsetInCU: 0x77BE5, offset: 0x77BE5, size: 0x8, addend: 0x0, symName: __ZNSt3__16vectorIPN7sc_core18sc_signal_inout_ifIhEENS_9allocatorIS4_EEEixB8ue170006Em, symObjAddr: 0x2676C, symBinAddr: 0x100029C88, symSize: 0x24 }
  - { offsetInCU: 0x77C1C, offset: 0x77C1C, size: 0x8, addend: 0x0, symName: __ZNSt3__16vectorIPN7sc_core18sc_signal_inout_ifIhEENS_9allocatorIS4_EEE9push_backB8ue170006ERKS4_, symObjAddr: 0x26790, symBinAddr: 0x100029CAC, symSize: 0x6C }
  - { offsetInCU: 0x77C53, offset: 0x77C53, size: 0x8, addend: 0x0, symName: __ZNSt3__16vectorIPN7sc_core18sc_signal_inout_ifIhEENS_9allocatorIS4_EEE9__end_capB8ue170006Ev, symObjAddr: 0x267FC, symBinAddr: 0x100029D18, symSize: 0x28 }
  - { offsetInCU: 0x77C79, offset: 0x77C79, size: 0x8, addend: 0x0, symName: __ZNSt3__16vectorIPN7sc_core18sc_signal_inout_ifIhEENS_9allocatorIS4_EEE22__construct_one_at_endB8ue170006IJRKS4_EEEvDpOT_, symObjAddr: 0x26824, symBinAddr: 0x100029D40, symSize: 0x90 }
  - { offsetInCU: 0x77CC8, offset: 0x77CC8, size: 0x8, addend: 0x0, symName: __ZNSt3__16vectorIPN7sc_core18sc_signal_inout_ifIhEENS_9allocatorIS4_EEE21__push_back_slow_pathIRKS4_EEvOT_, symObjAddr: 0x268B4, symBinAddr: 0x100029DD0, symSize: 0xD8 }
  - { offsetInCU: 0x77D26, offset: 0x77D26, size: 0x8, addend: 0x0, symName: __ZNSt3__117__compressed_pairIPPN7sc_core18sc_signal_inout_ifIhEENS_9allocatorIS4_EEE5firstB8ue170006Ev, symObjAddr: 0x2698C, symBinAddr: 0x100029EA8, symSize: 0x24 }
  - { offsetInCU: 0x77D4C, offset: 0x77D4C, size: 0x8, addend: 0x0, symName: __ZNSt3__122__compressed_pair_elemIPPN7sc_core18sc_signal_inout_ifIhEELi0ELb0EE5__getB8ue170006Ev, symObjAddr: 0x269B0, symBinAddr: 0x100029ECC, symSize: 0x14 }
  - { offsetInCU: 0x77D8D, offset: 0x77D8D, size: 0x8, addend: 0x0, symName: __ZNSt3__16vectorIPN7sc_core18sc_signal_inout_ifIhEENS_9allocatorIS4_EEE21_ConstructTransactionC1B8ue170006ERS7_m, symObjAddr: 0x269C4, symBinAddr: 0x100029EE0, symSize: 0x3C }
  - { offsetInCU: 0x77DD5, offset: 0x77DD5, size: 0x8, addend: 0x0, symName: __ZNSt3__116allocator_traitsINS_9allocatorIPN7sc_core18sc_signal_inout_ifIhEEEEE9constructB8ue170006IS5_JRKS5_EvEEvRS6_PT_DpOT0_, symObjAddr: 0x26A00, symBinAddr: 0x100029F1C, symSize: 0x34 }
  - { offsetInCU: 0x77E2C, offset: 0x77E2C, size: 0x8, addend: 0x0, symName: __ZNSt3__16vectorIPN7sc_core18sc_signal_inout_ifIhEENS_9allocatorIS4_EEE21_ConstructTransactionD1B8ue170006Ev, symObjAddr: 0x26A34, symBinAddr: 0x100029F50, symSize: 0x2C }
  - { offsetInCU: 0x77E56, offset: 0x77E56, size: 0x8, addend: 0x0, symName: __ZNSt3__16vectorIPN7sc_core18sc_signal_inout_ifIhEENS_9allocatorIS4_EEE21_ConstructTransactionC2B8ue170006ERS7_m, symObjAddr: 0x26A60, symBinAddr: 0x100029F7C, symSize: 0x44 }
  - { offsetInCU: 0x77E9E, offset: 0x77E9E, size: 0x8, addend: 0x0, symName: __ZNSt3__19allocatorIPN7sc_core18sc_signal_inout_ifIhEEE9constructB8ue170006IS4_JRKS4_EEEvPT_DpOT0_, symObjAddr: 0x26AA4, symBinAddr: 0x100029FC0, symSize: 0x28 }
  - { offsetInCU: 0x77EF4, offset: 0x77EF4, size: 0x8, addend: 0x0, symName: __ZNSt3__16vectorIPN7sc_core18sc_signal_inout_ifIhEENS_9allocatorIS4_EEE21_ConstructTransactionD2B8ue170006Ev, symObjAddr: 0x26ACC, symBinAddr: 0x100029FE8, symSize: 0x20 }
  - { offsetInCU: 0x77F1E, offset: 0x77F1E, size: 0x8, addend: 0x0, symName: __ZNKSt3__16vectorIPN7sc_core18sc_signal_inout_ifIhEENS_9allocatorIS4_EEE11__recommendB8ue170006Em, symObjAddr: 0x26AEC, symBinAddr: 0x10002A008, symSize: 0xB4 }
  - { offsetInCU: 0x77F73, offset: 0x77F73, size: 0x8, addend: 0x0, symName: __ZNSt3__114__split_bufferIPN7sc_core18sc_signal_inout_ifIhEERNS_9allocatorIS4_EEEC1EmmS7_, symObjAddr: 0x26BA0, symBinAddr: 0x10002A0BC, symSize: 0x44 }
  - { offsetInCU: 0x77FC9, offset: 0x77FC9, size: 0x8, addend: 0x0, symName: __ZNSt3__114__split_bufferIPN7sc_core18sc_signal_inout_ifIhEERNS_9allocatorIS4_EEED1Ev, symObjAddr: 0x26CF4, symBinAddr: 0x10002A210, symSize: 0x2C }
  - { offsetInCU: 0x77FF5, offset: 0x77FF5, size: 0x8, addend: 0x0, symName: __ZNKSt3__16vectorIPN7sc_core18sc_signal_inout_ifIhEENS_9allocatorIS4_EEE8max_sizeEv, symObjAddr: 0x26D20, symBinAddr: 0x10002A23C, symSize: 0x60 }
  - { offsetInCU: 0x7801D, offset: 0x7801D, size: 0x8, addend: 0x0, symName: __ZNKSt3__16vectorIPN7sc_core18sc_signal_inout_ifIhEENS_9allocatorIS4_EEE20__throw_length_errorB8ue170006Ev, symObjAddr: 0x26D80, symBinAddr: 0x10002A29C, symSize: 0x1C }
  - { offsetInCU: 0x7804E, offset: 0x7804E, size: 0x8, addend: 0x0, symName: __ZNSt3__116allocator_traitsINS_9allocatorIPN7sc_core18sc_signal_inout_ifIhEEEEE8max_sizeB8ue170006IS6_vEEmRKS6_, symObjAddr: 0x26D9C, symBinAddr: 0x10002A2B8, symSize: 0x24 }
  - { offsetInCU: 0x7807C, offset: 0x7807C, size: 0x8, addend: 0x0, symName: __ZNKSt3__16vectorIPN7sc_core18sc_signal_inout_ifIhEENS_9allocatorIS4_EEE7__allocB8ue170006Ev, symObjAddr: 0x26DC0, symBinAddr: 0x10002A2DC, symSize: 0x28 }
  - { offsetInCU: 0x780A2, offset: 0x780A2, size: 0x8, addend: 0x0, symName: __ZNKSt3__19allocatorIPN7sc_core18sc_signal_inout_ifIhEEE8max_sizeB8ue170006Ev, symObjAddr: 0x26DE8, symBinAddr: 0x10002A304, symSize: 0x14 }
  - { offsetInCU: 0x780C8, offset: 0x780C8, size: 0x8, addend: 0x0, symName: __ZNKSt3__117__compressed_pairIPPN7sc_core18sc_signal_inout_ifIhEENS_9allocatorIS4_EEE6secondB8ue170006Ev, symObjAddr: 0x26DFC, symBinAddr: 0x10002A318, symSize: 0x24 }
  - { offsetInCU: 0x780EE, offset: 0x780EE, size: 0x8, addend: 0x0, symName: __ZNKSt3__122__compressed_pair_elemINS_9allocatorIPN7sc_core18sc_signal_inout_ifIhEEEELi1ELb1EE5__getB8ue170006Ev, symObjAddr: 0x26E20, symBinAddr: 0x10002A33C, symSize: 0x14 }
  - { offsetInCU: 0x78114, offset: 0x78114, size: 0x8, addend: 0x0, symName: __ZNSt3__114__split_bufferIPN7sc_core18sc_signal_inout_ifIhEERNS_9allocatorIS4_EEEC2EmmS7_, symObjAddr: 0x26E34, symBinAddr: 0x10002A350, symSize: 0xD4 }
  - { offsetInCU: 0x78188, offset: 0x78188, size: 0x8, addend: 0x0, symName: __ZNSt3__117__compressed_pairIPPN7sc_core18sc_signal_inout_ifIhEERNS_9allocatorIS4_EEEC1B8ue170006IDnS8_EEOT_OT0_, symObjAddr: 0x26F08, symBinAddr: 0x10002A424, symSize: 0x3C }
  - { offsetInCU: 0x781E0, offset: 0x781E0, size: 0x8, addend: 0x0, symName: __ZNSt3__114__split_bufferIPN7sc_core18sc_signal_inout_ifIhEERNS_9allocatorIS4_EEE7__allocB8ue170006Ev, symObjAddr: 0x26F84, symBinAddr: 0x10002A4A0, symSize: 0x28 }
  - { offsetInCU: 0x78206, offset: 0x78206, size: 0x8, addend: 0x0, symName: __ZNSt3__114__split_bufferIPN7sc_core18sc_signal_inout_ifIhEERNS_9allocatorIS4_EEE9__end_capB8ue170006Ev, symObjAddr: 0x26FAC, symBinAddr: 0x10002A4C8, symSize: 0x28 }
  - { offsetInCU: 0x7822C, offset: 0x7822C, size: 0x8, addend: 0x0, symName: __ZNSt3__117__compressed_pairIPPN7sc_core18sc_signal_inout_ifIhEERNS_9allocatorIS4_EEEC2B8ue170006IDnS8_EEOT_OT0_, symObjAddr: 0x26FD4, symBinAddr: 0x10002A4F0, symSize: 0x48 }
  - { offsetInCU: 0x78284, offset: 0x78284, size: 0x8, addend: 0x0, symName: __ZNSt3__122__compressed_pair_elemIRNS_9allocatorIPN7sc_core18sc_signal_inout_ifIhEEEELi1ELb0EEC2B8ue170006IS7_vEEOT_, symObjAddr: 0x2701C, symBinAddr: 0x10002A538, symSize: 0x20 }
  - { offsetInCU: 0x782C6, offset: 0x782C6, size: 0x8, addend: 0x0, symName: __ZNSt3__19allocatorIPN7sc_core18sc_signal_inout_ifIhEEE8allocateB8ue170006Em, symObjAddr: 0x2703C, symBinAddr: 0x10002A558, symSize: 0x58 }
  - { offsetInCU: 0x782FA, offset: 0x782FA, size: 0x8, addend: 0x0, symName: __ZNSt3__117__compressed_pairIPPN7sc_core18sc_signal_inout_ifIhEERNS_9allocatorIS4_EEE6secondB8ue170006Ev, symObjAddr: 0x27094, symBinAddr: 0x10002A5B0, symSize: 0x28 }
  - { offsetInCU: 0x78320, offset: 0x78320, size: 0x8, addend: 0x0, symName: __ZNSt3__122__compressed_pair_elemIRNS_9allocatorIPN7sc_core18sc_signal_inout_ifIhEEEELi1ELb0EE5__getB8ue170006Ev, symObjAddr: 0x270BC, symBinAddr: 0x10002A5D8, symSize: 0x18 }
  - { offsetInCU: 0x78346, offset: 0x78346, size: 0x8, addend: 0x0, symName: __ZNSt3__117__compressed_pairIPPN7sc_core18sc_signal_inout_ifIhEERNS_9allocatorIS4_EEE5firstB8ue170006Ev, symObjAddr: 0x270D4, symBinAddr: 0x10002A5F0, symSize: 0x24 }
  - { offsetInCU: 0x7836C, offset: 0x7836C, size: 0x8, addend: 0x0, symName: __ZNSt3__116reverse_iteratorIPPN7sc_core18sc_signal_inout_ifIhEEEC1B8ue170006ES5_, symObjAddr: 0x27170, symBinAddr: 0x10002A68C, symSize: 0x34 }
  - { offsetInCU: 0x783A4, offset: 0x783A4, size: 0x8, addend: 0x0, symName: __ZNKSt3__116reverse_iteratorIPPN7sc_core18sc_signal_inout_ifIhEEE4baseB8ue170006Ev, symObjAddr: 0x271A4, symBinAddr: 0x10002A6C0, symSize: 0x18 }
  - { offsetInCU: 0x783CA, offset: 0x783CA, size: 0x8, addend: 0x0, symName: __ZNKSt3__16vectorIPN7sc_core18sc_signal_inout_ifIhEENS_9allocatorIS4_EEE14__annotate_newB8ue170006Em, symObjAddr: 0x271F8, symBinAddr: 0x10002A714, symSize: 0xAC }
  - { offsetInCU: 0x7841B, offset: 0x7841B, size: 0x8, addend: 0x0, symName: __ZNKSt3__111__move_loopINS_17_ClassicAlgPolicyEEclB8ue170006INS_16reverse_iteratorIPPN7sc_core18sc_signal_inout_ifIhEEEESA_SA_EENS_4pairIT_T1_EESC_T0_SD_, symObjAddr: 0x27594, symBinAddr: 0x10002AAB0, symSize: 0xA0 }
  - { offsetInCU: 0x7848C, offset: 0x7848C, size: 0x8, addend: 0x0, symName: __ZNSt3__18_IterOpsINS_17_ClassicAlgPolicyEE11__iter_moveB8ue170006IRNS_16reverse_iteratorIPPN7sc_core18sc_signal_inout_ifIhEEEEEENS_9enable_ifIXsr12is_referenceIDTdeclsr3stdE7declvalIRT_EEEEE5valueEDTclsr3stdE4movedeclsr3stdE7declvalISE_EEEEE4typeEOSD_, symObjAddr: 0x277C8, symBinAddr: 0x10002ACE4, symSize: 0x28 }
  - { offsetInCU: 0x784B8, offset: 0x784B8, size: 0x8, addend: 0x0, symName: __ZNKSt3__116reverse_iteratorIPPN7sc_core18sc_signal_inout_ifIhEEEdeB8ue170006Ev, symObjAddr: 0x277F0, symBinAddr: 0x10002AD0C, symSize: 0x28 }
  - { offsetInCU: 0x784EC, offset: 0x784EC, size: 0x8, addend: 0x0, symName: __ZNSt3__116reverse_iteratorIPPN7sc_core18sc_signal_inout_ifIhEEEppB8ue170006Ev, symObjAddr: 0x27818, symBinAddr: 0x10002AD34, symSize: 0x20 }
  - { offsetInCU: 0x78512, offset: 0x78512, size: 0x8, addend: 0x0, symName: __ZNSt3__18_IterOpsINS_17_ClassicAlgPolicyEE25__validate_iter_referenceB8ue170006IRNS_16reverse_iteratorIPPN7sc_core18sc_signal_inout_ifIhEEEEEEvv, symObjAddr: 0x27838, symBinAddr: 0x10002AD54, symSize: 0x4 }
  - { offsetInCU: 0x78530, offset: 0x78530, size: 0x8, addend: 0x0, symName: __ZNSt3__118__unwrap_iter_implINS_16reverse_iteratorIPPN7sc_core18sc_signal_inout_ifIhEEEELb0EE8__unwrapB8ue170006ES7_, symObjAddr: 0x2783C, symBinAddr: 0x10002AD58, symSize: 0x24 }
  - { offsetInCU: 0x78559, offset: 0x78559, size: 0x8, addend: 0x0, symName: __ZNSt3__14pairINS_16reverse_iteratorIPPN7sc_core18sc_signal_inout_ifIhEEEES7_EC1B8ue170006IS7_S7_LPv0EEEOT_OT0_, symObjAddr: 0x27860, symBinAddr: 0x10002AD7C, symSize: 0x3C }
  - { offsetInCU: 0x785B7, offset: 0x785B7, size: 0x8, addend: 0x0, symName: __ZNSt3__14pairINS_16reverse_iteratorIPPN7sc_core18sc_signal_inout_ifIhEEEES7_EC2B8ue170006IS7_S7_LPv0EEEOT_OT0_, symObjAddr: 0x2789C, symBinAddr: 0x10002ADB8, symSize: 0x34 }
  - { offsetInCU: 0x78615, offset: 0x78615, size: 0x8, addend: 0x0, symName: __ZNSt3__118__unwrap_iter_implINS_16reverse_iteratorIPPN7sc_core18sc_signal_inout_ifIhEEEELb0EE8__rewrapB8ue170006ES7_S7_, symObjAddr: 0x278D0, symBinAddr: 0x10002ADEC, symSize: 0x2C }
  - { offsetInCU: 0x78643, offset: 0x78643, size: 0x8, addend: 0x0, symName: __ZNSt3__116reverse_iteratorIPPN7sc_core18sc_signal_inout_ifIhEEEC2B8ue170006ES5_, symObjAddr: 0x278FC, symBinAddr: 0x10002AE18, symSize: 0x28 }
  - { offsetInCU: 0x7867B, offset: 0x7867B, size: 0x8, addend: 0x0, symName: __ZNSt3__114__split_bufferIPN7sc_core18sc_signal_inout_ifIhEERNS_9allocatorIS4_EEED2Ev, symObjAddr: 0x27924, symBinAddr: 0x10002AE40, symSize: 0x8C }
  - { offsetInCU: 0x786A7, offset: 0x786A7, size: 0x8, addend: 0x0, symName: __ZNSt3__114__split_bufferIPN7sc_core18sc_signal_inout_ifIhEERNS_9allocatorIS4_EEE5clearB8ue170006Ev, symObjAddr: 0x279B0, symBinAddr: 0x10002AECC, symSize: 0x28 }
  - { offsetInCU: 0x786CD, offset: 0x786CD, size: 0x8, addend: 0x0, symName: __ZNKSt3__114__split_bufferIPN7sc_core18sc_signal_inout_ifIhEERNS_9allocatorIS4_EEE8capacityB8ue170006Ev, symObjAddr: 0x279D8, symBinAddr: 0x10002AEF4, symSize: 0x40 }
  - { offsetInCU: 0x786F3, offset: 0x786F3, size: 0x8, addend: 0x0, symName: __ZNSt3__114__split_bufferIPN7sc_core18sc_signal_inout_ifIhEERNS_9allocatorIS4_EEE17__destruct_at_endB8ue170006EPS4_, symObjAddr: 0x27A18, symBinAddr: 0x10002AF34, symSize: 0x2C }
  - { offsetInCU: 0x78727, offset: 0x78727, size: 0x8, addend: 0x0, symName: __ZNSt3__114__split_bufferIPN7sc_core18sc_signal_inout_ifIhEERNS_9allocatorIS4_EEE17__destruct_at_endB8ue170006EPS4_NS_17integral_constantIbLb0EEE, symObjAddr: 0x27A44, symBinAddr: 0x10002AF60, symSize: 0x80 }
  - { offsetInCU: 0x78768, offset: 0x78768, size: 0x8, addend: 0x0, symName: __ZNKSt3__114__split_bufferIPN7sc_core18sc_signal_inout_ifIhEERNS_9allocatorIS4_EEE9__end_capB8ue170006Ev, symObjAddr: 0x27AC4, symBinAddr: 0x10002AFE0, symSize: 0x28 }
  - { offsetInCU: 0x7878E, offset: 0x7878E, size: 0x8, addend: 0x0, symName: __ZNKSt3__117__compressed_pairIPPN7sc_core18sc_signal_inout_ifIhEERNS_9allocatorIS4_EEE5firstB8ue170006Ev, symObjAddr: 0x27AEC, symBinAddr: 0x10002B008, symSize: 0x24 }
  - { offsetInCU: 0x787B4, offset: 0x787B4, size: 0x8, addend: 0x0, symName: __ZN7sc_core8sc_inoutIhE5writeERKh, symObjAddr: 0x27B10, symBinAddr: 0x10002B02C, symSize: 0x40 }
  - { offsetInCU: 0x787E9, offset: 0x787E9, size: 0x8, addend: 0x0, symName: __ZN7sc_core9sc_port_bINS_18sc_signal_inout_ifIhEEEptEv, symObjAddr: 0x27B50, symBinAddr: 0x10002B06C, symSize: 0x5C }
  - { offsetInCU: 0x78811, offset: 0x78811, size: 0x8, addend: 0x0, symName: __ZNKSt3__16vectorIPN7sc_core18sc_signal_inout_ifIhEENS_9allocatorIS4_EEEixB8ue170006Em, symObjAddr: 0x27BAC, symBinAddr: 0x10002B0C8, symSize: 0x24 }
  - { offsetInCU: 0x78848, offset: 0x78848, size: 0x8, addend: 0x0, symName: __ZN7sc_core9sc_module4waitERKNS_7sc_timeE, symObjAddr: 0x27BD0, symBinAddr: 0x10002B0EC, symSize: 0x3C }
  - { offsetInCU: 0x7887C, offset: 0x7887C, size: 0x8, addend: 0x0, symName: __ZN5sc_dt5sc_bvILi2EEC1Ei, symObjAddr: 0x27C0C, symBinAddr: 0x10002B128, symSize: 0x34 }
  - { offsetInCU: 0x788B4, offset: 0x788B4, size: 0x8, addend: 0x0, symName: __ZN5sc_dt5sc_bvILi2EED1Ev, symObjAddr: 0x27C40, symBinAddr: 0x10002B15C, symSize: 0x2C }
  - { offsetInCU: 0x788E0, offset: 0x788E0, size: 0x8, addend: 0x0, symName: __ZN2CU16instructionFetchEv, symObjAddr: 0x27C6C, symBinAddr: 0x10002B188, symSize: 0xC4 }
